;--------------------------------------------------------
; File Created by SDCC : free open source ANSI-C Compiler
; Version 4.1.0 #12072 (MINGW64)
;--------------------------------------------------------
	.module stm8_hd44780
	.optsdcc -mstm8
	
;--------------------------------------------------------
; Public variables in this module
;--------------------------------------------------------
	.globl _GPIO_ReadInputPin
	.globl _GPIO_WriteLow
	.globl _GPIO_WriteHigh
	.globl _GPIO_Init
	.globl _lcd_store_symbol
	.globl _lcd_puts
	.globl _lcd_init
	.globl _lcd_gotoxy
	.globl _lcd_init_hw
	.globl _lcd_bus_outputs
	.globl _lcd_bus_inputs
	.globl _lcd_deinit_hw
	.globl _lcd_bus_set
	.globl _lcd_bus_read
	.globl _lcd_e_tick
	.globl _lcd_command
	.globl _lcd_data
	.globl _lcd_read
	.globl _lcd_bus_sleep
	.globl _lcd_bus_wakeup
	.globl _lcd_busy_wait
;--------------------------------------------------------
; ram data
;--------------------------------------------------------
	.area DATA
;--------------------------------------------------------
; ram data
;--------------------------------------------------------
	.area INITIALIZED
;--------------------------------------------------------
; absolute external ram data
;--------------------------------------------------------
	.area DABS (ABS)

; default segment ordering for linker
	.area HOME
	.area GSINIT
	.area GSFINAL
	.area CONST
	.area INITIALIZER
	.area CODE

;--------------------------------------------------------
; global & static initialisations
;--------------------------------------------------------
	.area HOME
	.area GSINIT
	.area GSFINAL
	.area GSINIT
;--------------------------------------------------------
; Home
;--------------------------------------------------------
	.area HOME
	.area HOME
;--------------------------------------------------------
; code
;--------------------------------------------------------
	.area CODE
	Sstm8_hd44780$_delay_cycl$0 ==.
;	inc/delay.h: 14: static @inline void _delay_cycl( unsigned short __ticks )
; genLabel
;	-----------------------------------------
;	 function _delay_cycl
;	-----------------------------------------
;	Register assignment is optimal.
;	Stack space usage: 0 bytes.
__delay_cycl:
	Sstm8_hd44780$_delay_cycl$1 ==.
	Sstm8_hd44780$_delay_cycl$2 ==.
;	inc/delay.h: 25: __asm__("nop\n nop\n"); 
;	genInline
	nop
	nop
	Sstm8_hd44780$_delay_cycl$3 ==.
;	inc/delay.h: 26: do { 		// ASM: ldw X, #tick; lab$: decw X; tnzw X; jrne lab$
; genAssign
	ldw	x, (0x03, sp)
; genLabel
00101$:
	Sstm8_hd44780$_delay_cycl$4 ==.
	Sstm8_hd44780$_delay_cycl$5 ==.
;	inc/delay.h: 27: __ticks--;//      2c;                 1c;     2c    ; 1/2c   
; genMinus
	decw	x
	Sstm8_hd44780$_delay_cycl$6 ==.
	Sstm8_hd44780$_delay_cycl$7 ==.
;	inc/delay.h: 28: } while ( __ticks );
; genIfx
	tnzw	x
	jreq	00117$
	jp	00101$
00117$:
	Sstm8_hd44780$_delay_cycl$8 ==.
;	inc/delay.h: 29: __asm__("nop\n");
;	genInline
	nop
; genLabel
00104$:
	Sstm8_hd44780$_delay_cycl$9 ==.
;	inc/delay.h: 39: }
; genEndFunction
	Sstm8_hd44780$_delay_cycl$10 ==.
	XFstm8_hd44780$_delay_cycl$0$0 ==.
	ret
	Sstm8_hd44780$_delay_cycl$11 ==.
	Sstm8_hd44780$_delay_us$12 ==.
;	inc/delay.h: 41: static @inline void _delay_us( const unsigned short __us ){
; genLabel
;	-----------------------------------------
;	 function _delay_us
;	-----------------------------------------
;	Register assignment might be sub-optimal.
;	Stack space usage: 0 bytes.
__delay_us:
	Sstm8_hd44780$_delay_us$13 ==.
	Sstm8_hd44780$_delay_us$14 ==.
;	inc/delay.h: 42: _delay_cycl( (unsigned short)( T_COUNT(__us) ));
; genCast
; genAssign
	ldw	y, (0x03, sp)
	clrw	x
; genIPush
	pushw	y
	Sstm8_hd44780$_delay_us$15 ==.
	pushw	x
	Sstm8_hd44780$_delay_us$16 ==.
; genIPush
	push	#0x00
	Sstm8_hd44780$_delay_us$17 ==.
	push	#0x24
	Sstm8_hd44780$_delay_us$18 ==.
	push	#0xf4
	Sstm8_hd44780$_delay_us$19 ==.
	push	#0x00
	Sstm8_hd44780$_delay_us$20 ==.
; genCall
	call	__mullong
	addw	sp, #8
	Sstm8_hd44780$_delay_us$21 ==.
	Sstm8_hd44780$_delay_us$22 ==.
; genCast
; genAssign
; genIPush
	push	#0x40
	Sstm8_hd44780$_delay_us$23 ==.
	push	#0x42
	Sstm8_hd44780$_delay_us$24 ==.
	push	#0x0f
	Sstm8_hd44780$_delay_us$25 ==.
	push	#0x00
	Sstm8_hd44780$_delay_us$26 ==.
; genIPush
	pushw	x
	Sstm8_hd44780$_delay_us$27 ==.
	pushw	y
	Sstm8_hd44780$_delay_us$28 ==.
; genCall
	call	__divulong
	addw	sp, #8
	Sstm8_hd44780$_delay_us$29 ==.
	Sstm8_hd44780$_delay_us$30 ==.
; genRightShiftLiteral
	srlw	y
	rrcw	x
	srlw	y
	rrcw	x
	srlw	y
	rrcw	x
; genCast
; genAssign
	Sstm8_hd44780$_delay_us$31 ==.
; genPlus
	incw	x
; genAssign
; genAssign
	Sstm8_hd44780$_delay_us$32 ==.
; genAssign
	Sstm8_hd44780$_delay_us$33 ==.
;	inc/delay.h: 25: __asm__("nop\n nop\n"); 
;	genInline
	nop
	nop
	Sstm8_hd44780$_delay_us$34 ==.
	Sstm8_hd44780$_delay_us$35 ==.
;	inc/delay.h: 26: do { 		// ASM: ldw X, #tick; lab$: decw X; tnzw X; jrne lab$
; genAssign
; genLabel
00101$:
	Sstm8_hd44780$_delay_us$36 ==.
;	inc/delay.h: 27: __ticks--;//      2c;                 1c;     2c    ; 1/2c   
; genMinus
	decw	x
	Sstm8_hd44780$_delay_us$37 ==.
;	inc/delay.h: 28: } while ( __ticks );
; genIfx
	tnzw	x
	jreq	00118$
	jp	00101$
00118$:
;	inc/delay.h: 29: __asm__("nop\n");
;	genInline
	nop
	Sstm8_hd44780$_delay_us$38 ==.
	Sstm8_hd44780$_delay_us$39 ==.
;	inc/delay.h: 42: _delay_cycl( (unsigned short)( T_COUNT(__us) ));
; genLabel
00105$:
	Sstm8_hd44780$_delay_us$40 ==.
;	inc/delay.h: 43: }
; genEndFunction
	Sstm8_hd44780$_delay_us$41 ==.
	XFstm8_hd44780$_delay_us$0$0 ==.
	ret
	Sstm8_hd44780$_delay_us$42 ==.
	Sstm8_hd44780$lcd_store_symbol$43 ==.
;	./src/stm8_hd44780.c: 13: void lcd_store_symbol(uint8_t pos, uint8_t* charmap){
; genLabel
;	-----------------------------------------
;	 function lcd_store_symbol
;	-----------------------------------------
;	Register assignment is optimal.
;	Stack space usage: 1 bytes.
_lcd_store_symbol:
	Sstm8_hd44780$lcd_store_symbol$44 ==.
	push	a
	Sstm8_hd44780$lcd_store_symbol$45 ==.
	Sstm8_hd44780$lcd_store_symbol$46 ==.
;	./src/stm8_hd44780.c: 15: if(pos>7) return;
; genCmp
; genCmpTop
	ld	a, (0x04, sp)
	cp	a, #0x07
	jrugt	00124$
	jp	00102$
00124$:
; skipping generated iCode
; genReturn
	jp	00106$
; genLabel
00102$:
	Sstm8_hd44780$lcd_store_symbol$47 ==.
;	./src/stm8_hd44780.c: 16: lcd_command(LCD_SET_CGRAM | pos);
; genOr
	ld	a, (0x04, sp)
	or	a, #0x40
; genIPush
	push	a
	Sstm8_hd44780$lcd_store_symbol$48 ==.
; genCall
	call	_lcd_command
	pop	a
	Sstm8_hd44780$lcd_store_symbol$49 ==.
	Sstm8_hd44780$lcd_store_symbol$50 ==.
;	./src/stm8_hd44780.c: 17: for(i=0;i<8;i++){
; genAssign
	clr	(0x01, sp)
; genLabel
00104$:
	Sstm8_hd44780$lcd_store_symbol$51 ==.
	Sstm8_hd44780$lcd_store_symbol$52 ==.
;	./src/stm8_hd44780.c: 18: lcd_data(charmap[i]);
; genPlus
	clrw	x
	ld	a, (0x01, sp)
	ld	xl, a
	addw	x, (0x05, sp)
; genPointerGet
	ld	a, (x)
; genIPush
	push	a
	Sstm8_hd44780$lcd_store_symbol$53 ==.
; genCall
	call	_lcd_data
	pop	a
	Sstm8_hd44780$lcd_store_symbol$54 ==.
	Sstm8_hd44780$lcd_store_symbol$55 ==.
	Sstm8_hd44780$lcd_store_symbol$56 ==.
;	./src/stm8_hd44780.c: 17: for(i=0;i<8;i++){
; genPlus
	inc	(0x01, sp)
; genCmp
; genCmpTop
	ld	a, (0x01, sp)
	cp	a, #0x08
	jrnc	00125$
	jp	00104$
00125$:
; skipping generated iCode
	Sstm8_hd44780$lcd_store_symbol$57 ==.
;	./src/stm8_hd44780.c: 20: lcd_command(LCD_SET_DDRAM | 0); // other funtions (like lcd_puts) relies that address counter points into DDRAM
; genIPush
	push	#0x80
	Sstm8_hd44780$lcd_store_symbol$58 ==.
; genCall
	call	_lcd_command
	pop	a
	Sstm8_hd44780$lcd_store_symbol$59 ==.
; genLabel
00106$:
	Sstm8_hd44780$lcd_store_symbol$60 ==.
;	./src/stm8_hd44780.c: 21: }
; genEndFunction
	pop	a
	Sstm8_hd44780$lcd_store_symbol$61 ==.
	Sstm8_hd44780$lcd_store_symbol$62 ==.
	XG$lcd_store_symbol$0$0 ==.
	ret
	Sstm8_hd44780$lcd_store_symbol$63 ==.
	Sstm8_hd44780$lcd_puts$64 ==.
;	./src/stm8_hd44780.c: 25: void lcd_puts(char* text){
; genLabel
;	-----------------------------------------
;	 function lcd_puts
;	-----------------------------------------
;	Register assignment is optimal.
;	Stack space usage: 0 bytes.
_lcd_puts:
	Sstm8_hd44780$lcd_puts$65 ==.
	Sstm8_hd44780$lcd_puts$66 ==.
;	./src/stm8_hd44780.c: 26: while(*text){
; genAssign
	ldw	x, (0x03, sp)
; genLabel
00101$:
; genPointerGet
	ld	a, (x)
; genIfx
	tnz	a
	jrne	00117$
	jp	00104$
00117$:
	Sstm8_hd44780$lcd_puts$67 ==.
	Sstm8_hd44780$lcd_puts$68 ==.
;	./src/stm8_hd44780.c: 27: lcd_data(*text);
; genIPush
	pushw	x
	Sstm8_hd44780$lcd_puts$69 ==.
	push	a
	Sstm8_hd44780$lcd_puts$70 ==.
; genCall
	call	_lcd_data
	pop	a
	Sstm8_hd44780$lcd_puts$71 ==.
	popw	x
	Sstm8_hd44780$lcd_puts$72 ==.
	Sstm8_hd44780$lcd_puts$73 ==.
;	./src/stm8_hd44780.c: 28: text++;
; genPlus
	incw	x
	Sstm8_hd44780$lcd_puts$74 ==.
; genGoto
	jp	00101$
; genLabel
00104$:
	Sstm8_hd44780$lcd_puts$75 ==.
;	./src/stm8_hd44780.c: 30: }
; genEndFunction
	Sstm8_hd44780$lcd_puts$76 ==.
	XG$lcd_puts$0$0 ==.
	ret
	Sstm8_hd44780$lcd_puts$77 ==.
	Sstm8_hd44780$lcd_init$78 ==.
;	./src/stm8_hd44780.c: 32: void lcd_init(void){
; genLabel
;	-----------------------------------------
;	 function lcd_init
;	-----------------------------------------
;	Register assignment is optimal.
;	Stack space usage: 0 bytes.
_lcd_init:
	Sstm8_hd44780$lcd_init$79 ==.
	Sstm8_hd44780$lcd_init$80 ==.
;	./src/stm8_hd44780.c: 33: lcd_init_hw();
; genCall
	call	_lcd_init_hw
	Sstm8_hd44780$lcd_init$81 ==.
;	./src/stm8_hd44780.c: 35: lcd_bus_outputs();
; genCall
	call	_lcd_bus_outputs
	Sstm8_hd44780$lcd_init$82 ==.
;	inc/delay.h: 42: _delay_cycl( (unsigned short)( T_COUNT(__us) ));
; genAssign
	ldw	x, #0x01d9
	Sstm8_hd44780$lcd_init$83 ==.
;	inc/delay.h: 25: __asm__("nop\n nop\n"); 
;	genInline
	nop
	nop
	Sstm8_hd44780$lcd_init$84 ==.
	Sstm8_hd44780$lcd_init$85 ==.
;	inc/delay.h: 26: do { 		// ASM: ldw X, #tick; lab$: decw X; tnzw X; jrne lab$
; genAssign
; genLabel
00101$:
	Sstm8_hd44780$lcd_init$86 ==.
;	inc/delay.h: 27: __ticks--;//      2c;                 1c;     2c    ; 1/2c   
; genMinus
	decw	x
	Sstm8_hd44780$lcd_init$87 ==.
;	inc/delay.h: 28: } while ( __ticks );
; genIfx
	tnzw	x
	jreq	00167$
	jp	00101$
00167$:
;	inc/delay.h: 29: __asm__("nop\n");
;	genInline
	nop
	Sstm8_hd44780$lcd_init$88 ==.
	Sstm8_hd44780$lcd_init$89 ==.
;	./src/stm8_hd44780.c: 38: lcd_bus_set(0b0011);
; genIPush
	push	#0x03
	Sstm8_hd44780$lcd_init$90 ==.
; genCall
	call	_lcd_bus_set
	pop	a
	Sstm8_hd44780$lcd_init$91 ==.
	Sstm8_hd44780$lcd_init$92 ==.
;	./src/stm8_hd44780.c: 39: lcd_e_tick();
; genCall
	call	_lcd_e_tick
	Sstm8_hd44780$lcd_init$93 ==.
;	inc/delay.h: 42: _delay_cycl( (unsigned short)( T_COUNT(__us) ));
; genAssign
	ldw	x, #0x0093
	Sstm8_hd44780$lcd_init$94 ==.
;	inc/delay.h: 25: __asm__("nop\n nop\n"); 
;	genInline
	nop
	nop
	Sstm8_hd44780$lcd_init$95 ==.
	Sstm8_hd44780$lcd_init$96 ==.
;	inc/delay.h: 26: do { 		// ASM: ldw X, #tick; lab$: decw X; tnzw X; jrne lab$
; genAssign
; genLabel
00106$:
	Sstm8_hd44780$lcd_init$97 ==.
;	inc/delay.h: 27: __ticks--;//      2c;                 1c;     2c    ; 1/2c   
; genMinus
	decw	x
	Sstm8_hd44780$lcd_init$98 ==.
;	inc/delay.h: 28: } while ( __ticks );
; genIfx
	tnzw	x
	jreq	00168$
	jp	00106$
00168$:
;	inc/delay.h: 29: __asm__("nop\n");
;	genInline
	nop
	Sstm8_hd44780$lcd_init$99 ==.
	Sstm8_hd44780$lcd_init$100 ==.
;	./src/stm8_hd44780.c: 42: lcd_bus_set(0b0011);
; genIPush
	push	#0x03
	Sstm8_hd44780$lcd_init$101 ==.
; genCall
	call	_lcd_bus_set
	pop	a
	Sstm8_hd44780$lcd_init$102 ==.
	Sstm8_hd44780$lcd_init$103 ==.
;	./src/stm8_hd44780.c: 43: lcd_e_tick();
; genCall
	call	_lcd_e_tick
	Sstm8_hd44780$lcd_init$104 ==.
;	inc/delay.h: 42: _delay_cycl( (unsigned short)( T_COUNT(__us) ));
; genAssign
	ldw	x, #0x00c9
	Sstm8_hd44780$lcd_init$105 ==.
;	inc/delay.h: 25: __asm__("nop\n nop\n"); 
;	genInline
	nop
	nop
	Sstm8_hd44780$lcd_init$106 ==.
	Sstm8_hd44780$lcd_init$107 ==.
;	inc/delay.h: 26: do { 		// ASM: ldw X, #tick; lab$: decw X; tnzw X; jrne lab$
; genAssign
; genLabel
00111$:
	Sstm8_hd44780$lcd_init$108 ==.
;	inc/delay.h: 27: __ticks--;//      2c;                 1c;     2c    ; 1/2c   
; genMinus
	decw	x
	Sstm8_hd44780$lcd_init$109 ==.
;	inc/delay.h: 28: } while ( __ticks );
; genIfx
	tnzw	x
	jreq	00169$
	jp	00111$
00169$:
;	inc/delay.h: 29: __asm__("nop\n");
;	genInline
	nop
	Sstm8_hd44780$lcd_init$110 ==.
	Sstm8_hd44780$lcd_init$111 ==.
;	./src/stm8_hd44780.c: 46: lcd_bus_set(0b0011);
; genIPush
	push	#0x03
	Sstm8_hd44780$lcd_init$112 ==.
; genCall
	call	_lcd_bus_set
	pop	a
	Sstm8_hd44780$lcd_init$113 ==.
	Sstm8_hd44780$lcd_init$114 ==.
;	./src/stm8_hd44780.c: 47: lcd_e_tick();
; genCall
	call	_lcd_e_tick
	Sstm8_hd44780$lcd_init$115 ==.
;	./src/stm8_hd44780.c: 48: lcd_bus_set(0b0010);
; genIPush
	push	#0x02
	Sstm8_hd44780$lcd_init$116 ==.
; genCall
	call	_lcd_bus_set
	pop	a
	Sstm8_hd44780$lcd_init$117 ==.
	Sstm8_hd44780$lcd_init$118 ==.
;	./src/stm8_hd44780.c: 49: lcd_e_tick();
; genCall
	call	_lcd_e_tick
	Sstm8_hd44780$lcd_init$119 ==.
;	inc/delay.h: 42: _delay_cycl( (unsigned short)( T_COUNT(__us) ));
; genAssign
	ldw	x, #0x0051
	Sstm8_hd44780$lcd_init$120 ==.
;	inc/delay.h: 25: __asm__("nop\n nop\n"); 
;	genInline
	nop
	nop
	Sstm8_hd44780$lcd_init$121 ==.
	Sstm8_hd44780$lcd_init$122 ==.
;	inc/delay.h: 26: do { 		// ASM: ldw X, #tick; lab$: decw X; tnzw X; jrne lab$
; genAssign
; genLabel
00116$:
	Sstm8_hd44780$lcd_init$123 ==.
;	inc/delay.h: 27: __ticks--;//      2c;                 1c;     2c    ; 1/2c   
; genMinus
	decw	x
	Sstm8_hd44780$lcd_init$124 ==.
;	inc/delay.h: 28: } while ( __ticks );
; genIfx
	tnzw	x
	jreq	00170$
	jp	00116$
00170$:
;	inc/delay.h: 29: __asm__("nop\n");
;	genInline
	nop
	Sstm8_hd44780$lcd_init$125 ==.
	Sstm8_hd44780$lcd_init$126 ==.
;	./src/stm8_hd44780.c: 55: lcd_command(LCD_FUNCTION_SET | LCD_4BITS | LCD_2LINES | USED_FONT);
; genIPush
	push	#0x28
	Sstm8_hd44780$lcd_init$127 ==.
; genCall
	call	_lcd_command
	pop	a
	Sstm8_hd44780$lcd_init$128 ==.
	Sstm8_hd44780$lcd_init$129 ==.
;	./src/stm8_hd44780.c: 57: lcd_command(LCD_ENTRY_MODE_SET | LCD_INCREMENT | LCD_DISPLAY_NOSHIFT);
; genIPush
	push	#0x06
	Sstm8_hd44780$lcd_init$130 ==.
; genCall
	call	_lcd_command
	pop	a
	Sstm8_hd44780$lcd_init$131 ==.
	Sstm8_hd44780$lcd_init$132 ==.
;	./src/stm8_hd44780.c: 58: lcd_command(LCD_DISPLAY_ONOFF | LCD_ON | LCD_CURSOR_OFF | LCD_BLINK_OFF);
; genIPush
	push	#0x0c
	Sstm8_hd44780$lcd_init$133 ==.
; genCall
	call	_lcd_command
	pop	a
	Sstm8_hd44780$lcd_init$134 ==.
	Sstm8_hd44780$lcd_init$135 ==.
;	./src/stm8_hd44780.c: 59: lcd_command(LCD_CURSOR_OR_DISPLAY_SHIFT | LCD_CURSOR_SHIFT | LCD_SHIFT_RIGHT);
; genIPush
	push	#0x14
	Sstm8_hd44780$lcd_init$136 ==.
; genCall
	call	_lcd_command
	pop	a
	Sstm8_hd44780$lcd_init$137 ==.
	Sstm8_hd44780$lcd_init$138 ==.
;	./src/stm8_hd44780.c: 60: lcd_command(LCD_DISPLAY_CLEAR);
; genIPush
	push	#0x01
	Sstm8_hd44780$lcd_init$139 ==.
; genCall
	call	_lcd_command
	pop	a
	Sstm8_hd44780$lcd_init$140 ==.
	Sstm8_hd44780$lcd_init$141 ==.
;	./src/stm8_hd44780.c: 61: lcd_command(LCD_RETURN_HOME);
; genIPush
	push	#0x02
	Sstm8_hd44780$lcd_init$142 ==.
; genCall
	call	_lcd_command
	pop	a
	Sstm8_hd44780$lcd_init$143 ==.
; genLabel
00121$:
	Sstm8_hd44780$lcd_init$144 ==.
;	./src/stm8_hd44780.c: 62: }
; genEndFunction
	Sstm8_hd44780$lcd_init$145 ==.
	XG$lcd_init$0$0 ==.
	ret
	Sstm8_hd44780$lcd_init$146 ==.
	Sstm8_hd44780$lcd_gotoxy$147 ==.
;	./src/stm8_hd44780.c: 64: void lcd_gotoxy(uint8_t column, uint8_t line){
; genLabel
;	-----------------------------------------
;	 function lcd_gotoxy
;	-----------------------------------------
;	Register assignment is optimal.
;	Stack space usage: 0 bytes.
_lcd_gotoxy:
	Sstm8_hd44780$lcd_gotoxy$148 ==.
	Sstm8_hd44780$lcd_gotoxy$149 ==.
;	./src/stm8_hd44780.c: 65: uint8_t tmp=0;
; genAssign
	clrw	x
	Sstm8_hd44780$lcd_gotoxy$150 ==.
;	./src/stm8_hd44780.c: 77: if(column > (LCD_COLUMNS-1)){column=LCD_COLUMNS-1;}
; genCmp
; genCmpTop
	ld	a, (0x03, sp)
	cp	a, #0x0f
	jrugt	00125$
	jp	00102$
00125$:
; skipping generated iCode
	Sstm8_hd44780$lcd_gotoxy$151 ==.
; genAssign
	ld	a, #0x0f
	ld	(0x03, sp), a
	Sstm8_hd44780$lcd_gotoxy$152 ==.
; genLabel
00102$:
	Sstm8_hd44780$lcd_gotoxy$153 ==.
;	./src/stm8_hd44780.c: 78: if(line == 0){tmp=0x00;}
; genIfx
	tnz	(0x04, sp)
	jreq	00126$
	jp	00106$
00126$:
	Sstm8_hd44780$lcd_gotoxy$154 ==.
; genAssign
	clrw	x
	Sstm8_hd44780$lcd_gotoxy$155 ==.
; genGoto
	jp	00107$
; genLabel
00106$:
	Sstm8_hd44780$lcd_gotoxy$156 ==.
;	./src/stm8_hd44780.c: 79: else if(line==1){tmp = 0x40;}
; genCmpEQorNE
	ld	a, (0x04, sp)
	dec	a
	jrne	00128$
	jp	00129$
00128$:
	jp	00107$
00129$:
	Sstm8_hd44780$lcd_gotoxy$157 ==.
; skipping generated iCode
	Sstm8_hd44780$lcd_gotoxy$158 ==.
; genAssign
	ld	a, #0x40
	ld	xl, a
	Sstm8_hd44780$lcd_gotoxy$159 ==.
; genLabel
00107$:
	Sstm8_hd44780$lcd_gotoxy$160 ==.
;	./src/stm8_hd44780.c: 80: tmp = tmp + column;
; genPlus
	ld	a, xl
	add	a, (0x03, sp)
; genAssign
	Sstm8_hd44780$lcd_gotoxy$161 ==.
;	./src/stm8_hd44780.c: 87: lcd_command(LCD_SET_DDRAM | tmp);
; genOr
	or	a, #0x80
; genIPush
	push	a
	Sstm8_hd44780$lcd_gotoxy$162 ==.
; genCall
	call	_lcd_command
	pop	a
	Sstm8_hd44780$lcd_gotoxy$163 ==.
; genLabel
00108$:
	Sstm8_hd44780$lcd_gotoxy$164 ==.
;	./src/stm8_hd44780.c: 88: }
; genEndFunction
	Sstm8_hd44780$lcd_gotoxy$165 ==.
	XG$lcd_gotoxy$0$0 ==.
	ret
	Sstm8_hd44780$lcd_gotoxy$166 ==.
	Sstm8_hd44780$lcd_init_hw$167 ==.
;	./src/stm8_hd44780.c: 91: void lcd_init_hw(void){
; genLabel
;	-----------------------------------------
;	 function lcd_init_hw
;	-----------------------------------------
;	Register assignment is optimal.
;	Stack space usage: 0 bytes.
_lcd_init_hw:
	Sstm8_hd44780$lcd_init_hw$168 ==.
	Sstm8_hd44780$lcd_init_hw$169 ==.
;	./src/stm8_hd44780.c: 110: GPIO_Init(LCD_RS_PORT,LCD_RS_PIN,GPIO_MODE_OUT_PP_LOW_SLOW);
; genIPush
	push	#0xc0
	Sstm8_hd44780$lcd_init_hw$170 ==.
; genIPush
	push	#0x80
	Sstm8_hd44780$lcd_init_hw$171 ==.
; genIPush
	push	#0x19
	Sstm8_hd44780$lcd_init_hw$172 ==.
	push	#0x50
	Sstm8_hd44780$lcd_init_hw$173 ==.
; genCall
	call	_GPIO_Init
	addw	sp, #4
	Sstm8_hd44780$lcd_init_hw$174 ==.
	Sstm8_hd44780$lcd_init_hw$175 ==.
;	./src/stm8_hd44780.c: 111: GPIO_Init(LCD_RW_PORT,LCD_RW_PIN,GPIO_MODE_OUT_PP_LOW_SLOW);
; genIPush
	push	#0xc0
	Sstm8_hd44780$lcd_init_hw$176 ==.
; genIPush
	push	#0x40
	Sstm8_hd44780$lcd_init_hw$177 ==.
; genIPush
	push	#0x19
	Sstm8_hd44780$lcd_init_hw$178 ==.
	push	#0x50
	Sstm8_hd44780$lcd_init_hw$179 ==.
; genCall
	call	_GPIO_Init
	addw	sp, #4
	Sstm8_hd44780$lcd_init_hw$180 ==.
	Sstm8_hd44780$lcd_init_hw$181 ==.
;	./src/stm8_hd44780.c: 112: GPIO_Init(LCD_E_PORT,LCD_E_PIN,GPIO_MODE_OUT_PP_HIGH_SLOW);
; genIPush
	push	#0xd0
	Sstm8_hd44780$lcd_init_hw$182 ==.
; genIPush
	push	#0x20
	Sstm8_hd44780$lcd_init_hw$183 ==.
; genIPush
	push	#0x19
	Sstm8_hd44780$lcd_init_hw$184 ==.
	push	#0x50
	Sstm8_hd44780$lcd_init_hw$185 ==.
; genCall
	call	_GPIO_Init
	addw	sp, #4
	Sstm8_hd44780$lcd_init_hw$186 ==.
	Sstm8_hd44780$lcd_init_hw$187 ==.
;	./src/stm8_hd44780.c: 115: lcd_bus_outputs();
; genCall
	jp	_lcd_bus_outputs
; genLabel
00101$:
	Sstm8_hd44780$lcd_init_hw$188 ==.
;	./src/stm8_hd44780.c: 116: }
; genEndFunction
	Sstm8_hd44780$lcd_init_hw$189 ==.
	XG$lcd_init_hw$0$0 ==.
	ret
	Sstm8_hd44780$lcd_init_hw$190 ==.
	Sstm8_hd44780$lcd_bus_outputs$191 ==.
;	./src/stm8_hd44780.c: 119: void lcd_bus_outputs(void){
; genLabel
;	-----------------------------------------
;	 function lcd_bus_outputs
;	-----------------------------------------
;	Register assignment is optimal.
;	Stack space usage: 0 bytes.
_lcd_bus_outputs:
	Sstm8_hd44780$lcd_bus_outputs$192 ==.
	Sstm8_hd44780$lcd_bus_outputs$193 ==.
;	./src/stm8_hd44780.c: 123: GPIO_Init(LCD_D4_PORT,LCD_D4_PIN,GPIO_MODE_OUT_PP_LOW_SLOW);
; genIPush
	push	#0xc0
	Sstm8_hd44780$lcd_bus_outputs$194 ==.
; genIPush
	push	#0x01
	Sstm8_hd44780$lcd_bus_outputs$195 ==.
; genIPush
	push	#0x1e
	Sstm8_hd44780$lcd_bus_outputs$196 ==.
	push	#0x50
	Sstm8_hd44780$lcd_bus_outputs$197 ==.
; genCall
	call	_GPIO_Init
	addw	sp, #4
	Sstm8_hd44780$lcd_bus_outputs$198 ==.
	Sstm8_hd44780$lcd_bus_outputs$199 ==.
;	./src/stm8_hd44780.c: 124: GPIO_Init(LCD_D5_PORT,LCD_D5_PIN,GPIO_MODE_OUT_PP_LOW_SLOW);
; genIPush
	push	#0xc0
	Sstm8_hd44780$lcd_bus_outputs$200 ==.
; genIPush
	push	#0x02
	Sstm8_hd44780$lcd_bus_outputs$201 ==.
; genIPush
	push	#0x1e
	Sstm8_hd44780$lcd_bus_outputs$202 ==.
	push	#0x50
	Sstm8_hd44780$lcd_bus_outputs$203 ==.
; genCall
	call	_GPIO_Init
	addw	sp, #4
	Sstm8_hd44780$lcd_bus_outputs$204 ==.
	Sstm8_hd44780$lcd_bus_outputs$205 ==.
;	./src/stm8_hd44780.c: 125: GPIO_Init(LCD_D6_PORT,LCD_D6_PIN,GPIO_MODE_OUT_PP_LOW_SLOW);
; genIPush
	push	#0xc0
	Sstm8_hd44780$lcd_bus_outputs$206 ==.
; genIPush
	push	#0x04
	Sstm8_hd44780$lcd_bus_outputs$207 ==.
; genIPush
	push	#0x1e
	Sstm8_hd44780$lcd_bus_outputs$208 ==.
	push	#0x50
	Sstm8_hd44780$lcd_bus_outputs$209 ==.
; genCall
	call	_GPIO_Init
	addw	sp, #4
	Sstm8_hd44780$lcd_bus_outputs$210 ==.
	Sstm8_hd44780$lcd_bus_outputs$211 ==.
;	./src/stm8_hd44780.c: 126: GPIO_Init(LCD_D7_PORT,LCD_D7_PIN,GPIO_MODE_OUT_PP_LOW_SLOW);
; genIPush
	push	#0xc0
	Sstm8_hd44780$lcd_bus_outputs$212 ==.
; genIPush
	push	#0x08
	Sstm8_hd44780$lcd_bus_outputs$213 ==.
; genIPush
	push	#0x1e
	Sstm8_hd44780$lcd_bus_outputs$214 ==.
	push	#0x50
	Sstm8_hd44780$lcd_bus_outputs$215 ==.
; genCall
	call	_GPIO_Init
	addw	sp, #4
	Sstm8_hd44780$lcd_bus_outputs$216 ==.
; genLabel
00101$:
	Sstm8_hd44780$lcd_bus_outputs$217 ==.
;	./src/stm8_hd44780.c: 128: }
; genEndFunction
	Sstm8_hd44780$lcd_bus_outputs$218 ==.
	XG$lcd_bus_outputs$0$0 ==.
	ret
	Sstm8_hd44780$lcd_bus_outputs$219 ==.
	Sstm8_hd44780$lcd_bus_inputs$220 ==.
;	./src/stm8_hd44780.c: 131: void lcd_bus_inputs(void){
; genLabel
;	-----------------------------------------
;	 function lcd_bus_inputs
;	-----------------------------------------
;	Register assignment is optimal.
;	Stack space usage: 0 bytes.
_lcd_bus_inputs:
	Sstm8_hd44780$lcd_bus_inputs$221 ==.
	Sstm8_hd44780$lcd_bus_inputs$222 ==.
;	./src/stm8_hd44780.c: 139: GPIO_Init(LCD_D4_PORT,LCD_D4_PIN,GPIO_MODE_IN_FL_NO_IT);
; genIPush
	push	#0x00
	Sstm8_hd44780$lcd_bus_inputs$223 ==.
; genIPush
	push	#0x01
	Sstm8_hd44780$lcd_bus_inputs$224 ==.
; genIPush
	push	#0x1e
	Sstm8_hd44780$lcd_bus_inputs$225 ==.
	push	#0x50
	Sstm8_hd44780$lcd_bus_inputs$226 ==.
; genCall
	call	_GPIO_Init
	addw	sp, #4
	Sstm8_hd44780$lcd_bus_inputs$227 ==.
	Sstm8_hd44780$lcd_bus_inputs$228 ==.
;	./src/stm8_hd44780.c: 140: GPIO_Init(LCD_D5_PORT,LCD_D5_PIN,GPIO_MODE_IN_FL_NO_IT);
; genIPush
	push	#0x00
	Sstm8_hd44780$lcd_bus_inputs$229 ==.
; genIPush
	push	#0x02
	Sstm8_hd44780$lcd_bus_inputs$230 ==.
; genIPush
	push	#0x1e
	Sstm8_hd44780$lcd_bus_inputs$231 ==.
	push	#0x50
	Sstm8_hd44780$lcd_bus_inputs$232 ==.
; genCall
	call	_GPIO_Init
	addw	sp, #4
	Sstm8_hd44780$lcd_bus_inputs$233 ==.
	Sstm8_hd44780$lcd_bus_inputs$234 ==.
;	./src/stm8_hd44780.c: 141: GPIO_Init(LCD_D6_PORT,LCD_D6_PIN,GPIO_MODE_IN_FL_NO_IT);
; genIPush
	push	#0x00
	Sstm8_hd44780$lcd_bus_inputs$235 ==.
; genIPush
	push	#0x04
	Sstm8_hd44780$lcd_bus_inputs$236 ==.
; genIPush
	push	#0x1e
	Sstm8_hd44780$lcd_bus_inputs$237 ==.
	push	#0x50
	Sstm8_hd44780$lcd_bus_inputs$238 ==.
; genCall
	call	_GPIO_Init
	addw	sp, #4
	Sstm8_hd44780$lcd_bus_inputs$239 ==.
	Sstm8_hd44780$lcd_bus_inputs$240 ==.
;	./src/stm8_hd44780.c: 142: GPIO_Init(LCD_D7_PORT,LCD_D7_PIN,GPIO_MODE_IN_FL_NO_IT); 
; genIPush
	push	#0x00
	Sstm8_hd44780$lcd_bus_inputs$241 ==.
; genIPush
	push	#0x08
	Sstm8_hd44780$lcd_bus_inputs$242 ==.
; genIPush
	push	#0x1e
	Sstm8_hd44780$lcd_bus_inputs$243 ==.
	push	#0x50
	Sstm8_hd44780$lcd_bus_inputs$244 ==.
; genCall
	call	_GPIO_Init
	addw	sp, #4
	Sstm8_hd44780$lcd_bus_inputs$245 ==.
; genLabel
00101$:
	Sstm8_hd44780$lcd_bus_inputs$246 ==.
;	./src/stm8_hd44780.c: 144: }
; genEndFunction
	Sstm8_hd44780$lcd_bus_inputs$247 ==.
	XG$lcd_bus_inputs$0$0 ==.
	ret
	Sstm8_hd44780$lcd_bus_inputs$248 ==.
	Sstm8_hd44780$lcd_deinit_hw$249 ==.
;	./src/stm8_hd44780.c: 147: void lcd_deinit_hw(void){
; genLabel
;	-----------------------------------------
;	 function lcd_deinit_hw
;	-----------------------------------------
;	Register assignment is optimal.
;	Stack space usage: 0 bytes.
_lcd_deinit_hw:
	Sstm8_hd44780$lcd_deinit_hw$250 ==.
	Sstm8_hd44780$lcd_deinit_hw$251 ==.
;	./src/stm8_hd44780.c: 148: GPIO_Init(LCD_RS_PORT,LCD_RS_PIN,GPIO_MODE_IN_FL_NO_IT);
; genIPush
	push	#0x00
	Sstm8_hd44780$lcd_deinit_hw$252 ==.
; genIPush
	push	#0x80
	Sstm8_hd44780$lcd_deinit_hw$253 ==.
; genIPush
	push	#0x19
	Sstm8_hd44780$lcd_deinit_hw$254 ==.
	push	#0x50
	Sstm8_hd44780$lcd_deinit_hw$255 ==.
; genCall
	call	_GPIO_Init
	addw	sp, #4
	Sstm8_hd44780$lcd_deinit_hw$256 ==.
	Sstm8_hd44780$lcd_deinit_hw$257 ==.
;	./src/stm8_hd44780.c: 149: GPIO_Init(LCD_RW_PORT,LCD_RW_PIN,GPIO_MODE_IN_FL_NO_IT);
; genIPush
	push	#0x00
	Sstm8_hd44780$lcd_deinit_hw$258 ==.
; genIPush
	push	#0x40
	Sstm8_hd44780$lcd_deinit_hw$259 ==.
; genIPush
	push	#0x19
	Sstm8_hd44780$lcd_deinit_hw$260 ==.
	push	#0x50
	Sstm8_hd44780$lcd_deinit_hw$261 ==.
; genCall
	call	_GPIO_Init
	addw	sp, #4
	Sstm8_hd44780$lcd_deinit_hw$262 ==.
	Sstm8_hd44780$lcd_deinit_hw$263 ==.
;	./src/stm8_hd44780.c: 150: GPIO_Init(LCD_E_PORT,LCD_E_PIN,GPIO_MODE_IN_FL_NO_IT);
; genIPush
	push	#0x00
	Sstm8_hd44780$lcd_deinit_hw$264 ==.
; genIPush
	push	#0x20
	Sstm8_hd44780$lcd_deinit_hw$265 ==.
; genIPush
	push	#0x19
	Sstm8_hd44780$lcd_deinit_hw$266 ==.
	push	#0x50
	Sstm8_hd44780$lcd_deinit_hw$267 ==.
; genCall
	call	_GPIO_Init
	addw	sp, #4
	Sstm8_hd44780$lcd_deinit_hw$268 ==.
	Sstm8_hd44780$lcd_deinit_hw$269 ==.
;	./src/stm8_hd44780.c: 151: GPIO_Init(LCD_D4_PORT,LCD_D4_PIN,GPIO_MODE_IN_FL_NO_IT);
; genIPush
	push	#0x00
	Sstm8_hd44780$lcd_deinit_hw$270 ==.
; genIPush
	push	#0x01
	Sstm8_hd44780$lcd_deinit_hw$271 ==.
; genIPush
	push	#0x1e
	Sstm8_hd44780$lcd_deinit_hw$272 ==.
	push	#0x50
	Sstm8_hd44780$lcd_deinit_hw$273 ==.
; genCall
	call	_GPIO_Init
	addw	sp, #4
	Sstm8_hd44780$lcd_deinit_hw$274 ==.
	Sstm8_hd44780$lcd_deinit_hw$275 ==.
;	./src/stm8_hd44780.c: 152: GPIO_Init(LCD_D5_PORT,LCD_D5_PIN,GPIO_MODE_IN_FL_NO_IT);
; genIPush
	push	#0x00
	Sstm8_hd44780$lcd_deinit_hw$276 ==.
; genIPush
	push	#0x02
	Sstm8_hd44780$lcd_deinit_hw$277 ==.
; genIPush
	push	#0x1e
	Sstm8_hd44780$lcd_deinit_hw$278 ==.
	push	#0x50
	Sstm8_hd44780$lcd_deinit_hw$279 ==.
; genCall
	call	_GPIO_Init
	addw	sp, #4
	Sstm8_hd44780$lcd_deinit_hw$280 ==.
	Sstm8_hd44780$lcd_deinit_hw$281 ==.
;	./src/stm8_hd44780.c: 153: GPIO_Init(LCD_D6_PORT,LCD_D6_PIN,GPIO_MODE_IN_FL_NO_IT);
; genIPush
	push	#0x00
	Sstm8_hd44780$lcd_deinit_hw$282 ==.
; genIPush
	push	#0x04
	Sstm8_hd44780$lcd_deinit_hw$283 ==.
; genIPush
	push	#0x1e
	Sstm8_hd44780$lcd_deinit_hw$284 ==.
	push	#0x50
	Sstm8_hd44780$lcd_deinit_hw$285 ==.
; genCall
	call	_GPIO_Init
	addw	sp, #4
	Sstm8_hd44780$lcd_deinit_hw$286 ==.
	Sstm8_hd44780$lcd_deinit_hw$287 ==.
;	./src/stm8_hd44780.c: 154: GPIO_Init(LCD_D7_PORT,LCD_D7_PIN,GPIO_MODE_IN_FL_NO_IT); 
; genIPush
	push	#0x00
	Sstm8_hd44780$lcd_deinit_hw$288 ==.
; genIPush
	push	#0x08
	Sstm8_hd44780$lcd_deinit_hw$289 ==.
; genIPush
	push	#0x1e
	Sstm8_hd44780$lcd_deinit_hw$290 ==.
	push	#0x50
	Sstm8_hd44780$lcd_deinit_hw$291 ==.
; genCall
	call	_GPIO_Init
	addw	sp, #4
	Sstm8_hd44780$lcd_deinit_hw$292 ==.
; genLabel
00101$:
	Sstm8_hd44780$lcd_deinit_hw$293 ==.
;	./src/stm8_hd44780.c: 155: }
; genEndFunction
	Sstm8_hd44780$lcd_deinit_hw$294 ==.
	XG$lcd_deinit_hw$0$0 ==.
	ret
	Sstm8_hd44780$lcd_deinit_hw$295 ==.
	Sstm8_hd44780$lcd_bus_set$296 ==.
;	./src/stm8_hd44780.c: 158: void lcd_bus_set(uint8_t data){
; genLabel
;	-----------------------------------------
;	 function lcd_bus_set
;	-----------------------------------------
;	Register assignment is optimal.
;	Stack space usage: 0 bytes.
_lcd_bus_set:
	Sstm8_hd44780$lcd_bus_set$297 ==.
	Sstm8_hd44780$lcd_bus_set$298 ==.
;	./src/stm8_hd44780.c: 159: if(data & (1<<0)){LCD_D4_H;}else{LCD_D4_L;}
; genAnd
	ld	a, (0x03, sp)
	srl	a
	jrc	00135$
	jp	00102$
00135$:
; skipping generated iCode
	Sstm8_hd44780$lcd_bus_set$299 ==.
; genIPush
	push	#0x01
	Sstm8_hd44780$lcd_bus_set$300 ==.
; genIPush
	push	#0x1e
	Sstm8_hd44780$lcd_bus_set$301 ==.
	push	#0x50
	Sstm8_hd44780$lcd_bus_set$302 ==.
; genCall
	call	_GPIO_WriteHigh
	addw	sp, #3
	Sstm8_hd44780$lcd_bus_set$303 ==.
	Sstm8_hd44780$lcd_bus_set$304 ==.
; genGoto
	jp	00103$
; genLabel
00102$:
	Sstm8_hd44780$lcd_bus_set$305 ==.
; genIPush
	push	#0x01
	Sstm8_hd44780$lcd_bus_set$306 ==.
; genIPush
	push	#0x1e
	Sstm8_hd44780$lcd_bus_set$307 ==.
	push	#0x50
	Sstm8_hd44780$lcd_bus_set$308 ==.
; genCall
	call	_GPIO_WriteLow
	addw	sp, #3
	Sstm8_hd44780$lcd_bus_set$309 ==.
	Sstm8_hd44780$lcd_bus_set$310 ==.
; genLabel
00103$:
	Sstm8_hd44780$lcd_bus_set$311 ==.
;	./src/stm8_hd44780.c: 160: if(data & (1<<1)){LCD_D5_H;}else{LCD_D5_L;}
; genAnd
	ld	a, (0x03, sp)
	bcp	a, #0x02
	jrne	00136$
	jp	00105$
00136$:
; skipping generated iCode
	Sstm8_hd44780$lcd_bus_set$312 ==.
; genIPush
	push	#0x02
	Sstm8_hd44780$lcd_bus_set$313 ==.
; genIPush
	push	#0x1e
	Sstm8_hd44780$lcd_bus_set$314 ==.
	push	#0x50
	Sstm8_hd44780$lcd_bus_set$315 ==.
; genCall
	call	_GPIO_WriteHigh
	addw	sp, #3
	Sstm8_hd44780$lcd_bus_set$316 ==.
	Sstm8_hd44780$lcd_bus_set$317 ==.
; genGoto
	jp	00106$
; genLabel
00105$:
	Sstm8_hd44780$lcd_bus_set$318 ==.
; genIPush
	push	#0x02
	Sstm8_hd44780$lcd_bus_set$319 ==.
; genIPush
	push	#0x1e
	Sstm8_hd44780$lcd_bus_set$320 ==.
	push	#0x50
	Sstm8_hd44780$lcd_bus_set$321 ==.
; genCall
	call	_GPIO_WriteLow
	addw	sp, #3
	Sstm8_hd44780$lcd_bus_set$322 ==.
	Sstm8_hd44780$lcd_bus_set$323 ==.
; genLabel
00106$:
	Sstm8_hd44780$lcd_bus_set$324 ==.
;	./src/stm8_hd44780.c: 161: if(data & (1<<2)){LCD_D6_H;}else{LCD_D6_L;}
; genAnd
	ld	a, (0x03, sp)
	bcp	a, #0x04
	jrne	00137$
	jp	00108$
00137$:
; skipping generated iCode
	Sstm8_hd44780$lcd_bus_set$325 ==.
; genIPush
	push	#0x04
	Sstm8_hd44780$lcd_bus_set$326 ==.
; genIPush
	push	#0x1e
	Sstm8_hd44780$lcd_bus_set$327 ==.
	push	#0x50
	Sstm8_hd44780$lcd_bus_set$328 ==.
; genCall
	call	_GPIO_WriteHigh
	addw	sp, #3
	Sstm8_hd44780$lcd_bus_set$329 ==.
	Sstm8_hd44780$lcd_bus_set$330 ==.
; genGoto
	jp	00109$
; genLabel
00108$:
	Sstm8_hd44780$lcd_bus_set$331 ==.
; genIPush
	push	#0x04
	Sstm8_hd44780$lcd_bus_set$332 ==.
; genIPush
	push	#0x1e
	Sstm8_hd44780$lcd_bus_set$333 ==.
	push	#0x50
	Sstm8_hd44780$lcd_bus_set$334 ==.
; genCall
	call	_GPIO_WriteLow
	addw	sp, #3
	Sstm8_hd44780$lcd_bus_set$335 ==.
	Sstm8_hd44780$lcd_bus_set$336 ==.
; genLabel
00109$:
	Sstm8_hd44780$lcd_bus_set$337 ==.
;	./src/stm8_hd44780.c: 162: if(data & (1<<3)){LCD_D7_H;}else{LCD_D7_L;}
; genAnd
	ld	a, (0x03, sp)
	bcp	a, #0x08
	jrne	00138$
	jp	00111$
00138$:
; skipping generated iCode
	Sstm8_hd44780$lcd_bus_set$338 ==.
; genIPush
	push	#0x08
	Sstm8_hd44780$lcd_bus_set$339 ==.
; genIPush
	push	#0x1e
	Sstm8_hd44780$lcd_bus_set$340 ==.
	push	#0x50
	Sstm8_hd44780$lcd_bus_set$341 ==.
; genCall
	call	_GPIO_WriteHigh
	addw	sp, #3
	Sstm8_hd44780$lcd_bus_set$342 ==.
	Sstm8_hd44780$lcd_bus_set$343 ==.
; genGoto
	jp	00113$
; genLabel
00111$:
	Sstm8_hd44780$lcd_bus_set$344 ==.
; genIPush
	push	#0x08
	Sstm8_hd44780$lcd_bus_set$345 ==.
; genIPush
	push	#0x1e
	Sstm8_hd44780$lcd_bus_set$346 ==.
	push	#0x50
	Sstm8_hd44780$lcd_bus_set$347 ==.
; genCall
	call	_GPIO_WriteLow
	addw	sp, #3
	Sstm8_hd44780$lcd_bus_set$348 ==.
	Sstm8_hd44780$lcd_bus_set$349 ==.
; genLabel
00113$:
	Sstm8_hd44780$lcd_bus_set$350 ==.
;	./src/stm8_hd44780.c: 163: }
; genEndFunction
	Sstm8_hd44780$lcd_bus_set$351 ==.
	XG$lcd_bus_set$0$0 ==.
	ret
	Sstm8_hd44780$lcd_bus_set$352 ==.
	Sstm8_hd44780$lcd_bus_read$353 ==.
;	./src/stm8_hd44780.c: 166: uint8_t lcd_bus_read(void){
; genLabel
;	-----------------------------------------
;	 function lcd_bus_read
;	-----------------------------------------
;	Register assignment is optimal.
;	Stack space usage: 1 bytes.
_lcd_bus_read:
	Sstm8_hd44780$lcd_bus_read$354 ==.
	push	a
	Sstm8_hd44780$lcd_bus_read$355 ==.
	Sstm8_hd44780$lcd_bus_read$356 ==.
;	./src/stm8_hd44780.c: 167: uint8_t tmp=0;
; genAssign
	clr	(0x01, sp)
	Sstm8_hd44780$lcd_bus_read$357 ==.
;	./src/stm8_hd44780.c: 168: if(GPIO_ReadInputPin(LCD_D4_PORT,LCD_D4_PIN)){tmp |= 1<<0;}
; genIPush
	push	#0x01
	Sstm8_hd44780$lcd_bus_read$358 ==.
; genIPush
	push	#0x1e
	Sstm8_hd44780$lcd_bus_read$359 ==.
	push	#0x50
	Sstm8_hd44780$lcd_bus_read$360 ==.
; genCall
	call	_GPIO_ReadInputPin
	addw	sp, #3
	Sstm8_hd44780$lcd_bus_read$361 ==.
; genIfx
	tnz	a
	jrne	00131$
	jp	00102$
00131$:
	Sstm8_hd44780$lcd_bus_read$362 ==.
; genOr
	srl	(0x01, sp)
	scf
	rlc	(0x01, sp)
	Sstm8_hd44780$lcd_bus_read$363 ==.
; genLabel
00102$:
	Sstm8_hd44780$lcd_bus_read$364 ==.
;	./src/stm8_hd44780.c: 169: if(GPIO_ReadInputPin(LCD_D5_PORT,LCD_D5_PIN)){tmp |= 1<<1;}
; genIPush
	push	#0x02
	Sstm8_hd44780$lcd_bus_read$365 ==.
; genIPush
	push	#0x1e
	Sstm8_hd44780$lcd_bus_read$366 ==.
	push	#0x50
	Sstm8_hd44780$lcd_bus_read$367 ==.
; genCall
	call	_GPIO_ReadInputPin
	addw	sp, #3
	Sstm8_hd44780$lcd_bus_read$368 ==.
; genIfx
	tnz	a
	jrne	00132$
	jp	00104$
00132$:
	Sstm8_hd44780$lcd_bus_read$369 ==.
; genOr
	ld	a, (0x01, sp)
	or	a, #0x02
	ld	(0x01, sp), a
	Sstm8_hd44780$lcd_bus_read$370 ==.
; genLabel
00104$:
	Sstm8_hd44780$lcd_bus_read$371 ==.
;	./src/stm8_hd44780.c: 170: if(GPIO_ReadInputPin(LCD_D6_PORT,LCD_D6_PIN)){tmp |= 1<<2;}
; genIPush
	push	#0x04
	Sstm8_hd44780$lcd_bus_read$372 ==.
; genIPush
	push	#0x1e
	Sstm8_hd44780$lcd_bus_read$373 ==.
	push	#0x50
	Sstm8_hd44780$lcd_bus_read$374 ==.
; genCall
	call	_GPIO_ReadInputPin
	addw	sp, #3
	Sstm8_hd44780$lcd_bus_read$375 ==.
; genIfx
	tnz	a
	jrne	00133$
	jp	00106$
00133$:
	Sstm8_hd44780$lcd_bus_read$376 ==.
; genOr
	ld	a, (0x01, sp)
	or	a, #0x04
	ld	(0x01, sp), a
	Sstm8_hd44780$lcd_bus_read$377 ==.
; genLabel
00106$:
	Sstm8_hd44780$lcd_bus_read$378 ==.
;	./src/stm8_hd44780.c: 171: if(GPIO_ReadInputPin(LCD_D7_PORT,LCD_D7_PIN)){tmp |= 1<<3;}
; genIPush
	push	#0x08
	Sstm8_hd44780$lcd_bus_read$379 ==.
; genIPush
	push	#0x1e
	Sstm8_hd44780$lcd_bus_read$380 ==.
	push	#0x50
	Sstm8_hd44780$lcd_bus_read$381 ==.
; genCall
	call	_GPIO_ReadInputPin
	addw	sp, #3
	Sstm8_hd44780$lcd_bus_read$382 ==.
; genIfx
	tnz	a
	jrne	00134$
	jp	00108$
00134$:
	Sstm8_hd44780$lcd_bus_read$383 ==.
; genOr
	ld	a, (0x01, sp)
	or	a, #0x08
	ld	(0x01, sp), a
	Sstm8_hd44780$lcd_bus_read$384 ==.
; genLabel
00108$:
	Sstm8_hd44780$lcd_bus_read$385 ==.
;	./src/stm8_hd44780.c: 172: return tmp;
; genReturn
	ld	a, (0x01, sp)
; genLabel
00109$:
	Sstm8_hd44780$lcd_bus_read$386 ==.
;	./src/stm8_hd44780.c: 173: }
; genEndFunction
	addw	sp, #1
	Sstm8_hd44780$lcd_bus_read$387 ==.
	Sstm8_hd44780$lcd_bus_read$388 ==.
	XG$lcd_bus_read$0$0 ==.
	ret
	Sstm8_hd44780$lcd_bus_read$389 ==.
	Sstm8_hd44780$lcd_e_tick$390 ==.
;	./src/stm8_hd44780.c: 176: void lcd_e_tick(void){
; genLabel
;	-----------------------------------------
;	 function lcd_e_tick
;	-----------------------------------------
;	Register assignment is optimal.
;	Stack space usage: 0 bytes.
_lcd_e_tick:
	Sstm8_hd44780$lcd_e_tick$391 ==.
	Sstm8_hd44780$lcd_e_tick$392 ==.
;	./src/stm8_hd44780.c: 177: LCD_E_H;
; genIPush
	push	#0x20
	Sstm8_hd44780$lcd_e_tick$393 ==.
; genIPush
	push	#0x19
	Sstm8_hd44780$lcd_e_tick$394 ==.
	push	#0x50
	Sstm8_hd44780$lcd_e_tick$395 ==.
; genCall
	call	_GPIO_WriteHigh
	addw	sp, #3
	Sstm8_hd44780$lcd_e_tick$396 ==.
	Sstm8_hd44780$lcd_e_tick$397 ==.
;	inc/delay.h: 42: _delay_cycl( (unsigned short)( T_COUNT(__us) ));
; genAssign
	ldw	x, #0x0003
	Sstm8_hd44780$lcd_e_tick$398 ==.
;	inc/delay.h: 25: __asm__("nop\n nop\n"); 
;	genInline
	nop
	nop
	Sstm8_hd44780$lcd_e_tick$399 ==.
	Sstm8_hd44780$lcd_e_tick$400 ==.
;	inc/delay.h: 26: do { 		// ASM: ldw X, #tick; lab$: decw X; tnzw X; jrne lab$
; genAssign
; genLabel
00101$:
	Sstm8_hd44780$lcd_e_tick$401 ==.
;	inc/delay.h: 27: __ticks--;//      2c;                 1c;     2c    ; 1/2c   
; genMinus
	decw	x
	Sstm8_hd44780$lcd_e_tick$402 ==.
;	inc/delay.h: 28: } while ( __ticks );
; genIfx
	tnzw	x
	jreq	00135$
	jp	00101$
00135$:
;	inc/delay.h: 29: __asm__("nop\n");
;	genInline
	nop
	Sstm8_hd44780$lcd_e_tick$403 ==.
	Sstm8_hd44780$lcd_e_tick$404 ==.
;	./src/stm8_hd44780.c: 179: LCD_E_L;
; genIPush
	push	#0x20
	Sstm8_hd44780$lcd_e_tick$405 ==.
; genIPush
	push	#0x19
	Sstm8_hd44780$lcd_e_tick$406 ==.
	push	#0x50
	Sstm8_hd44780$lcd_e_tick$407 ==.
; genCall
	call	_GPIO_WriteLow
	addw	sp, #3
	Sstm8_hd44780$lcd_e_tick$408 ==.
	Sstm8_hd44780$lcd_e_tick$409 ==.
;	inc/delay.h: 42: _delay_cycl( (unsigned short)( T_COUNT(__us) ));
; genAssign
	ldw	x, #0x0003
	Sstm8_hd44780$lcd_e_tick$410 ==.
;	inc/delay.h: 25: __asm__("nop\n nop\n"); 
;	genInline
	nop
	nop
	Sstm8_hd44780$lcd_e_tick$411 ==.
	Sstm8_hd44780$lcd_e_tick$412 ==.
;	inc/delay.h: 26: do { 		// ASM: ldw X, #tick; lab$: decw X; tnzw X; jrne lab$
; genAssign
; genLabel
00106$:
	Sstm8_hd44780$lcd_e_tick$413 ==.
;	inc/delay.h: 27: __ticks--;//      2c;                 1c;     2c    ; 1/2c   
; genMinus
	decw	x
	Sstm8_hd44780$lcd_e_tick$414 ==.
;	inc/delay.h: 28: } while ( __ticks );
; genIfx
	tnzw	x
	jreq	00136$
	jp	00106$
00136$:
;	inc/delay.h: 29: __asm__("nop\n");
;	genInline
	nop
	Sstm8_hd44780$lcd_e_tick$415 ==.
	Sstm8_hd44780$lcd_e_tick$416 ==.
;	./src/stm8_hd44780.c: 180: _delay_us(LCD_E_DELAY);
; genLabel
00111$:
	Sstm8_hd44780$lcd_e_tick$417 ==.
;	./src/stm8_hd44780.c: 181: }
; genEndFunction
	Sstm8_hd44780$lcd_e_tick$418 ==.
	XG$lcd_e_tick$0$0 ==.
	ret
	Sstm8_hd44780$lcd_e_tick$419 ==.
	Sstm8_hd44780$lcd_command$420 ==.
;	./src/stm8_hd44780.c: 184: void lcd_command(uint8_t command){
; genLabel
;	-----------------------------------------
;	 function lcd_command
;	-----------------------------------------
;	Register assignment is optimal.
;	Stack space usage: 0 bytes.
_lcd_command:
	Sstm8_hd44780$lcd_command$421 ==.
	Sstm8_hd44780$lcd_command$422 ==.
;	./src/stm8_hd44780.c: 185: LCD_RS_L;
; genIPush
	push	#0x80
	Sstm8_hd44780$lcd_command$423 ==.
; genIPush
	push	#0x19
	Sstm8_hd44780$lcd_command$424 ==.
	push	#0x50
	Sstm8_hd44780$lcd_command$425 ==.
; genCall
	call	_GPIO_WriteLow
	addw	sp, #3
	Sstm8_hd44780$lcd_command$426 ==.
	Sstm8_hd44780$lcd_command$427 ==.
;	inc/delay.h: 42: _delay_cycl( (unsigned short)( T_COUNT(__us) ));
; genAssign
	ldw	x, #0x0003
	Sstm8_hd44780$lcd_command$428 ==.
;	inc/delay.h: 25: __asm__("nop\n nop\n"); 
;	genInline
	nop
	nop
	Sstm8_hd44780$lcd_command$429 ==.
	Sstm8_hd44780$lcd_command$430 ==.
;	inc/delay.h: 26: do { 		// ASM: ldw X, #tick; lab$: decw X; tnzw X; jrne lab$
; genAssign
; genLabel
00101$:
	Sstm8_hd44780$lcd_command$431 ==.
;	inc/delay.h: 27: __ticks--;//      2c;                 1c;     2c    ; 1/2c   
; genMinus
	decw	x
	Sstm8_hd44780$lcd_command$432 ==.
;	inc/delay.h: 28: } while ( __ticks );
; genIfx
	tnzw	x
	jreq	00119$
	jp	00101$
00119$:
;	inc/delay.h: 29: __asm__("nop\n");
;	genInline
	nop
	Sstm8_hd44780$lcd_command$433 ==.
	Sstm8_hd44780$lcd_command$434 ==.
;	./src/stm8_hd44780.c: 187: lcd_bus_set((command >> 4) & 0b1111);
; genRightShiftLiteral
	ld	a, (0x03, sp)
	swap	a
	and	a, #0x0f
; genAnd
	and	a, #0x0f
; genIPush
	push	a
	Sstm8_hd44780$lcd_command$435 ==.
; genCall
	call	_lcd_bus_set
	pop	a
	Sstm8_hd44780$lcd_command$436 ==.
	Sstm8_hd44780$lcd_command$437 ==.
;	./src/stm8_hd44780.c: 188: lcd_e_tick();
; genCall
	call	_lcd_e_tick
	Sstm8_hd44780$lcd_command$438 ==.
;	./src/stm8_hd44780.c: 189: lcd_bus_set(command & 0b1111);
; genAssign
	ld	a, (0x03, sp)
; genAnd
	and	a, #0x0f
; genIPush
	push	a
	Sstm8_hd44780$lcd_command$439 ==.
; genCall
	call	_lcd_bus_set
	pop	a
	Sstm8_hd44780$lcd_command$440 ==.
	Sstm8_hd44780$lcd_command$441 ==.
;	./src/stm8_hd44780.c: 190: lcd_e_tick();
; genCall
	call	_lcd_e_tick
	Sstm8_hd44780$lcd_command$442 ==.
;	./src/stm8_hd44780.c: 191: lcd_busy_wait();
; genCall
	jp	_lcd_busy_wait
; genLabel
00106$:
	Sstm8_hd44780$lcd_command$443 ==.
;	./src/stm8_hd44780.c: 192: }
; genEndFunction
	Sstm8_hd44780$lcd_command$444 ==.
	XG$lcd_command$0$0 ==.
	ret
	Sstm8_hd44780$lcd_command$445 ==.
	Sstm8_hd44780$lcd_data$446 ==.
;	./src/stm8_hd44780.c: 195: void lcd_data(uint8_t data){
; genLabel
;	-----------------------------------------
;	 function lcd_data
;	-----------------------------------------
;	Register assignment is optimal.
;	Stack space usage: 0 bytes.
_lcd_data:
	Sstm8_hd44780$lcd_data$447 ==.
	Sstm8_hd44780$lcd_data$448 ==.
;	./src/stm8_hd44780.c: 196: LCD_RS_H;
; genIPush
	push	#0x80
	Sstm8_hd44780$lcd_data$449 ==.
; genIPush
	push	#0x19
	Sstm8_hd44780$lcd_data$450 ==.
	push	#0x50
	Sstm8_hd44780$lcd_data$451 ==.
; genCall
	call	_GPIO_WriteHigh
	addw	sp, #3
	Sstm8_hd44780$lcd_data$452 ==.
	Sstm8_hd44780$lcd_data$453 ==.
;	inc/delay.h: 42: _delay_cycl( (unsigned short)( T_COUNT(__us) ));
; genAssign
	ldw	x, #0x0003
	Sstm8_hd44780$lcd_data$454 ==.
;	inc/delay.h: 25: __asm__("nop\n nop\n"); 
;	genInline
	nop
	nop
	Sstm8_hd44780$lcd_data$455 ==.
	Sstm8_hd44780$lcd_data$456 ==.
;	inc/delay.h: 26: do { 		// ASM: ldw X, #tick; lab$: decw X; tnzw X; jrne lab$
; genAssign
; genLabel
00101$:
	Sstm8_hd44780$lcd_data$457 ==.
;	inc/delay.h: 27: __ticks--;//      2c;                 1c;     2c    ; 1/2c   
; genMinus
	decw	x
	Sstm8_hd44780$lcd_data$458 ==.
;	inc/delay.h: 28: } while ( __ticks );
; genIfx
	tnzw	x
	jreq	00119$
	jp	00101$
00119$:
;	inc/delay.h: 29: __asm__("nop\n");
;	genInline
	nop
	Sstm8_hd44780$lcd_data$459 ==.
	Sstm8_hd44780$lcd_data$460 ==.
;	./src/stm8_hd44780.c: 198: lcd_bus_set((data >> 4) & 0b1111);
; genRightShiftLiteral
	ld	a, (0x03, sp)
	swap	a
	and	a, #0x0f
; genAnd
	and	a, #0x0f
; genIPush
	push	a
	Sstm8_hd44780$lcd_data$461 ==.
; genCall
	call	_lcd_bus_set
	pop	a
	Sstm8_hd44780$lcd_data$462 ==.
	Sstm8_hd44780$lcd_data$463 ==.
;	./src/stm8_hd44780.c: 199: lcd_e_tick();
; genCall
	call	_lcd_e_tick
	Sstm8_hd44780$lcd_data$464 ==.
;	./src/stm8_hd44780.c: 200: lcd_bus_set(data & 0b1111);
; genAssign
	ld	a, (0x03, sp)
; genAnd
	and	a, #0x0f
; genIPush
	push	a
	Sstm8_hd44780$lcd_data$465 ==.
; genCall
	call	_lcd_bus_set
	pop	a
	Sstm8_hd44780$lcd_data$466 ==.
	Sstm8_hd44780$lcd_data$467 ==.
;	./src/stm8_hd44780.c: 201: lcd_e_tick();
; genCall
	call	_lcd_e_tick
	Sstm8_hd44780$lcd_data$468 ==.
;	./src/stm8_hd44780.c: 202: lcd_busy_wait();
; genCall
	jp	_lcd_busy_wait
; genLabel
00106$:
	Sstm8_hd44780$lcd_data$469 ==.
;	./src/stm8_hd44780.c: 203: }
; genEndFunction
	Sstm8_hd44780$lcd_data$470 ==.
	XG$lcd_data$0$0 ==.
	ret
	Sstm8_hd44780$lcd_data$471 ==.
	Sstm8_hd44780$lcd_read$472 ==.
;	./src/stm8_hd44780.c: 206: uint8_t lcd_read(void){
; genLabel
;	-----------------------------------------
;	 function lcd_read
;	-----------------------------------------
;	Register assignment might be sub-optimal.
;	Stack space usage: 1 bytes.
_lcd_read:
	Sstm8_hd44780$lcd_read$473 ==.
	push	a
	Sstm8_hd44780$lcd_read$474 ==.
	Sstm8_hd44780$lcd_read$475 ==.
;	./src/stm8_hd44780.c: 208: LCD_RS_L;
; genIPush
	push	#0x80
	Sstm8_hd44780$lcd_read$476 ==.
; genIPush
	push	#0x19
	Sstm8_hd44780$lcd_read$477 ==.
	push	#0x50
	Sstm8_hd44780$lcd_read$478 ==.
; genCall
	call	_GPIO_WriteLow
	addw	sp, #3
	Sstm8_hd44780$lcd_read$479 ==.
	Sstm8_hd44780$lcd_read$480 ==.
;	./src/stm8_hd44780.c: 209: lcd_bus_inputs();
; genCall
	call	_lcd_bus_inputs
	Sstm8_hd44780$lcd_read$481 ==.
;	./src/stm8_hd44780.c: 210: LCD_RW_H;
; genIPush
	push	#0x40
	Sstm8_hd44780$lcd_read$482 ==.
; genIPush
	push	#0x19
	Sstm8_hd44780$lcd_read$483 ==.
	push	#0x50
	Sstm8_hd44780$lcd_read$484 ==.
; genCall
	call	_GPIO_WriteHigh
	addw	sp, #3
	Sstm8_hd44780$lcd_read$485 ==.
	Sstm8_hd44780$lcd_read$486 ==.
;	inc/delay.h: 42: _delay_cycl( (unsigned short)( T_COUNT(__us) ));
; genAssign
	ldw	x, #0x0003
	Sstm8_hd44780$lcd_read$487 ==.
;	inc/delay.h: 25: __asm__("nop\n nop\n"); 
;	genInline
	nop
	nop
	Sstm8_hd44780$lcd_read$488 ==.
	Sstm8_hd44780$lcd_read$489 ==.
;	inc/delay.h: 26: do { 		// ASM: ldw X, #tick; lab$: decw X; tnzw X; jrne lab$
; genAssign
; genLabel
00101$:
	Sstm8_hd44780$lcd_read$490 ==.
;	inc/delay.h: 27: __ticks--;//      2c;                 1c;     2c    ; 1/2c   
; genMinus
	decw	x
	Sstm8_hd44780$lcd_read$491 ==.
;	inc/delay.h: 28: } while ( __ticks );
; genIfx
	tnzw	x
	jreq	00183$
	jp	00101$
00183$:
;	inc/delay.h: 29: __asm__("nop\n");
;	genInline
	nop
	Sstm8_hd44780$lcd_read$492 ==.
	Sstm8_hd44780$lcd_read$493 ==.
;	./src/stm8_hd44780.c: 212: LCD_E_H;
; genIPush
	push	#0x20
	Sstm8_hd44780$lcd_read$494 ==.
; genIPush
	push	#0x19
	Sstm8_hd44780$lcd_read$495 ==.
	push	#0x50
	Sstm8_hd44780$lcd_read$496 ==.
; genCall
	call	_GPIO_WriteHigh
	addw	sp, #3
	Sstm8_hd44780$lcd_read$497 ==.
	Sstm8_hd44780$lcd_read$498 ==.
;	inc/delay.h: 42: _delay_cycl( (unsigned short)( T_COUNT(__us) ));
; genAssign
	ldw	x, #0x0003
	Sstm8_hd44780$lcd_read$499 ==.
;	inc/delay.h: 25: __asm__("nop\n nop\n"); 
;	genInline
	nop
	nop
	Sstm8_hd44780$lcd_read$500 ==.
	Sstm8_hd44780$lcd_read$501 ==.
;	inc/delay.h: 26: do { 		// ASM: ldw X, #tick; lab$: decw X; tnzw X; jrne lab$
; genAssign
; genLabel
00106$:
	Sstm8_hd44780$lcd_read$502 ==.
;	inc/delay.h: 27: __ticks--;//      2c;                 1c;     2c    ; 1/2c   
; genMinus
	decw	x
	Sstm8_hd44780$lcd_read$503 ==.
;	inc/delay.h: 28: } while ( __ticks );
; genIfx
	tnzw	x
	jreq	00184$
	jp	00106$
00184$:
;	inc/delay.h: 29: __asm__("nop\n");
;	genInline
	nop
	Sstm8_hd44780$lcd_read$504 ==.
	Sstm8_hd44780$lcd_read$505 ==.
;	./src/stm8_hd44780.c: 214: tmp = lcd_bus_read()<<4;
; genCall
	call	_lcd_bus_read
; genCast
; genAssign
; genLeftShiftLiteral
	swap	a
	and	a, #0xf0
	ld	(0x01, sp), a
	Sstm8_hd44780$lcd_read$506 ==.
;	./src/stm8_hd44780.c: 215: LCD_E_L;
; genIPush
	push	#0x20
	Sstm8_hd44780$lcd_read$507 ==.
; genIPush
	push	#0x19
	Sstm8_hd44780$lcd_read$508 ==.
	push	#0x50
	Sstm8_hd44780$lcd_read$509 ==.
; genCall
	call	_GPIO_WriteLow
	addw	sp, #3
	Sstm8_hd44780$lcd_read$510 ==.
	Sstm8_hd44780$lcd_read$511 ==.
;	inc/delay.h: 42: _delay_cycl( (unsigned short)( T_COUNT(__us) ));
; genAssign
	ldw	x, #0x0003
	Sstm8_hd44780$lcd_read$512 ==.
;	inc/delay.h: 25: __asm__("nop\n nop\n"); 
;	genInline
	nop
	nop
	Sstm8_hd44780$lcd_read$513 ==.
	Sstm8_hd44780$lcd_read$514 ==.
;	inc/delay.h: 26: do { 		// ASM: ldw X, #tick; lab$: decw X; tnzw X; jrne lab$
; genAssign
; genLabel
00111$:
	Sstm8_hd44780$lcd_read$515 ==.
;	inc/delay.h: 27: __ticks--;//      2c;                 1c;     2c    ; 1/2c   
; genMinus
	decw	x
	Sstm8_hd44780$lcd_read$516 ==.
;	inc/delay.h: 28: } while ( __ticks );
; genIfx
	tnzw	x
	jreq	00185$
	jp	00111$
00185$:
;	inc/delay.h: 29: __asm__("nop\n");
;	genInline
	nop
	Sstm8_hd44780$lcd_read$517 ==.
	Sstm8_hd44780$lcd_read$518 ==.
;	./src/stm8_hd44780.c: 217: LCD_E_H;
; genIPush
	push	#0x20
	Sstm8_hd44780$lcd_read$519 ==.
; genIPush
	push	#0x19
	Sstm8_hd44780$lcd_read$520 ==.
	push	#0x50
	Sstm8_hd44780$lcd_read$521 ==.
; genCall
	call	_GPIO_WriteHigh
	addw	sp, #3
	Sstm8_hd44780$lcd_read$522 ==.
	Sstm8_hd44780$lcd_read$523 ==.
;	inc/delay.h: 42: _delay_cycl( (unsigned short)( T_COUNT(__us) ));
; genAssign
	ldw	x, #0x0003
	Sstm8_hd44780$lcd_read$524 ==.
;	inc/delay.h: 25: __asm__("nop\n nop\n"); 
;	genInline
	nop
	nop
	Sstm8_hd44780$lcd_read$525 ==.
	Sstm8_hd44780$lcd_read$526 ==.
;	inc/delay.h: 26: do { 		// ASM: ldw X, #tick; lab$: decw X; tnzw X; jrne lab$
; genAssign
; genLabel
00116$:
	Sstm8_hd44780$lcd_read$527 ==.
;	inc/delay.h: 27: __ticks--;//      2c;                 1c;     2c    ; 1/2c   
; genMinus
	decw	x
	Sstm8_hd44780$lcd_read$528 ==.
;	inc/delay.h: 28: } while ( __ticks );
; genIfx
	tnzw	x
	jreq	00186$
	jp	00116$
00186$:
;	inc/delay.h: 29: __asm__("nop\n");
;	genInline
	nop
	Sstm8_hd44780$lcd_read$529 ==.
	Sstm8_hd44780$lcd_read$530 ==.
;	./src/stm8_hd44780.c: 219: tmp |= lcd_bus_read();
; genCall
	call	_lcd_bus_read
; genOr
	or	a, (0x01, sp)
; genAssign
	ld	(0x01, sp), a
	Sstm8_hd44780$lcd_read$531 ==.
;	./src/stm8_hd44780.c: 220: LCD_E_L;
; genIPush
	push	#0x20
	Sstm8_hd44780$lcd_read$532 ==.
; genIPush
	push	#0x19
	Sstm8_hd44780$lcd_read$533 ==.
	push	#0x50
	Sstm8_hd44780$lcd_read$534 ==.
; genCall
	call	_GPIO_WriteLow
	addw	sp, #3
	Sstm8_hd44780$lcd_read$535 ==.
	Sstm8_hd44780$lcd_read$536 ==.
;	inc/delay.h: 42: _delay_cycl( (unsigned short)( T_COUNT(__us) ));
; genAssign
	ldw	x, #0x0003
	Sstm8_hd44780$lcd_read$537 ==.
;	inc/delay.h: 25: __asm__("nop\n nop\n"); 
;	genInline
	nop
	nop
	Sstm8_hd44780$lcd_read$538 ==.
	Sstm8_hd44780$lcd_read$539 ==.
;	inc/delay.h: 26: do { 		// ASM: ldw X, #tick; lab$: decw X; tnzw X; jrne lab$
; genAssign
; genLabel
00121$:
	Sstm8_hd44780$lcd_read$540 ==.
;	inc/delay.h: 27: __ticks--;//      2c;                 1c;     2c    ; 1/2c   
; genMinus
	decw	x
	Sstm8_hd44780$lcd_read$541 ==.
;	inc/delay.h: 28: } while ( __ticks );
; genIfx
	tnzw	x
	jreq	00187$
	jp	00121$
00187$:
;	inc/delay.h: 29: __asm__("nop\n");
;	genInline
	nop
	Sstm8_hd44780$lcd_read$542 ==.
	Sstm8_hd44780$lcd_read$543 ==.
;	./src/stm8_hd44780.c: 222: LCD_RW_L;
; genIPush
	push	#0x40
	Sstm8_hd44780$lcd_read$544 ==.
; genIPush
	push	#0x19
	Sstm8_hd44780$lcd_read$545 ==.
	push	#0x50
	Sstm8_hd44780$lcd_read$546 ==.
; genCall
	call	_GPIO_WriteLow
	addw	sp, #3
	Sstm8_hd44780$lcd_read$547 ==.
	Sstm8_hd44780$lcd_read$548 ==.
;	./src/stm8_hd44780.c: 223: lcd_bus_outputs();
; genCall
	call	_lcd_bus_outputs
	Sstm8_hd44780$lcd_read$549 ==.
;	./src/stm8_hd44780.c: 224: return tmp;
; genReturn
	ld	a, (0x01, sp)
; genLabel
00126$:
	Sstm8_hd44780$lcd_read$550 ==.
;	./src/stm8_hd44780.c: 225: }
; genEndFunction
	addw	sp, #1
	Sstm8_hd44780$lcd_read$551 ==.
	Sstm8_hd44780$lcd_read$552 ==.
	XG$lcd_read$0$0 ==.
	ret
	Sstm8_hd44780$lcd_read$553 ==.
	Sstm8_hd44780$lcd_bus_sleep$554 ==.
;	./src/stm8_hd44780.c: 229: void lcd_bus_sleep(void){
; genLabel
;	-----------------------------------------
;	 function lcd_bus_sleep
;	-----------------------------------------
;	Register assignment is optimal.
;	Stack space usage: 0 bytes.
_lcd_bus_sleep:
	Sstm8_hd44780$lcd_bus_sleep$555 ==.
	Sstm8_hd44780$lcd_bus_sleep$556 ==.
;	./src/stm8_hd44780.c: 230: LCD_RS_H;
; genIPush
	push	#0x80
	Sstm8_hd44780$lcd_bus_sleep$557 ==.
; genIPush
	push	#0x19
	Sstm8_hd44780$lcd_bus_sleep$558 ==.
	push	#0x50
	Sstm8_hd44780$lcd_bus_sleep$559 ==.
; genCall
	call	_GPIO_WriteHigh
	addw	sp, #3
	Sstm8_hd44780$lcd_bus_sleep$560 ==.
	Sstm8_hd44780$lcd_bus_sleep$561 ==.
;	./src/stm8_hd44780.c: 231: LCD_RW_H;
; genIPush
	push	#0x40
	Sstm8_hd44780$lcd_bus_sleep$562 ==.
; genIPush
	push	#0x19
	Sstm8_hd44780$lcd_bus_sleep$563 ==.
	push	#0x50
	Sstm8_hd44780$lcd_bus_sleep$564 ==.
; genCall
	call	_GPIO_WriteHigh
	addw	sp, #3
	Sstm8_hd44780$lcd_bus_sleep$565 ==.
	Sstm8_hd44780$lcd_bus_sleep$566 ==.
;	./src/stm8_hd44780.c: 232: lcd_bus_inputs();
; genCall
	jp	_lcd_bus_inputs
; genLabel
00101$:
	Sstm8_hd44780$lcd_bus_sleep$567 ==.
;	./src/stm8_hd44780.c: 233: }
; genEndFunction
	Sstm8_hd44780$lcd_bus_sleep$568 ==.
	XG$lcd_bus_sleep$0$0 ==.
	ret
	Sstm8_hd44780$lcd_bus_sleep$569 ==.
	Sstm8_hd44780$lcd_bus_wakeup$570 ==.
;	./src/stm8_hd44780.c: 236: void lcd_bus_wakeup(void){
; genLabel
;	-----------------------------------------
;	 function lcd_bus_wakeup
;	-----------------------------------------
;	Register assignment is optimal.
;	Stack space usage: 0 bytes.
_lcd_bus_wakeup:
	Sstm8_hd44780$lcd_bus_wakeup$571 ==.
	Sstm8_hd44780$lcd_bus_wakeup$572 ==.
;	./src/stm8_hd44780.c: 237: LCD_RW_L;
; genIPush
	push	#0x40
	Sstm8_hd44780$lcd_bus_wakeup$573 ==.
; genIPush
	push	#0x19
	Sstm8_hd44780$lcd_bus_wakeup$574 ==.
	push	#0x50
	Sstm8_hd44780$lcd_bus_wakeup$575 ==.
; genCall
	call	_GPIO_WriteLow
	addw	sp, #3
	Sstm8_hd44780$lcd_bus_wakeup$576 ==.
	Sstm8_hd44780$lcd_bus_wakeup$577 ==.
;	./src/stm8_hd44780.c: 238: LCD_D4_H;
; genIPush
	push	#0x01
	Sstm8_hd44780$lcd_bus_wakeup$578 ==.
; genIPush
	push	#0x1e
	Sstm8_hd44780$lcd_bus_wakeup$579 ==.
	push	#0x50
	Sstm8_hd44780$lcd_bus_wakeup$580 ==.
; genCall
	call	_GPIO_WriteHigh
	addw	sp, #3
	Sstm8_hd44780$lcd_bus_wakeup$581 ==.
	Sstm8_hd44780$lcd_bus_wakeup$582 ==.
;	./src/stm8_hd44780.c: 239: LCD_D5_H;
; genIPush
	push	#0x02
	Sstm8_hd44780$lcd_bus_wakeup$583 ==.
; genIPush
	push	#0x1e
	Sstm8_hd44780$lcd_bus_wakeup$584 ==.
	push	#0x50
	Sstm8_hd44780$lcd_bus_wakeup$585 ==.
; genCall
	call	_GPIO_WriteHigh
	addw	sp, #3
	Sstm8_hd44780$lcd_bus_wakeup$586 ==.
	Sstm8_hd44780$lcd_bus_wakeup$587 ==.
;	./src/stm8_hd44780.c: 240: LCD_D6_H;
; genIPush
	push	#0x04
	Sstm8_hd44780$lcd_bus_wakeup$588 ==.
; genIPush
	push	#0x1e
	Sstm8_hd44780$lcd_bus_wakeup$589 ==.
	push	#0x50
	Sstm8_hd44780$lcd_bus_wakeup$590 ==.
; genCall
	call	_GPIO_WriteHigh
	addw	sp, #3
	Sstm8_hd44780$lcd_bus_wakeup$591 ==.
	Sstm8_hd44780$lcd_bus_wakeup$592 ==.
;	./src/stm8_hd44780.c: 241: LCD_D7_H;
; genIPush
	push	#0x08
	Sstm8_hd44780$lcd_bus_wakeup$593 ==.
; genIPush
	push	#0x1e
	Sstm8_hd44780$lcd_bus_wakeup$594 ==.
	push	#0x50
	Sstm8_hd44780$lcd_bus_wakeup$595 ==.
; genCall
	call	_GPIO_WriteHigh
	addw	sp, #3
	Sstm8_hd44780$lcd_bus_wakeup$596 ==.
	Sstm8_hd44780$lcd_bus_wakeup$597 ==.
;	./src/stm8_hd44780.c: 242: lcd_bus_outputs();
; genCall
	jp	_lcd_bus_outputs
; genLabel
00101$:
	Sstm8_hd44780$lcd_bus_wakeup$598 ==.
;	./src/stm8_hd44780.c: 243: }	
; genEndFunction
	Sstm8_hd44780$lcd_bus_wakeup$599 ==.
	XG$lcd_bus_wakeup$0$0 ==.
	ret
	Sstm8_hd44780$lcd_bus_wakeup$600 ==.
	Sstm8_hd44780$lcd_busy_wait$601 ==.
;	./src/stm8_hd44780.c: 246: uint8_t lcd_busy_wait(void){
; genLabel
;	-----------------------------------------
;	 function lcd_busy_wait
;	-----------------------------------------
;	Register assignment is optimal.
;	Stack space usage: 0 bytes.
_lcd_busy_wait:
	Sstm8_hd44780$lcd_busy_wait$602 ==.
	Sstm8_hd44780$lcd_busy_wait$603 ==.
;	./src/stm8_hd44780.c: 247: uint16_t timeout=LCD_BUSY_TIMEOUT;
; genAssign
	ldw	x, #0x01f4
	Sstm8_hd44780$lcd_busy_wait$604 ==.
;	./src/stm8_hd44780.c: 248: while(timeout && lcd_busy()){
; genAssign
; genLabel
00102$:
; genIfx
	tnzw	x
	jrne	00131$
	jp	00114$
00131$:
; genCall
	pushw	x
	Sstm8_hd44780$lcd_busy_wait$605 ==.
	call	_lcd_read
	popw	x
	Sstm8_hd44780$lcd_busy_wait$606 ==.
; genAnd
	tnz	a
	jrmi	00132$
	jp	00114$
00132$:
; skipping generated iCode
	Sstm8_hd44780$lcd_busy_wait$607 ==.
	Sstm8_hd44780$lcd_busy_wait$608 ==.
;	./src/stm8_hd44780.c: 249: timeout--;
; genMinus
	decw	x
	Sstm8_hd44780$lcd_busy_wait$609 ==.
; genGoto
	jp	00102$
; genLabel
00114$:
; genAssign
	Sstm8_hd44780$lcd_busy_wait$610 ==.
;	./src/stm8_hd44780.c: 251: if(timeout==0){return 1;} // error, busy still ==1
; genIfx
	tnzw	x
	jreq	00133$
	jp	00106$
00133$:
	Sstm8_hd44780$lcd_busy_wait$611 ==.
; genReturn
	ld	a, #0x01
	jp	00108$
	Sstm8_hd44780$lcd_busy_wait$612 ==.
; genLabel
00106$:
	Sstm8_hd44780$lcd_busy_wait$613 ==.
	Sstm8_hd44780$lcd_busy_wait$614 ==.
;	./src/stm8_hd44780.c: 252: else{return 0;}
; genReturn
	clr	a
	Sstm8_hd44780$lcd_busy_wait$615 ==.
; genLabel
00108$:
	Sstm8_hd44780$lcd_busy_wait$616 ==.
;	./src/stm8_hd44780.c: 253: }
; genEndFunction
	Sstm8_hd44780$lcd_busy_wait$617 ==.
	XG$lcd_busy_wait$0$0 ==.
	ret
	Sstm8_hd44780$lcd_busy_wait$618 ==.
	.area CODE
	.area CONST
	.area INITIALIZER
	.area CABS (ABS)

	.area .debug_line (NOLOAD)
	.dw	0,Ldebug_line_end-Ldebug_line_start
Ldebug_line_start:
	.dw	2
	.dw	0,Ldebug_line_stmt-6-Ldebug_line_start
	.db	1
	.db	1
	.db	-5
	.db	15
	.db	10
	.db	0
	.db	1
	.db	1
	.db	1
	.db	1
	.db	0
	.db	0
	.db	0
	.db	1
	.ascii "C:\Program Files\SDCC\bin\..\include\stm8"
	.db	0
	.ascii "C:\Program Files\SDCC\bin\..\include"
	.db	0
	.db	0
	.ascii "inc/delay.h"
	.db	0
	.uleb128	0
	.uleb128	0
	.uleb128	0
	.ascii "./src/stm8_hd44780.c"
	.db	0
	.uleb128	0
	.uleb128	0
	.uleb128	0
	.db	0
Ldebug_line_stmt:
	.db	0
	.uleb128	5
	.db	2
	.dw	0,(Sstm8_hd44780$_delay_cycl$0)
	.db	3
	.sleb128	13
	.db	1
	.db	9
	.dw	Sstm8_hd44780$_delay_cycl$2-Sstm8_hd44780$_delay_cycl$0
	.db	3
	.sleb128	11
	.db	1
	.db	9
	.dw	Sstm8_hd44780$_delay_cycl$3-Sstm8_hd44780$_delay_cycl$2
	.db	3
	.sleb128	1
	.db	1
	.db	9
	.dw	Sstm8_hd44780$_delay_cycl$5-Sstm8_hd44780$_delay_cycl$3
	.db	3
	.sleb128	1
	.db	1
	.db	9
	.dw	Sstm8_hd44780$_delay_cycl$7-Sstm8_hd44780$_delay_cycl$5
	.db	3
	.sleb128	1
	.db	1
	.db	9
	.dw	Sstm8_hd44780$_delay_cycl$8-Sstm8_hd44780$_delay_cycl$7
	.db	3
	.sleb128	1
	.db	1
	.db	9
	.dw	Sstm8_hd44780$_delay_cycl$9-Sstm8_hd44780$_delay_cycl$8
	.db	3
	.sleb128	10
	.db	1
	.db	9
	.dw	1+Sstm8_hd44780$_delay_cycl$10-Sstm8_hd44780$_delay_cycl$9
	.db	0
	.uleb128	1
	.db	1
	.db	0
	.uleb128	5
	.db	2
	.dw	0,(Sstm8_hd44780$_delay_us$12)
	.db	3
	.sleb128	40
	.db	1
	.db	9
	.dw	Sstm8_hd44780$_delay_us$35-Sstm8_hd44780$_delay_us$12
	.db	3
	.sleb128	-15
	.db	1
	.db	9
	.dw	Sstm8_hd44780$_delay_us$39-Sstm8_hd44780$_delay_us$35
	.db	3
	.sleb128	16
	.db	1
	.db	9
	.dw	Sstm8_hd44780$_delay_us$40-Sstm8_hd44780$_delay_us$39
	.db	3
	.sleb128	1
	.db	1
	.db	9
	.dw	1+Sstm8_hd44780$_delay_us$41-Sstm8_hd44780$_delay_us$40
	.db	0
	.uleb128	1
	.db	1
	.db	4
	.uleb128	2
	.db	0
	.uleb128	5
	.db	2
	.dw	0,(Sstm8_hd44780$lcd_store_symbol$43)
	.db	3
	.sleb128	12
	.db	1
	.db	9
	.dw	Sstm8_hd44780$lcd_store_symbol$46-Sstm8_hd44780$lcd_store_symbol$43
	.db	3
	.sleb128	2
	.db	1
	.db	9
	.dw	Sstm8_hd44780$lcd_store_symbol$47-Sstm8_hd44780$lcd_store_symbol$46
	.db	3
	.sleb128	1
	.db	1
	.db	9
	.dw	Sstm8_hd44780$lcd_store_symbol$50-Sstm8_hd44780$lcd_store_symbol$47
	.db	3
	.sleb128	1
	.db	1
	.db	9
	.dw	Sstm8_hd44780$lcd_store_symbol$52-Sstm8_hd44780$lcd_store_symbol$50
	.db	3
	.sleb128	1
	.db	1
	.db	9
	.dw	Sstm8_hd44780$lcd_store_symbol$56-Sstm8_hd44780$lcd_store_symbol$52
	.db	3
	.sleb128	-1
	.db	1
	.db	9
	.dw	Sstm8_hd44780$lcd_store_symbol$57-Sstm8_hd44780$lcd_store_symbol$56
	.db	3
	.sleb128	3
	.db	1
	.db	9
	.dw	Sstm8_hd44780$lcd_store_symbol$60-Sstm8_hd44780$lcd_store_symbol$57
	.db	3
	.sleb128	1
	.db	1
	.db	9
	.dw	1+Sstm8_hd44780$lcd_store_symbol$62-Sstm8_hd44780$lcd_store_symbol$60
	.db	0
	.uleb128	1
	.db	1
	.db	4
	.uleb128	2
	.db	0
	.uleb128	5
	.db	2
	.dw	0,(Sstm8_hd44780$lcd_puts$64)
	.db	3
	.sleb128	24
	.db	1
	.db	9
	.dw	Sstm8_hd44780$lcd_puts$66-Sstm8_hd44780$lcd_puts$64
	.db	3
	.sleb128	1
	.db	1
	.db	9
	.dw	Sstm8_hd44780$lcd_puts$68-Sstm8_hd44780$lcd_puts$66
	.db	3
	.sleb128	1
	.db	1
	.db	9
	.dw	Sstm8_hd44780$lcd_puts$73-Sstm8_hd44780$lcd_puts$68
	.db	3
	.sleb128	1
	.db	1
	.db	9
	.dw	Sstm8_hd44780$lcd_puts$75-Sstm8_hd44780$lcd_puts$73
	.db	3
	.sleb128	2
	.db	1
	.db	9
	.dw	1+Sstm8_hd44780$lcd_puts$76-Sstm8_hd44780$lcd_puts$75
	.db	0
	.uleb128	1
	.db	1
	.db	4
	.uleb128	2
	.db	0
	.uleb128	5
	.db	2
	.dw	0,(Sstm8_hd44780$lcd_init$78)
	.db	3
	.sleb128	31
	.db	1
	.db	9
	.dw	Sstm8_hd44780$lcd_init$80-Sstm8_hd44780$lcd_init$78
	.db	3
	.sleb128	1
	.db	1
	.db	9
	.dw	Sstm8_hd44780$lcd_init$81-Sstm8_hd44780$lcd_init$80
	.db	3
	.sleb128	2
	.db	1
	.db	4
	.uleb128	1
	.db	9
	.dw	Sstm8_hd44780$lcd_init$85-Sstm8_hd44780$lcd_init$81
	.db	3
	.sleb128	-9
	.db	1
	.db	4
	.uleb128	2
	.db	9
	.dw	Sstm8_hd44780$lcd_init$89-Sstm8_hd44780$lcd_init$85
	.db	3
	.sleb128	12
	.db	1
	.db	9
	.dw	Sstm8_hd44780$lcd_init$92-Sstm8_hd44780$lcd_init$89
	.db	3
	.sleb128	1
	.db	1
	.db	4
	.uleb128	1
	.db	9
	.dw	Sstm8_hd44780$lcd_init$96-Sstm8_hd44780$lcd_init$92
	.db	3
	.sleb128	-13
	.db	1
	.db	4
	.uleb128	2
	.db	9
	.dw	Sstm8_hd44780$lcd_init$100-Sstm8_hd44780$lcd_init$96
	.db	3
	.sleb128	16
	.db	1
	.db	9
	.dw	Sstm8_hd44780$lcd_init$103-Sstm8_hd44780$lcd_init$100
	.db	3
	.sleb128	1
	.db	1
	.db	4
	.uleb128	1
	.db	9
	.dw	Sstm8_hd44780$lcd_init$107-Sstm8_hd44780$lcd_init$103
	.db	3
	.sleb128	-17
	.db	1
	.db	4
	.uleb128	2
	.db	9
	.dw	Sstm8_hd44780$lcd_init$111-Sstm8_hd44780$lcd_init$107
	.db	3
	.sleb128	20
	.db	1
	.db	9
	.dw	Sstm8_hd44780$lcd_init$114-Sstm8_hd44780$lcd_init$111
	.db	3
	.sleb128	1
	.db	1
	.db	9
	.dw	Sstm8_hd44780$lcd_init$115-Sstm8_hd44780$lcd_init$114
	.db	3
	.sleb128	1
	.db	1
	.db	9
	.dw	Sstm8_hd44780$lcd_init$118-Sstm8_hd44780$lcd_init$115
	.db	3
	.sleb128	1
	.db	1
	.db	4
	.uleb128	1
	.db	9
	.dw	Sstm8_hd44780$lcd_init$122-Sstm8_hd44780$lcd_init$118
	.db	3
	.sleb128	-23
	.db	1
	.db	4
	.uleb128	2
	.db	9
	.dw	Sstm8_hd44780$lcd_init$126-Sstm8_hd44780$lcd_init$122
	.db	3
	.sleb128	29
	.db	1
	.db	9
	.dw	Sstm8_hd44780$lcd_init$129-Sstm8_hd44780$lcd_init$126
	.db	3
	.sleb128	2
	.db	1
	.db	9
	.dw	Sstm8_hd44780$lcd_init$132-Sstm8_hd44780$lcd_init$129
	.db	3
	.sleb128	1
	.db	1
	.db	9
	.dw	Sstm8_hd44780$lcd_init$135-Sstm8_hd44780$lcd_init$132
	.db	3
	.sleb128	1
	.db	1
	.db	9
	.dw	Sstm8_hd44780$lcd_init$138-Sstm8_hd44780$lcd_init$135
	.db	3
	.sleb128	1
	.db	1
	.db	9
	.dw	Sstm8_hd44780$lcd_init$141-Sstm8_hd44780$lcd_init$138
	.db	3
	.sleb128	1
	.db	1
	.db	9
	.dw	Sstm8_hd44780$lcd_init$144-Sstm8_hd44780$lcd_init$141
	.db	3
	.sleb128	1
	.db	1
	.db	9
	.dw	1+Sstm8_hd44780$lcd_init$145-Sstm8_hd44780$lcd_init$144
	.db	0
	.uleb128	1
	.db	1
	.db	4
	.uleb128	2
	.db	0
	.uleb128	5
	.db	2
	.dw	0,(Sstm8_hd44780$lcd_gotoxy$147)
	.db	3
	.sleb128	63
	.db	1
	.db	9
	.dw	Sstm8_hd44780$lcd_gotoxy$149-Sstm8_hd44780$lcd_gotoxy$147
	.db	3
	.sleb128	1
	.db	1
	.db	9
	.dw	Sstm8_hd44780$lcd_gotoxy$150-Sstm8_hd44780$lcd_gotoxy$149
	.db	3
	.sleb128	12
	.db	1
	.db	9
	.dw	Sstm8_hd44780$lcd_gotoxy$153-Sstm8_hd44780$lcd_gotoxy$150
	.db	3
	.sleb128	1
	.db	1
	.db	9
	.dw	Sstm8_hd44780$lcd_gotoxy$156-Sstm8_hd44780$lcd_gotoxy$153
	.db	3
	.sleb128	1
	.db	1
	.db	9
	.dw	Sstm8_hd44780$lcd_gotoxy$160-Sstm8_hd44780$lcd_gotoxy$156
	.db	3
	.sleb128	1
	.db	1
	.db	9
	.dw	Sstm8_hd44780$lcd_gotoxy$161-Sstm8_hd44780$lcd_gotoxy$160
	.db	3
	.sleb128	7
	.db	1
	.db	9
	.dw	Sstm8_hd44780$lcd_gotoxy$164-Sstm8_hd44780$lcd_gotoxy$161
	.db	3
	.sleb128	1
	.db	1
	.db	9
	.dw	1+Sstm8_hd44780$lcd_gotoxy$165-Sstm8_hd44780$lcd_gotoxy$164
	.db	0
	.uleb128	1
	.db	1
	.db	4
	.uleb128	2
	.db	0
	.uleb128	5
	.db	2
	.dw	0,(Sstm8_hd44780$lcd_init_hw$167)
	.db	3
	.sleb128	90
	.db	1
	.db	9
	.dw	Sstm8_hd44780$lcd_init_hw$169-Sstm8_hd44780$lcd_init_hw$167
	.db	3
	.sleb128	19
	.db	1
	.db	9
	.dw	Sstm8_hd44780$lcd_init_hw$175-Sstm8_hd44780$lcd_init_hw$169
	.db	3
	.sleb128	1
	.db	1
	.db	9
	.dw	Sstm8_hd44780$lcd_init_hw$181-Sstm8_hd44780$lcd_init_hw$175
	.db	3
	.sleb128	1
	.db	1
	.db	9
	.dw	Sstm8_hd44780$lcd_init_hw$187-Sstm8_hd44780$lcd_init_hw$181
	.db	3
	.sleb128	3
	.db	1
	.db	9
	.dw	Sstm8_hd44780$lcd_init_hw$188-Sstm8_hd44780$lcd_init_hw$187
	.db	3
	.sleb128	1
	.db	1
	.db	9
	.dw	1+Sstm8_hd44780$lcd_init_hw$189-Sstm8_hd44780$lcd_init_hw$188
	.db	0
	.uleb128	1
	.db	1
	.db	4
	.uleb128	2
	.db	0
	.uleb128	5
	.db	2
	.dw	0,(Sstm8_hd44780$lcd_bus_outputs$191)
	.db	3
	.sleb128	118
	.db	1
	.db	9
	.dw	Sstm8_hd44780$lcd_bus_outputs$193-Sstm8_hd44780$lcd_bus_outputs$191
	.db	3
	.sleb128	4
	.db	1
	.db	9
	.dw	Sstm8_hd44780$lcd_bus_outputs$199-Sstm8_hd44780$lcd_bus_outputs$193
	.db	3
	.sleb128	1
	.db	1
	.db	9
	.dw	Sstm8_hd44780$lcd_bus_outputs$205-Sstm8_hd44780$lcd_bus_outputs$199
	.db	3
	.sleb128	1
	.db	1
	.db	9
	.dw	Sstm8_hd44780$lcd_bus_outputs$211-Sstm8_hd44780$lcd_bus_outputs$205
	.db	3
	.sleb128	1
	.db	1
	.db	9
	.dw	Sstm8_hd44780$lcd_bus_outputs$217-Sstm8_hd44780$lcd_bus_outputs$211
	.db	3
	.sleb128	2
	.db	1
	.db	9
	.dw	1+Sstm8_hd44780$lcd_bus_outputs$218-Sstm8_hd44780$lcd_bus_outputs$217
	.db	0
	.uleb128	1
	.db	1
	.db	4
	.uleb128	2
	.db	0
	.uleb128	5
	.db	2
	.dw	0,(Sstm8_hd44780$lcd_bus_inputs$220)
	.db	3
	.sleb128	130
	.db	1
	.db	9
	.dw	Sstm8_hd44780$lcd_bus_inputs$222-Sstm8_hd44780$lcd_bus_inputs$220
	.db	3
	.sleb128	8
	.db	1
	.db	9
	.dw	Sstm8_hd44780$lcd_bus_inputs$228-Sstm8_hd44780$lcd_bus_inputs$222
	.db	3
	.sleb128	1
	.db	1
	.db	9
	.dw	Sstm8_hd44780$lcd_bus_inputs$234-Sstm8_hd44780$lcd_bus_inputs$228
	.db	3
	.sleb128	1
	.db	1
	.db	9
	.dw	Sstm8_hd44780$lcd_bus_inputs$240-Sstm8_hd44780$lcd_bus_inputs$234
	.db	3
	.sleb128	1
	.db	1
	.db	9
	.dw	Sstm8_hd44780$lcd_bus_inputs$246-Sstm8_hd44780$lcd_bus_inputs$240
	.db	3
	.sleb128	2
	.db	1
	.db	9
	.dw	1+Sstm8_hd44780$lcd_bus_inputs$247-Sstm8_hd44780$lcd_bus_inputs$246
	.db	0
	.uleb128	1
	.db	1
	.db	4
	.uleb128	2
	.db	0
	.uleb128	5
	.db	2
	.dw	0,(Sstm8_hd44780$lcd_deinit_hw$249)
	.db	3
	.sleb128	146
	.db	1
	.db	9
	.dw	Sstm8_hd44780$lcd_deinit_hw$251-Sstm8_hd44780$lcd_deinit_hw$249
	.db	3
	.sleb128	1
	.db	1
	.db	9
	.dw	Sstm8_hd44780$lcd_deinit_hw$257-Sstm8_hd44780$lcd_deinit_hw$251
	.db	3
	.sleb128	1
	.db	1
	.db	9
	.dw	Sstm8_hd44780$lcd_deinit_hw$263-Sstm8_hd44780$lcd_deinit_hw$257
	.db	3
	.sleb128	1
	.db	1
	.db	9
	.dw	Sstm8_hd44780$lcd_deinit_hw$269-Sstm8_hd44780$lcd_deinit_hw$263
	.db	3
	.sleb128	1
	.db	1
	.db	9
	.dw	Sstm8_hd44780$lcd_deinit_hw$275-Sstm8_hd44780$lcd_deinit_hw$269
	.db	3
	.sleb128	1
	.db	1
	.db	9
	.dw	Sstm8_hd44780$lcd_deinit_hw$281-Sstm8_hd44780$lcd_deinit_hw$275
	.db	3
	.sleb128	1
	.db	1
	.db	9
	.dw	Sstm8_hd44780$lcd_deinit_hw$287-Sstm8_hd44780$lcd_deinit_hw$281
	.db	3
	.sleb128	1
	.db	1
	.db	9
	.dw	Sstm8_hd44780$lcd_deinit_hw$293-Sstm8_hd44780$lcd_deinit_hw$287
	.db	3
	.sleb128	1
	.db	1
	.db	9
	.dw	1+Sstm8_hd44780$lcd_deinit_hw$294-Sstm8_hd44780$lcd_deinit_hw$293
	.db	0
	.uleb128	1
	.db	1
	.db	4
	.uleb128	2
	.db	0
	.uleb128	5
	.db	2
	.dw	0,(Sstm8_hd44780$lcd_bus_set$296)
	.db	3
	.sleb128	157
	.db	1
	.db	9
	.dw	Sstm8_hd44780$lcd_bus_set$298-Sstm8_hd44780$lcd_bus_set$296
	.db	3
	.sleb128	1
	.db	1
	.db	9
	.dw	Sstm8_hd44780$lcd_bus_set$311-Sstm8_hd44780$lcd_bus_set$298
	.db	3
	.sleb128	1
	.db	1
	.db	9
	.dw	Sstm8_hd44780$lcd_bus_set$324-Sstm8_hd44780$lcd_bus_set$311
	.db	3
	.sleb128	1
	.db	1
	.db	9
	.dw	Sstm8_hd44780$lcd_bus_set$337-Sstm8_hd44780$lcd_bus_set$324
	.db	3
	.sleb128	1
	.db	1
	.db	9
	.dw	Sstm8_hd44780$lcd_bus_set$350-Sstm8_hd44780$lcd_bus_set$337
	.db	3
	.sleb128	1
	.db	1
	.db	9
	.dw	1+Sstm8_hd44780$lcd_bus_set$351-Sstm8_hd44780$lcd_bus_set$350
	.db	0
	.uleb128	1
	.db	1
	.db	4
	.uleb128	2
	.db	0
	.uleb128	5
	.db	2
	.dw	0,(Sstm8_hd44780$lcd_bus_read$353)
	.db	3
	.sleb128	165
	.db	1
	.db	9
	.dw	Sstm8_hd44780$lcd_bus_read$356-Sstm8_hd44780$lcd_bus_read$353
	.db	3
	.sleb128	1
	.db	1
	.db	9
	.dw	Sstm8_hd44780$lcd_bus_read$357-Sstm8_hd44780$lcd_bus_read$356
	.db	3
	.sleb128	1
	.db	1
	.db	9
	.dw	Sstm8_hd44780$lcd_bus_read$364-Sstm8_hd44780$lcd_bus_read$357
	.db	3
	.sleb128	1
	.db	1
	.db	9
	.dw	Sstm8_hd44780$lcd_bus_read$371-Sstm8_hd44780$lcd_bus_read$364
	.db	3
	.sleb128	1
	.db	1
	.db	9
	.dw	Sstm8_hd44780$lcd_bus_read$378-Sstm8_hd44780$lcd_bus_read$371
	.db	3
	.sleb128	1
	.db	1
	.db	9
	.dw	Sstm8_hd44780$lcd_bus_read$385-Sstm8_hd44780$lcd_bus_read$378
	.db	3
	.sleb128	1
	.db	1
	.db	9
	.dw	Sstm8_hd44780$lcd_bus_read$386-Sstm8_hd44780$lcd_bus_read$385
	.db	3
	.sleb128	1
	.db	1
	.db	9
	.dw	1+Sstm8_hd44780$lcd_bus_read$388-Sstm8_hd44780$lcd_bus_read$386
	.db	0
	.uleb128	1
	.db	1
	.db	4
	.uleb128	2
	.db	0
	.uleb128	5
	.db	2
	.dw	0,(Sstm8_hd44780$lcd_e_tick$390)
	.db	3
	.sleb128	175
	.db	1
	.db	9
	.dw	Sstm8_hd44780$lcd_e_tick$392-Sstm8_hd44780$lcd_e_tick$390
	.db	3
	.sleb128	1
	.db	1
	.db	4
	.uleb128	1
	.db	9
	.dw	Sstm8_hd44780$lcd_e_tick$400-Sstm8_hd44780$lcd_e_tick$392
	.db	3
	.sleb128	-151
	.db	1
	.db	4
	.uleb128	2
	.db	9
	.dw	Sstm8_hd44780$lcd_e_tick$404-Sstm8_hd44780$lcd_e_tick$400
	.db	3
	.sleb128	153
	.db	1
	.db	4
	.uleb128	1
	.db	9
	.dw	Sstm8_hd44780$lcd_e_tick$412-Sstm8_hd44780$lcd_e_tick$404
	.db	3
	.sleb128	-153
	.db	1
	.db	4
	.uleb128	2
	.db	9
	.dw	Sstm8_hd44780$lcd_e_tick$416-Sstm8_hd44780$lcd_e_tick$412
	.db	3
	.sleb128	154
	.db	1
	.db	9
	.dw	Sstm8_hd44780$lcd_e_tick$417-Sstm8_hd44780$lcd_e_tick$416
	.db	3
	.sleb128	1
	.db	1
	.db	9
	.dw	1+Sstm8_hd44780$lcd_e_tick$418-Sstm8_hd44780$lcd_e_tick$417
	.db	0
	.uleb128	1
	.db	1
	.db	4
	.uleb128	2
	.db	0
	.uleb128	5
	.db	2
	.dw	0,(Sstm8_hd44780$lcd_command$420)
	.db	3
	.sleb128	183
	.db	1
	.db	9
	.dw	Sstm8_hd44780$lcd_command$422-Sstm8_hd44780$lcd_command$420
	.db	3
	.sleb128	1
	.db	1
	.db	4
	.uleb128	1
	.db	9
	.dw	Sstm8_hd44780$lcd_command$430-Sstm8_hd44780$lcd_command$422
	.db	3
	.sleb128	-159
	.db	1
	.db	4
	.uleb128	2
	.db	9
	.dw	Sstm8_hd44780$lcd_command$434-Sstm8_hd44780$lcd_command$430
	.db	3
	.sleb128	161
	.db	1
	.db	9
	.dw	Sstm8_hd44780$lcd_command$437-Sstm8_hd44780$lcd_command$434
	.db	3
	.sleb128	1
	.db	1
	.db	9
	.dw	Sstm8_hd44780$lcd_command$438-Sstm8_hd44780$lcd_command$437
	.db	3
	.sleb128	1
	.db	1
	.db	9
	.dw	Sstm8_hd44780$lcd_command$441-Sstm8_hd44780$lcd_command$438
	.db	3
	.sleb128	1
	.db	1
	.db	9
	.dw	Sstm8_hd44780$lcd_command$442-Sstm8_hd44780$lcd_command$441
	.db	3
	.sleb128	1
	.db	1
	.db	9
	.dw	Sstm8_hd44780$lcd_command$443-Sstm8_hd44780$lcd_command$442
	.db	3
	.sleb128	1
	.db	1
	.db	9
	.dw	1+Sstm8_hd44780$lcd_command$444-Sstm8_hd44780$lcd_command$443
	.db	0
	.uleb128	1
	.db	1
	.db	4
	.uleb128	2
	.db	0
	.uleb128	5
	.db	2
	.dw	0,(Sstm8_hd44780$lcd_data$446)
	.db	3
	.sleb128	194
	.db	1
	.db	9
	.dw	Sstm8_hd44780$lcd_data$448-Sstm8_hd44780$lcd_data$446
	.db	3
	.sleb128	1
	.db	1
	.db	4
	.uleb128	1
	.db	9
	.dw	Sstm8_hd44780$lcd_data$456-Sstm8_hd44780$lcd_data$448
	.db	3
	.sleb128	-170
	.db	1
	.db	4
	.uleb128	2
	.db	9
	.dw	Sstm8_hd44780$lcd_data$460-Sstm8_hd44780$lcd_data$456
	.db	3
	.sleb128	172
	.db	1
	.db	9
	.dw	Sstm8_hd44780$lcd_data$463-Sstm8_hd44780$lcd_data$460
	.db	3
	.sleb128	1
	.db	1
	.db	9
	.dw	Sstm8_hd44780$lcd_data$464-Sstm8_hd44780$lcd_data$463
	.db	3
	.sleb128	1
	.db	1
	.db	9
	.dw	Sstm8_hd44780$lcd_data$467-Sstm8_hd44780$lcd_data$464
	.db	3
	.sleb128	1
	.db	1
	.db	9
	.dw	Sstm8_hd44780$lcd_data$468-Sstm8_hd44780$lcd_data$467
	.db	3
	.sleb128	1
	.db	1
	.db	9
	.dw	Sstm8_hd44780$lcd_data$469-Sstm8_hd44780$lcd_data$468
	.db	3
	.sleb128	1
	.db	1
	.db	9
	.dw	1+Sstm8_hd44780$lcd_data$470-Sstm8_hd44780$lcd_data$469
	.db	0
	.uleb128	1
	.db	1
	.db	4
	.uleb128	2
	.db	0
	.uleb128	5
	.db	2
	.dw	0,(Sstm8_hd44780$lcd_read$472)
	.db	3
	.sleb128	205
	.db	1
	.db	9
	.dw	Sstm8_hd44780$lcd_read$475-Sstm8_hd44780$lcd_read$472
	.db	3
	.sleb128	2
	.db	1
	.db	9
	.dw	Sstm8_hd44780$lcd_read$480-Sstm8_hd44780$lcd_read$475
	.db	3
	.sleb128	1
	.db	1
	.db	9
	.dw	Sstm8_hd44780$lcd_read$481-Sstm8_hd44780$lcd_read$480
	.db	3
	.sleb128	1
	.db	1
	.db	4
	.uleb128	1
	.db	9
	.dw	Sstm8_hd44780$lcd_read$489-Sstm8_hd44780$lcd_read$481
	.db	3
	.sleb128	-184
	.db	1
	.db	4
	.uleb128	2
	.db	9
	.dw	Sstm8_hd44780$lcd_read$493-Sstm8_hd44780$lcd_read$489
	.db	3
	.sleb128	186
	.db	1
	.db	4
	.uleb128	1
	.db	9
	.dw	Sstm8_hd44780$lcd_read$501-Sstm8_hd44780$lcd_read$493
	.db	3
	.sleb128	-186
	.db	1
	.db	4
	.uleb128	2
	.db	9
	.dw	Sstm8_hd44780$lcd_read$505-Sstm8_hd44780$lcd_read$501
	.db	3
	.sleb128	188
	.db	1
	.db	9
	.dw	Sstm8_hd44780$lcd_read$506-Sstm8_hd44780$lcd_read$505
	.db	3
	.sleb128	1
	.db	1
	.db	4
	.uleb128	1
	.db	9
	.dw	Sstm8_hd44780$lcd_read$514-Sstm8_hd44780$lcd_read$506
	.db	3
	.sleb128	-189
	.db	1
	.db	4
	.uleb128	2
	.db	9
	.dw	Sstm8_hd44780$lcd_read$518-Sstm8_hd44780$lcd_read$514
	.db	3
	.sleb128	191
	.db	1
	.db	4
	.uleb128	1
	.db	9
	.dw	Sstm8_hd44780$lcd_read$526-Sstm8_hd44780$lcd_read$518
	.db	3
	.sleb128	-191
	.db	1
	.db	4
	.uleb128	2
	.db	9
	.dw	Sstm8_hd44780$lcd_read$530-Sstm8_hd44780$lcd_read$526
	.db	3
	.sleb128	193
	.db	1
	.db	9
	.dw	Sstm8_hd44780$lcd_read$531-Sstm8_hd44780$lcd_read$530
	.db	3
	.sleb128	1
	.db	1
	.db	4
	.uleb128	1
	.db	9
	.dw	Sstm8_hd44780$lcd_read$539-Sstm8_hd44780$lcd_read$531
	.db	3
	.sleb128	-194
	.db	1
	.db	4
	.uleb128	2
	.db	9
	.dw	Sstm8_hd44780$lcd_read$543-Sstm8_hd44780$lcd_read$539
	.db	3
	.sleb128	196
	.db	1
	.db	9
	.dw	Sstm8_hd44780$lcd_read$548-Sstm8_hd44780$lcd_read$543
	.db	3
	.sleb128	1
	.db	1
	.db	9
	.dw	Sstm8_hd44780$lcd_read$549-Sstm8_hd44780$lcd_read$548
	.db	3
	.sleb128	1
	.db	1
	.db	9
	.dw	Sstm8_hd44780$lcd_read$550-Sstm8_hd44780$lcd_read$549
	.db	3
	.sleb128	1
	.db	1
	.db	9
	.dw	1+Sstm8_hd44780$lcd_read$552-Sstm8_hd44780$lcd_read$550
	.db	0
	.uleb128	1
	.db	1
	.db	4
	.uleb128	2
	.db	0
	.uleb128	5
	.db	2
	.dw	0,(Sstm8_hd44780$lcd_bus_sleep$554)
	.db	3
	.sleb128	228
	.db	1
	.db	9
	.dw	Sstm8_hd44780$lcd_bus_sleep$556-Sstm8_hd44780$lcd_bus_sleep$554
	.db	3
	.sleb128	1
	.db	1
	.db	9
	.dw	Sstm8_hd44780$lcd_bus_sleep$561-Sstm8_hd44780$lcd_bus_sleep$556
	.db	3
	.sleb128	1
	.db	1
	.db	9
	.dw	Sstm8_hd44780$lcd_bus_sleep$566-Sstm8_hd44780$lcd_bus_sleep$561
	.db	3
	.sleb128	1
	.db	1
	.db	9
	.dw	Sstm8_hd44780$lcd_bus_sleep$567-Sstm8_hd44780$lcd_bus_sleep$566
	.db	3
	.sleb128	1
	.db	1
	.db	9
	.dw	1+Sstm8_hd44780$lcd_bus_sleep$568-Sstm8_hd44780$lcd_bus_sleep$567
	.db	0
	.uleb128	1
	.db	1
	.db	4
	.uleb128	2
	.db	0
	.uleb128	5
	.db	2
	.dw	0,(Sstm8_hd44780$lcd_bus_wakeup$570)
	.db	3
	.sleb128	235
	.db	1
	.db	9
	.dw	Sstm8_hd44780$lcd_bus_wakeup$572-Sstm8_hd44780$lcd_bus_wakeup$570
	.db	3
	.sleb128	1
	.db	1
	.db	9
	.dw	Sstm8_hd44780$lcd_bus_wakeup$577-Sstm8_hd44780$lcd_bus_wakeup$572
	.db	3
	.sleb128	1
	.db	1
	.db	9
	.dw	Sstm8_hd44780$lcd_bus_wakeup$582-Sstm8_hd44780$lcd_bus_wakeup$577
	.db	3
	.sleb128	1
	.db	1
	.db	9
	.dw	Sstm8_hd44780$lcd_bus_wakeup$587-Sstm8_hd44780$lcd_bus_wakeup$582
	.db	3
	.sleb128	1
	.db	1
	.db	9
	.dw	Sstm8_hd44780$lcd_bus_wakeup$592-Sstm8_hd44780$lcd_bus_wakeup$587
	.db	3
	.sleb128	1
	.db	1
	.db	9
	.dw	Sstm8_hd44780$lcd_bus_wakeup$597-Sstm8_hd44780$lcd_bus_wakeup$592
	.db	3
	.sleb128	1
	.db	1
	.db	9
	.dw	Sstm8_hd44780$lcd_bus_wakeup$598-Sstm8_hd44780$lcd_bus_wakeup$597
	.db	3
	.sleb128	1
	.db	1
	.db	9
	.dw	1+Sstm8_hd44780$lcd_bus_wakeup$599-Sstm8_hd44780$lcd_bus_wakeup$598
	.db	0
	.uleb128	1
	.db	1
	.db	4
	.uleb128	2
	.db	0
	.uleb128	5
	.db	2
	.dw	0,(Sstm8_hd44780$lcd_busy_wait$601)
	.db	3
	.sleb128	245
	.db	1
	.db	9
	.dw	Sstm8_hd44780$lcd_busy_wait$603-Sstm8_hd44780$lcd_busy_wait$601
	.db	3
	.sleb128	1
	.db	1
	.db	9
	.dw	Sstm8_hd44780$lcd_busy_wait$604-Sstm8_hd44780$lcd_busy_wait$603
	.db	3
	.sleb128	1
	.db	1
	.db	9
	.dw	Sstm8_hd44780$lcd_busy_wait$608-Sstm8_hd44780$lcd_busy_wait$604
	.db	3
	.sleb128	1
	.db	1
	.db	9
	.dw	Sstm8_hd44780$lcd_busy_wait$610-Sstm8_hd44780$lcd_busy_wait$608
	.db	3
	.sleb128	2
	.db	1
	.db	9
	.dw	Sstm8_hd44780$lcd_busy_wait$614-Sstm8_hd44780$lcd_busy_wait$610
	.db	3
	.sleb128	1
	.db	1
	.db	9
	.dw	Sstm8_hd44780$lcd_busy_wait$616-Sstm8_hd44780$lcd_busy_wait$614
	.db	3
	.sleb128	1
	.db	1
	.db	9
	.dw	1+Sstm8_hd44780$lcd_busy_wait$617-Sstm8_hd44780$lcd_busy_wait$616
	.db	0
	.uleb128	1
	.db	1
Ldebug_line_end:

	.area .debug_loc (NOLOAD)
Ldebug_loc_start:
	.dw	0,(Sstm8_hd44780$lcd_busy_wait$606)
	.dw	0,(Sstm8_hd44780$lcd_busy_wait$618)
	.dw	2
	.db	120
	.sleb128	1
	.dw	0,(Sstm8_hd44780$lcd_busy_wait$605)
	.dw	0,(Sstm8_hd44780$lcd_busy_wait$606)
	.dw	2
	.db	120
	.sleb128	3
	.dw	0,(Sstm8_hd44780$lcd_busy_wait$602)
	.dw	0,(Sstm8_hd44780$lcd_busy_wait$605)
	.dw	2
	.db	120
	.sleb128	1
	.dw	0,0
	.dw	0,0
	.dw	0,(Sstm8_hd44780$lcd_bus_wakeup$596)
	.dw	0,(Sstm8_hd44780$lcd_bus_wakeup$600)
	.dw	2
	.db	120
	.sleb128	1
	.dw	0,(Sstm8_hd44780$lcd_bus_wakeup$595)
	.dw	0,(Sstm8_hd44780$lcd_bus_wakeup$596)
	.dw	2
	.db	120
	.sleb128	4
	.dw	0,(Sstm8_hd44780$lcd_bus_wakeup$594)
	.dw	0,(Sstm8_hd44780$lcd_bus_wakeup$595)
	.dw	2
	.db	120
	.sleb128	3
	.dw	0,(Sstm8_hd44780$lcd_bus_wakeup$593)
	.dw	0,(Sstm8_hd44780$lcd_bus_wakeup$594)
	.dw	2
	.db	120
	.sleb128	2
	.dw	0,(Sstm8_hd44780$lcd_bus_wakeup$591)
	.dw	0,(Sstm8_hd44780$lcd_bus_wakeup$593)
	.dw	2
	.db	120
	.sleb128	1
	.dw	0,(Sstm8_hd44780$lcd_bus_wakeup$590)
	.dw	0,(Sstm8_hd44780$lcd_bus_wakeup$591)
	.dw	2
	.db	120
	.sleb128	4
	.dw	0,(Sstm8_hd44780$lcd_bus_wakeup$589)
	.dw	0,(Sstm8_hd44780$lcd_bus_wakeup$590)
	.dw	2
	.db	120
	.sleb128	3
	.dw	0,(Sstm8_hd44780$lcd_bus_wakeup$588)
	.dw	0,(Sstm8_hd44780$lcd_bus_wakeup$589)
	.dw	2
	.db	120
	.sleb128	2
	.dw	0,(Sstm8_hd44780$lcd_bus_wakeup$586)
	.dw	0,(Sstm8_hd44780$lcd_bus_wakeup$588)
	.dw	2
	.db	120
	.sleb128	1
	.dw	0,(Sstm8_hd44780$lcd_bus_wakeup$585)
	.dw	0,(Sstm8_hd44780$lcd_bus_wakeup$586)
	.dw	2
	.db	120
	.sleb128	4
	.dw	0,(Sstm8_hd44780$lcd_bus_wakeup$584)
	.dw	0,(Sstm8_hd44780$lcd_bus_wakeup$585)
	.dw	2
	.db	120
	.sleb128	3
	.dw	0,(Sstm8_hd44780$lcd_bus_wakeup$583)
	.dw	0,(Sstm8_hd44780$lcd_bus_wakeup$584)
	.dw	2
	.db	120
	.sleb128	2
	.dw	0,(Sstm8_hd44780$lcd_bus_wakeup$581)
	.dw	0,(Sstm8_hd44780$lcd_bus_wakeup$583)
	.dw	2
	.db	120
	.sleb128	1
	.dw	0,(Sstm8_hd44780$lcd_bus_wakeup$580)
	.dw	0,(Sstm8_hd44780$lcd_bus_wakeup$581)
	.dw	2
	.db	120
	.sleb128	4
	.dw	0,(Sstm8_hd44780$lcd_bus_wakeup$579)
	.dw	0,(Sstm8_hd44780$lcd_bus_wakeup$580)
	.dw	2
	.db	120
	.sleb128	3
	.dw	0,(Sstm8_hd44780$lcd_bus_wakeup$578)
	.dw	0,(Sstm8_hd44780$lcd_bus_wakeup$579)
	.dw	2
	.db	120
	.sleb128	2
	.dw	0,(Sstm8_hd44780$lcd_bus_wakeup$576)
	.dw	0,(Sstm8_hd44780$lcd_bus_wakeup$578)
	.dw	2
	.db	120
	.sleb128	1
	.dw	0,(Sstm8_hd44780$lcd_bus_wakeup$575)
	.dw	0,(Sstm8_hd44780$lcd_bus_wakeup$576)
	.dw	2
	.db	120
	.sleb128	4
	.dw	0,(Sstm8_hd44780$lcd_bus_wakeup$574)
	.dw	0,(Sstm8_hd44780$lcd_bus_wakeup$575)
	.dw	2
	.db	120
	.sleb128	3
	.dw	0,(Sstm8_hd44780$lcd_bus_wakeup$573)
	.dw	0,(Sstm8_hd44780$lcd_bus_wakeup$574)
	.dw	2
	.db	120
	.sleb128	2
	.dw	0,(Sstm8_hd44780$lcd_bus_wakeup$571)
	.dw	0,(Sstm8_hd44780$lcd_bus_wakeup$573)
	.dw	2
	.db	120
	.sleb128	1
	.dw	0,0
	.dw	0,0
	.dw	0,(Sstm8_hd44780$lcd_bus_sleep$565)
	.dw	0,(Sstm8_hd44780$lcd_bus_sleep$569)
	.dw	2
	.db	120
	.sleb128	1
	.dw	0,(Sstm8_hd44780$lcd_bus_sleep$564)
	.dw	0,(Sstm8_hd44780$lcd_bus_sleep$565)
	.dw	2
	.db	120
	.sleb128	4
	.dw	0,(Sstm8_hd44780$lcd_bus_sleep$563)
	.dw	0,(Sstm8_hd44780$lcd_bus_sleep$564)
	.dw	2
	.db	120
	.sleb128	3
	.dw	0,(Sstm8_hd44780$lcd_bus_sleep$562)
	.dw	0,(Sstm8_hd44780$lcd_bus_sleep$563)
	.dw	2
	.db	120
	.sleb128	2
	.dw	0,(Sstm8_hd44780$lcd_bus_sleep$560)
	.dw	0,(Sstm8_hd44780$lcd_bus_sleep$562)
	.dw	2
	.db	120
	.sleb128	1
	.dw	0,(Sstm8_hd44780$lcd_bus_sleep$559)
	.dw	0,(Sstm8_hd44780$lcd_bus_sleep$560)
	.dw	2
	.db	120
	.sleb128	4
	.dw	0,(Sstm8_hd44780$lcd_bus_sleep$558)
	.dw	0,(Sstm8_hd44780$lcd_bus_sleep$559)
	.dw	2
	.db	120
	.sleb128	3
	.dw	0,(Sstm8_hd44780$lcd_bus_sleep$557)
	.dw	0,(Sstm8_hd44780$lcd_bus_sleep$558)
	.dw	2
	.db	120
	.sleb128	2
	.dw	0,(Sstm8_hd44780$lcd_bus_sleep$555)
	.dw	0,(Sstm8_hd44780$lcd_bus_sleep$557)
	.dw	2
	.db	120
	.sleb128	1
	.dw	0,0
	.dw	0,0
	.dw	0,(Sstm8_hd44780$lcd_read$551)
	.dw	0,(Sstm8_hd44780$lcd_read$553)
	.dw	2
	.db	120
	.sleb128	1
	.dw	0,(Sstm8_hd44780$lcd_read$547)
	.dw	0,(Sstm8_hd44780$lcd_read$551)
	.dw	2
	.db	120
	.sleb128	2
	.dw	0,(Sstm8_hd44780$lcd_read$546)
	.dw	0,(Sstm8_hd44780$lcd_read$547)
	.dw	2
	.db	120
	.sleb128	5
	.dw	0,(Sstm8_hd44780$lcd_read$545)
	.dw	0,(Sstm8_hd44780$lcd_read$546)
	.dw	2
	.db	120
	.sleb128	4
	.dw	0,(Sstm8_hd44780$lcd_read$544)
	.dw	0,(Sstm8_hd44780$lcd_read$545)
	.dw	2
	.db	120
	.sleb128	3
	.dw	0,(Sstm8_hd44780$lcd_read$535)
	.dw	0,(Sstm8_hd44780$lcd_read$544)
	.dw	2
	.db	120
	.sleb128	2
	.dw	0,(Sstm8_hd44780$lcd_read$534)
	.dw	0,(Sstm8_hd44780$lcd_read$535)
	.dw	2
	.db	120
	.sleb128	5
	.dw	0,(Sstm8_hd44780$lcd_read$533)
	.dw	0,(Sstm8_hd44780$lcd_read$534)
	.dw	2
	.db	120
	.sleb128	4
	.dw	0,(Sstm8_hd44780$lcd_read$532)
	.dw	0,(Sstm8_hd44780$lcd_read$533)
	.dw	2
	.db	120
	.sleb128	3
	.dw	0,(Sstm8_hd44780$lcd_read$522)
	.dw	0,(Sstm8_hd44780$lcd_read$532)
	.dw	2
	.db	120
	.sleb128	2
	.dw	0,(Sstm8_hd44780$lcd_read$521)
	.dw	0,(Sstm8_hd44780$lcd_read$522)
	.dw	2
	.db	120
	.sleb128	5
	.dw	0,(Sstm8_hd44780$lcd_read$520)
	.dw	0,(Sstm8_hd44780$lcd_read$521)
	.dw	2
	.db	120
	.sleb128	4
	.dw	0,(Sstm8_hd44780$lcd_read$519)
	.dw	0,(Sstm8_hd44780$lcd_read$520)
	.dw	2
	.db	120
	.sleb128	3
	.dw	0,(Sstm8_hd44780$lcd_read$510)
	.dw	0,(Sstm8_hd44780$lcd_read$519)
	.dw	2
	.db	120
	.sleb128	2
	.dw	0,(Sstm8_hd44780$lcd_read$509)
	.dw	0,(Sstm8_hd44780$lcd_read$510)
	.dw	2
	.db	120
	.sleb128	5
	.dw	0,(Sstm8_hd44780$lcd_read$508)
	.dw	0,(Sstm8_hd44780$lcd_read$509)
	.dw	2
	.db	120
	.sleb128	4
	.dw	0,(Sstm8_hd44780$lcd_read$507)
	.dw	0,(Sstm8_hd44780$lcd_read$508)
	.dw	2
	.db	120
	.sleb128	3
	.dw	0,(Sstm8_hd44780$lcd_read$497)
	.dw	0,(Sstm8_hd44780$lcd_read$507)
	.dw	2
	.db	120
	.sleb128	2
	.dw	0,(Sstm8_hd44780$lcd_read$496)
	.dw	0,(Sstm8_hd44780$lcd_read$497)
	.dw	2
	.db	120
	.sleb128	5
	.dw	0,(Sstm8_hd44780$lcd_read$495)
	.dw	0,(Sstm8_hd44780$lcd_read$496)
	.dw	2
	.db	120
	.sleb128	4
	.dw	0,(Sstm8_hd44780$lcd_read$494)
	.dw	0,(Sstm8_hd44780$lcd_read$495)
	.dw	2
	.db	120
	.sleb128	3
	.dw	0,(Sstm8_hd44780$lcd_read$485)
	.dw	0,(Sstm8_hd44780$lcd_read$494)
	.dw	2
	.db	120
	.sleb128	2
	.dw	0,(Sstm8_hd44780$lcd_read$484)
	.dw	0,(Sstm8_hd44780$lcd_read$485)
	.dw	2
	.db	120
	.sleb128	5
	.dw	0,(Sstm8_hd44780$lcd_read$483)
	.dw	0,(Sstm8_hd44780$lcd_read$484)
	.dw	2
	.db	120
	.sleb128	4
	.dw	0,(Sstm8_hd44780$lcd_read$482)
	.dw	0,(Sstm8_hd44780$lcd_read$483)
	.dw	2
	.db	120
	.sleb128	3
	.dw	0,(Sstm8_hd44780$lcd_read$479)
	.dw	0,(Sstm8_hd44780$lcd_read$482)
	.dw	2
	.db	120
	.sleb128	2
	.dw	0,(Sstm8_hd44780$lcd_read$478)
	.dw	0,(Sstm8_hd44780$lcd_read$479)
	.dw	2
	.db	120
	.sleb128	5
	.dw	0,(Sstm8_hd44780$lcd_read$477)
	.dw	0,(Sstm8_hd44780$lcd_read$478)
	.dw	2
	.db	120
	.sleb128	4
	.dw	0,(Sstm8_hd44780$lcd_read$476)
	.dw	0,(Sstm8_hd44780$lcd_read$477)
	.dw	2
	.db	120
	.sleb128	3
	.dw	0,(Sstm8_hd44780$lcd_read$474)
	.dw	0,(Sstm8_hd44780$lcd_read$476)
	.dw	2
	.db	120
	.sleb128	2
	.dw	0,(Sstm8_hd44780$lcd_read$473)
	.dw	0,(Sstm8_hd44780$lcd_read$474)
	.dw	2
	.db	120
	.sleb128	1
	.dw	0,0
	.dw	0,0
	.dw	0,(Sstm8_hd44780$lcd_data$466)
	.dw	0,(Sstm8_hd44780$lcd_data$471)
	.dw	2
	.db	120
	.sleb128	1
	.dw	0,(Sstm8_hd44780$lcd_data$465)
	.dw	0,(Sstm8_hd44780$lcd_data$466)
	.dw	2
	.db	120
	.sleb128	2
	.dw	0,(Sstm8_hd44780$lcd_data$462)
	.dw	0,(Sstm8_hd44780$lcd_data$465)
	.dw	2
	.db	120
	.sleb128	1
	.dw	0,(Sstm8_hd44780$lcd_data$461)
	.dw	0,(Sstm8_hd44780$lcd_data$462)
	.dw	2
	.db	120
	.sleb128	2
	.dw	0,(Sstm8_hd44780$lcd_data$452)
	.dw	0,(Sstm8_hd44780$lcd_data$461)
	.dw	2
	.db	120
	.sleb128	1
	.dw	0,(Sstm8_hd44780$lcd_data$451)
	.dw	0,(Sstm8_hd44780$lcd_data$452)
	.dw	2
	.db	120
	.sleb128	4
	.dw	0,(Sstm8_hd44780$lcd_data$450)
	.dw	0,(Sstm8_hd44780$lcd_data$451)
	.dw	2
	.db	120
	.sleb128	3
	.dw	0,(Sstm8_hd44780$lcd_data$449)
	.dw	0,(Sstm8_hd44780$lcd_data$450)
	.dw	2
	.db	120
	.sleb128	2
	.dw	0,(Sstm8_hd44780$lcd_data$447)
	.dw	0,(Sstm8_hd44780$lcd_data$449)
	.dw	2
	.db	120
	.sleb128	1
	.dw	0,0
	.dw	0,0
	.dw	0,(Sstm8_hd44780$lcd_command$440)
	.dw	0,(Sstm8_hd44780$lcd_command$445)
	.dw	2
	.db	120
	.sleb128	1
	.dw	0,(Sstm8_hd44780$lcd_command$439)
	.dw	0,(Sstm8_hd44780$lcd_command$440)
	.dw	2
	.db	120
	.sleb128	2
	.dw	0,(Sstm8_hd44780$lcd_command$436)
	.dw	0,(Sstm8_hd44780$lcd_command$439)
	.dw	2
	.db	120
	.sleb128	1
	.dw	0,(Sstm8_hd44780$lcd_command$435)
	.dw	0,(Sstm8_hd44780$lcd_command$436)
	.dw	2
	.db	120
	.sleb128	2
	.dw	0,(Sstm8_hd44780$lcd_command$426)
	.dw	0,(Sstm8_hd44780$lcd_command$435)
	.dw	2
	.db	120
	.sleb128	1
	.dw	0,(Sstm8_hd44780$lcd_command$425)
	.dw	0,(Sstm8_hd44780$lcd_command$426)
	.dw	2
	.db	120
	.sleb128	4
	.dw	0,(Sstm8_hd44780$lcd_command$424)
	.dw	0,(Sstm8_hd44780$lcd_command$425)
	.dw	2
	.db	120
	.sleb128	3
	.dw	0,(Sstm8_hd44780$lcd_command$423)
	.dw	0,(Sstm8_hd44780$lcd_command$424)
	.dw	2
	.db	120
	.sleb128	2
	.dw	0,(Sstm8_hd44780$lcd_command$421)
	.dw	0,(Sstm8_hd44780$lcd_command$423)
	.dw	2
	.db	120
	.sleb128	1
	.dw	0,0
	.dw	0,0
	.dw	0,(Sstm8_hd44780$lcd_e_tick$408)
	.dw	0,(Sstm8_hd44780$lcd_e_tick$419)
	.dw	2
	.db	120
	.sleb128	1
	.dw	0,(Sstm8_hd44780$lcd_e_tick$407)
	.dw	0,(Sstm8_hd44780$lcd_e_tick$408)
	.dw	2
	.db	120
	.sleb128	4
	.dw	0,(Sstm8_hd44780$lcd_e_tick$406)
	.dw	0,(Sstm8_hd44780$lcd_e_tick$407)
	.dw	2
	.db	120
	.sleb128	3
	.dw	0,(Sstm8_hd44780$lcd_e_tick$405)
	.dw	0,(Sstm8_hd44780$lcd_e_tick$406)
	.dw	2
	.db	120
	.sleb128	2
	.dw	0,(Sstm8_hd44780$lcd_e_tick$396)
	.dw	0,(Sstm8_hd44780$lcd_e_tick$405)
	.dw	2
	.db	120
	.sleb128	1
	.dw	0,(Sstm8_hd44780$lcd_e_tick$395)
	.dw	0,(Sstm8_hd44780$lcd_e_tick$396)
	.dw	2
	.db	120
	.sleb128	4
	.dw	0,(Sstm8_hd44780$lcd_e_tick$394)
	.dw	0,(Sstm8_hd44780$lcd_e_tick$395)
	.dw	2
	.db	120
	.sleb128	3
	.dw	0,(Sstm8_hd44780$lcd_e_tick$393)
	.dw	0,(Sstm8_hd44780$lcd_e_tick$394)
	.dw	2
	.db	120
	.sleb128	2
	.dw	0,(Sstm8_hd44780$lcd_e_tick$391)
	.dw	0,(Sstm8_hd44780$lcd_e_tick$393)
	.dw	2
	.db	120
	.sleb128	1
	.dw	0,0
	.dw	0,0
	.dw	0,(Sstm8_hd44780$lcd_bus_read$387)
	.dw	0,(Sstm8_hd44780$lcd_bus_read$389)
	.dw	2
	.db	120
	.sleb128	1
	.dw	0,(Sstm8_hd44780$lcd_bus_read$382)
	.dw	0,(Sstm8_hd44780$lcd_bus_read$387)
	.dw	2
	.db	120
	.sleb128	2
	.dw	0,(Sstm8_hd44780$lcd_bus_read$381)
	.dw	0,(Sstm8_hd44780$lcd_bus_read$382)
	.dw	2
	.db	120
	.sleb128	5
	.dw	0,(Sstm8_hd44780$lcd_bus_read$380)
	.dw	0,(Sstm8_hd44780$lcd_bus_read$381)
	.dw	2
	.db	120
	.sleb128	4
	.dw	0,(Sstm8_hd44780$lcd_bus_read$379)
	.dw	0,(Sstm8_hd44780$lcd_bus_read$380)
	.dw	2
	.db	120
	.sleb128	3
	.dw	0,(Sstm8_hd44780$lcd_bus_read$375)
	.dw	0,(Sstm8_hd44780$lcd_bus_read$379)
	.dw	2
	.db	120
	.sleb128	2
	.dw	0,(Sstm8_hd44780$lcd_bus_read$374)
	.dw	0,(Sstm8_hd44780$lcd_bus_read$375)
	.dw	2
	.db	120
	.sleb128	5
	.dw	0,(Sstm8_hd44780$lcd_bus_read$373)
	.dw	0,(Sstm8_hd44780$lcd_bus_read$374)
	.dw	2
	.db	120
	.sleb128	4
	.dw	0,(Sstm8_hd44780$lcd_bus_read$372)
	.dw	0,(Sstm8_hd44780$lcd_bus_read$373)
	.dw	2
	.db	120
	.sleb128	3
	.dw	0,(Sstm8_hd44780$lcd_bus_read$368)
	.dw	0,(Sstm8_hd44780$lcd_bus_read$372)
	.dw	2
	.db	120
	.sleb128	2
	.dw	0,(Sstm8_hd44780$lcd_bus_read$367)
	.dw	0,(Sstm8_hd44780$lcd_bus_read$368)
	.dw	2
	.db	120
	.sleb128	5
	.dw	0,(Sstm8_hd44780$lcd_bus_read$366)
	.dw	0,(Sstm8_hd44780$lcd_bus_read$367)
	.dw	2
	.db	120
	.sleb128	4
	.dw	0,(Sstm8_hd44780$lcd_bus_read$365)
	.dw	0,(Sstm8_hd44780$lcd_bus_read$366)
	.dw	2
	.db	120
	.sleb128	3
	.dw	0,(Sstm8_hd44780$lcd_bus_read$361)
	.dw	0,(Sstm8_hd44780$lcd_bus_read$365)
	.dw	2
	.db	120
	.sleb128	2
	.dw	0,(Sstm8_hd44780$lcd_bus_read$360)
	.dw	0,(Sstm8_hd44780$lcd_bus_read$361)
	.dw	2
	.db	120
	.sleb128	5
	.dw	0,(Sstm8_hd44780$lcd_bus_read$359)
	.dw	0,(Sstm8_hd44780$lcd_bus_read$360)
	.dw	2
	.db	120
	.sleb128	4
	.dw	0,(Sstm8_hd44780$lcd_bus_read$358)
	.dw	0,(Sstm8_hd44780$lcd_bus_read$359)
	.dw	2
	.db	120
	.sleb128	3
	.dw	0,(Sstm8_hd44780$lcd_bus_read$355)
	.dw	0,(Sstm8_hd44780$lcd_bus_read$358)
	.dw	2
	.db	120
	.sleb128	2
	.dw	0,(Sstm8_hd44780$lcd_bus_read$354)
	.dw	0,(Sstm8_hd44780$lcd_bus_read$355)
	.dw	2
	.db	120
	.sleb128	1
	.dw	0,0
	.dw	0,0
	.dw	0,(Sstm8_hd44780$lcd_bus_set$348)
	.dw	0,(Sstm8_hd44780$lcd_bus_set$352)
	.dw	2
	.db	120
	.sleb128	1
	.dw	0,(Sstm8_hd44780$lcd_bus_set$347)
	.dw	0,(Sstm8_hd44780$lcd_bus_set$348)
	.dw	2
	.db	120
	.sleb128	4
	.dw	0,(Sstm8_hd44780$lcd_bus_set$346)
	.dw	0,(Sstm8_hd44780$lcd_bus_set$347)
	.dw	2
	.db	120
	.sleb128	3
	.dw	0,(Sstm8_hd44780$lcd_bus_set$345)
	.dw	0,(Sstm8_hd44780$lcd_bus_set$346)
	.dw	2
	.db	120
	.sleb128	2
	.dw	0,(Sstm8_hd44780$lcd_bus_set$342)
	.dw	0,(Sstm8_hd44780$lcd_bus_set$345)
	.dw	2
	.db	120
	.sleb128	1
	.dw	0,(Sstm8_hd44780$lcd_bus_set$341)
	.dw	0,(Sstm8_hd44780$lcd_bus_set$342)
	.dw	2
	.db	120
	.sleb128	4
	.dw	0,(Sstm8_hd44780$lcd_bus_set$340)
	.dw	0,(Sstm8_hd44780$lcd_bus_set$341)
	.dw	2
	.db	120
	.sleb128	3
	.dw	0,(Sstm8_hd44780$lcd_bus_set$339)
	.dw	0,(Sstm8_hd44780$lcd_bus_set$340)
	.dw	2
	.db	120
	.sleb128	2
	.dw	0,(Sstm8_hd44780$lcd_bus_set$335)
	.dw	0,(Sstm8_hd44780$lcd_bus_set$339)
	.dw	2
	.db	120
	.sleb128	1
	.dw	0,(Sstm8_hd44780$lcd_bus_set$334)
	.dw	0,(Sstm8_hd44780$lcd_bus_set$335)
	.dw	2
	.db	120
	.sleb128	4
	.dw	0,(Sstm8_hd44780$lcd_bus_set$333)
	.dw	0,(Sstm8_hd44780$lcd_bus_set$334)
	.dw	2
	.db	120
	.sleb128	3
	.dw	0,(Sstm8_hd44780$lcd_bus_set$332)
	.dw	0,(Sstm8_hd44780$lcd_bus_set$333)
	.dw	2
	.db	120
	.sleb128	2
	.dw	0,(Sstm8_hd44780$lcd_bus_set$329)
	.dw	0,(Sstm8_hd44780$lcd_bus_set$332)
	.dw	2
	.db	120
	.sleb128	1
	.dw	0,(Sstm8_hd44780$lcd_bus_set$328)
	.dw	0,(Sstm8_hd44780$lcd_bus_set$329)
	.dw	2
	.db	120
	.sleb128	4
	.dw	0,(Sstm8_hd44780$lcd_bus_set$327)
	.dw	0,(Sstm8_hd44780$lcd_bus_set$328)
	.dw	2
	.db	120
	.sleb128	3
	.dw	0,(Sstm8_hd44780$lcd_bus_set$326)
	.dw	0,(Sstm8_hd44780$lcd_bus_set$327)
	.dw	2
	.db	120
	.sleb128	2
	.dw	0,(Sstm8_hd44780$lcd_bus_set$322)
	.dw	0,(Sstm8_hd44780$lcd_bus_set$326)
	.dw	2
	.db	120
	.sleb128	1
	.dw	0,(Sstm8_hd44780$lcd_bus_set$321)
	.dw	0,(Sstm8_hd44780$lcd_bus_set$322)
	.dw	2
	.db	120
	.sleb128	4
	.dw	0,(Sstm8_hd44780$lcd_bus_set$320)
	.dw	0,(Sstm8_hd44780$lcd_bus_set$321)
	.dw	2
	.db	120
	.sleb128	3
	.dw	0,(Sstm8_hd44780$lcd_bus_set$319)
	.dw	0,(Sstm8_hd44780$lcd_bus_set$320)
	.dw	2
	.db	120
	.sleb128	2
	.dw	0,(Sstm8_hd44780$lcd_bus_set$316)
	.dw	0,(Sstm8_hd44780$lcd_bus_set$319)
	.dw	2
	.db	120
	.sleb128	1
	.dw	0,(Sstm8_hd44780$lcd_bus_set$315)
	.dw	0,(Sstm8_hd44780$lcd_bus_set$316)
	.dw	2
	.db	120
	.sleb128	4
	.dw	0,(Sstm8_hd44780$lcd_bus_set$314)
	.dw	0,(Sstm8_hd44780$lcd_bus_set$315)
	.dw	2
	.db	120
	.sleb128	3
	.dw	0,(Sstm8_hd44780$lcd_bus_set$313)
	.dw	0,(Sstm8_hd44780$lcd_bus_set$314)
	.dw	2
	.db	120
	.sleb128	2
	.dw	0,(Sstm8_hd44780$lcd_bus_set$309)
	.dw	0,(Sstm8_hd44780$lcd_bus_set$313)
	.dw	2
	.db	120
	.sleb128	1
	.dw	0,(Sstm8_hd44780$lcd_bus_set$308)
	.dw	0,(Sstm8_hd44780$lcd_bus_set$309)
	.dw	2
	.db	120
	.sleb128	4
	.dw	0,(Sstm8_hd44780$lcd_bus_set$307)
	.dw	0,(Sstm8_hd44780$lcd_bus_set$308)
	.dw	2
	.db	120
	.sleb128	3
	.dw	0,(Sstm8_hd44780$lcd_bus_set$306)
	.dw	0,(Sstm8_hd44780$lcd_bus_set$307)
	.dw	2
	.db	120
	.sleb128	2
	.dw	0,(Sstm8_hd44780$lcd_bus_set$303)
	.dw	0,(Sstm8_hd44780$lcd_bus_set$306)
	.dw	2
	.db	120
	.sleb128	1
	.dw	0,(Sstm8_hd44780$lcd_bus_set$302)
	.dw	0,(Sstm8_hd44780$lcd_bus_set$303)
	.dw	2
	.db	120
	.sleb128	4
	.dw	0,(Sstm8_hd44780$lcd_bus_set$301)
	.dw	0,(Sstm8_hd44780$lcd_bus_set$302)
	.dw	2
	.db	120
	.sleb128	3
	.dw	0,(Sstm8_hd44780$lcd_bus_set$300)
	.dw	0,(Sstm8_hd44780$lcd_bus_set$301)
	.dw	2
	.db	120
	.sleb128	2
	.dw	0,(Sstm8_hd44780$lcd_bus_set$297)
	.dw	0,(Sstm8_hd44780$lcd_bus_set$300)
	.dw	2
	.db	120
	.sleb128	1
	.dw	0,0
	.dw	0,0
	.dw	0,(Sstm8_hd44780$lcd_deinit_hw$292)
	.dw	0,(Sstm8_hd44780$lcd_deinit_hw$295)
	.dw	2
	.db	120
	.sleb128	1
	.dw	0,(Sstm8_hd44780$lcd_deinit_hw$291)
	.dw	0,(Sstm8_hd44780$lcd_deinit_hw$292)
	.dw	2
	.db	120
	.sleb128	5
	.dw	0,(Sstm8_hd44780$lcd_deinit_hw$290)
	.dw	0,(Sstm8_hd44780$lcd_deinit_hw$291)
	.dw	2
	.db	120
	.sleb128	4
	.dw	0,(Sstm8_hd44780$lcd_deinit_hw$289)
	.dw	0,(Sstm8_hd44780$lcd_deinit_hw$290)
	.dw	2
	.db	120
	.sleb128	3
	.dw	0,(Sstm8_hd44780$lcd_deinit_hw$288)
	.dw	0,(Sstm8_hd44780$lcd_deinit_hw$289)
	.dw	2
	.db	120
	.sleb128	2
	.dw	0,(Sstm8_hd44780$lcd_deinit_hw$286)
	.dw	0,(Sstm8_hd44780$lcd_deinit_hw$288)
	.dw	2
	.db	120
	.sleb128	1
	.dw	0,(Sstm8_hd44780$lcd_deinit_hw$285)
	.dw	0,(Sstm8_hd44780$lcd_deinit_hw$286)
	.dw	2
	.db	120
	.sleb128	5
	.dw	0,(Sstm8_hd44780$lcd_deinit_hw$284)
	.dw	0,(Sstm8_hd44780$lcd_deinit_hw$285)
	.dw	2
	.db	120
	.sleb128	4
	.dw	0,(Sstm8_hd44780$lcd_deinit_hw$283)
	.dw	0,(Sstm8_hd44780$lcd_deinit_hw$284)
	.dw	2
	.db	120
	.sleb128	3
	.dw	0,(Sstm8_hd44780$lcd_deinit_hw$282)
	.dw	0,(Sstm8_hd44780$lcd_deinit_hw$283)
	.dw	2
	.db	120
	.sleb128	2
	.dw	0,(Sstm8_hd44780$lcd_deinit_hw$280)
	.dw	0,(Sstm8_hd44780$lcd_deinit_hw$282)
	.dw	2
	.db	120
	.sleb128	1
	.dw	0,(Sstm8_hd44780$lcd_deinit_hw$279)
	.dw	0,(Sstm8_hd44780$lcd_deinit_hw$280)
	.dw	2
	.db	120
	.sleb128	5
	.dw	0,(Sstm8_hd44780$lcd_deinit_hw$278)
	.dw	0,(Sstm8_hd44780$lcd_deinit_hw$279)
	.dw	2
	.db	120
	.sleb128	4
	.dw	0,(Sstm8_hd44780$lcd_deinit_hw$277)
	.dw	0,(Sstm8_hd44780$lcd_deinit_hw$278)
	.dw	2
	.db	120
	.sleb128	3
	.dw	0,(Sstm8_hd44780$lcd_deinit_hw$276)
	.dw	0,(Sstm8_hd44780$lcd_deinit_hw$277)
	.dw	2
	.db	120
	.sleb128	2
	.dw	0,(Sstm8_hd44780$lcd_deinit_hw$274)
	.dw	0,(Sstm8_hd44780$lcd_deinit_hw$276)
	.dw	2
	.db	120
	.sleb128	1
	.dw	0,(Sstm8_hd44780$lcd_deinit_hw$273)
	.dw	0,(Sstm8_hd44780$lcd_deinit_hw$274)
	.dw	2
	.db	120
	.sleb128	5
	.dw	0,(Sstm8_hd44780$lcd_deinit_hw$272)
	.dw	0,(Sstm8_hd44780$lcd_deinit_hw$273)
	.dw	2
	.db	120
	.sleb128	4
	.dw	0,(Sstm8_hd44780$lcd_deinit_hw$271)
	.dw	0,(Sstm8_hd44780$lcd_deinit_hw$272)
	.dw	2
	.db	120
	.sleb128	3
	.dw	0,(Sstm8_hd44780$lcd_deinit_hw$270)
	.dw	0,(Sstm8_hd44780$lcd_deinit_hw$271)
	.dw	2
	.db	120
	.sleb128	2
	.dw	0,(Sstm8_hd44780$lcd_deinit_hw$268)
	.dw	0,(Sstm8_hd44780$lcd_deinit_hw$270)
	.dw	2
	.db	120
	.sleb128	1
	.dw	0,(Sstm8_hd44780$lcd_deinit_hw$267)
	.dw	0,(Sstm8_hd44780$lcd_deinit_hw$268)
	.dw	2
	.db	120
	.sleb128	5
	.dw	0,(Sstm8_hd44780$lcd_deinit_hw$266)
	.dw	0,(Sstm8_hd44780$lcd_deinit_hw$267)
	.dw	2
	.db	120
	.sleb128	4
	.dw	0,(Sstm8_hd44780$lcd_deinit_hw$265)
	.dw	0,(Sstm8_hd44780$lcd_deinit_hw$266)
	.dw	2
	.db	120
	.sleb128	3
	.dw	0,(Sstm8_hd44780$lcd_deinit_hw$264)
	.dw	0,(Sstm8_hd44780$lcd_deinit_hw$265)
	.dw	2
	.db	120
	.sleb128	2
	.dw	0,(Sstm8_hd44780$lcd_deinit_hw$262)
	.dw	0,(Sstm8_hd44780$lcd_deinit_hw$264)
	.dw	2
	.db	120
	.sleb128	1
	.dw	0,(Sstm8_hd44780$lcd_deinit_hw$261)
	.dw	0,(Sstm8_hd44780$lcd_deinit_hw$262)
	.dw	2
	.db	120
	.sleb128	5
	.dw	0,(Sstm8_hd44780$lcd_deinit_hw$260)
	.dw	0,(Sstm8_hd44780$lcd_deinit_hw$261)
	.dw	2
	.db	120
	.sleb128	4
	.dw	0,(Sstm8_hd44780$lcd_deinit_hw$259)
	.dw	0,(Sstm8_hd44780$lcd_deinit_hw$260)
	.dw	2
	.db	120
	.sleb128	3
	.dw	0,(Sstm8_hd44780$lcd_deinit_hw$258)
	.dw	0,(Sstm8_hd44780$lcd_deinit_hw$259)
	.dw	2
	.db	120
	.sleb128	2
	.dw	0,(Sstm8_hd44780$lcd_deinit_hw$256)
	.dw	0,(Sstm8_hd44780$lcd_deinit_hw$258)
	.dw	2
	.db	120
	.sleb128	1
	.dw	0,(Sstm8_hd44780$lcd_deinit_hw$255)
	.dw	0,(Sstm8_hd44780$lcd_deinit_hw$256)
	.dw	2
	.db	120
	.sleb128	5
	.dw	0,(Sstm8_hd44780$lcd_deinit_hw$254)
	.dw	0,(Sstm8_hd44780$lcd_deinit_hw$255)
	.dw	2
	.db	120
	.sleb128	4
	.dw	0,(Sstm8_hd44780$lcd_deinit_hw$253)
	.dw	0,(Sstm8_hd44780$lcd_deinit_hw$254)
	.dw	2
	.db	120
	.sleb128	3
	.dw	0,(Sstm8_hd44780$lcd_deinit_hw$252)
	.dw	0,(Sstm8_hd44780$lcd_deinit_hw$253)
	.dw	2
	.db	120
	.sleb128	2
	.dw	0,(Sstm8_hd44780$lcd_deinit_hw$250)
	.dw	0,(Sstm8_hd44780$lcd_deinit_hw$252)
	.dw	2
	.db	120
	.sleb128	1
	.dw	0,0
	.dw	0,0
	.dw	0,(Sstm8_hd44780$lcd_bus_inputs$245)
	.dw	0,(Sstm8_hd44780$lcd_bus_inputs$248)
	.dw	2
	.db	120
	.sleb128	1
	.dw	0,(Sstm8_hd44780$lcd_bus_inputs$244)
	.dw	0,(Sstm8_hd44780$lcd_bus_inputs$245)
	.dw	2
	.db	120
	.sleb128	5
	.dw	0,(Sstm8_hd44780$lcd_bus_inputs$243)
	.dw	0,(Sstm8_hd44780$lcd_bus_inputs$244)
	.dw	2
	.db	120
	.sleb128	4
	.dw	0,(Sstm8_hd44780$lcd_bus_inputs$242)
	.dw	0,(Sstm8_hd44780$lcd_bus_inputs$243)
	.dw	2
	.db	120
	.sleb128	3
	.dw	0,(Sstm8_hd44780$lcd_bus_inputs$241)
	.dw	0,(Sstm8_hd44780$lcd_bus_inputs$242)
	.dw	2
	.db	120
	.sleb128	2
	.dw	0,(Sstm8_hd44780$lcd_bus_inputs$239)
	.dw	0,(Sstm8_hd44780$lcd_bus_inputs$241)
	.dw	2
	.db	120
	.sleb128	1
	.dw	0,(Sstm8_hd44780$lcd_bus_inputs$238)
	.dw	0,(Sstm8_hd44780$lcd_bus_inputs$239)
	.dw	2
	.db	120
	.sleb128	5
	.dw	0,(Sstm8_hd44780$lcd_bus_inputs$237)
	.dw	0,(Sstm8_hd44780$lcd_bus_inputs$238)
	.dw	2
	.db	120
	.sleb128	4
	.dw	0,(Sstm8_hd44780$lcd_bus_inputs$236)
	.dw	0,(Sstm8_hd44780$lcd_bus_inputs$237)
	.dw	2
	.db	120
	.sleb128	3
	.dw	0,(Sstm8_hd44780$lcd_bus_inputs$235)
	.dw	0,(Sstm8_hd44780$lcd_bus_inputs$236)
	.dw	2
	.db	120
	.sleb128	2
	.dw	0,(Sstm8_hd44780$lcd_bus_inputs$233)
	.dw	0,(Sstm8_hd44780$lcd_bus_inputs$235)
	.dw	2
	.db	120
	.sleb128	1
	.dw	0,(Sstm8_hd44780$lcd_bus_inputs$232)
	.dw	0,(Sstm8_hd44780$lcd_bus_inputs$233)
	.dw	2
	.db	120
	.sleb128	5
	.dw	0,(Sstm8_hd44780$lcd_bus_inputs$231)
	.dw	0,(Sstm8_hd44780$lcd_bus_inputs$232)
	.dw	2
	.db	120
	.sleb128	4
	.dw	0,(Sstm8_hd44780$lcd_bus_inputs$230)
	.dw	0,(Sstm8_hd44780$lcd_bus_inputs$231)
	.dw	2
	.db	120
	.sleb128	3
	.dw	0,(Sstm8_hd44780$lcd_bus_inputs$229)
	.dw	0,(Sstm8_hd44780$lcd_bus_inputs$230)
	.dw	2
	.db	120
	.sleb128	2
	.dw	0,(Sstm8_hd44780$lcd_bus_inputs$227)
	.dw	0,(Sstm8_hd44780$lcd_bus_inputs$229)
	.dw	2
	.db	120
	.sleb128	1
	.dw	0,(Sstm8_hd44780$lcd_bus_inputs$226)
	.dw	0,(Sstm8_hd44780$lcd_bus_inputs$227)
	.dw	2
	.db	120
	.sleb128	5
	.dw	0,(Sstm8_hd44780$lcd_bus_inputs$225)
	.dw	0,(Sstm8_hd44780$lcd_bus_inputs$226)
	.dw	2
	.db	120
	.sleb128	4
	.dw	0,(Sstm8_hd44780$lcd_bus_inputs$224)
	.dw	0,(Sstm8_hd44780$lcd_bus_inputs$225)
	.dw	2
	.db	120
	.sleb128	3
	.dw	0,(Sstm8_hd44780$lcd_bus_inputs$223)
	.dw	0,(Sstm8_hd44780$lcd_bus_inputs$224)
	.dw	2
	.db	120
	.sleb128	2
	.dw	0,(Sstm8_hd44780$lcd_bus_inputs$221)
	.dw	0,(Sstm8_hd44780$lcd_bus_inputs$223)
	.dw	2
	.db	120
	.sleb128	1
	.dw	0,0
	.dw	0,0
	.dw	0,(Sstm8_hd44780$lcd_bus_outputs$216)
	.dw	0,(Sstm8_hd44780$lcd_bus_outputs$219)
	.dw	2
	.db	120
	.sleb128	1
	.dw	0,(Sstm8_hd44780$lcd_bus_outputs$215)
	.dw	0,(Sstm8_hd44780$lcd_bus_outputs$216)
	.dw	2
	.db	120
	.sleb128	5
	.dw	0,(Sstm8_hd44780$lcd_bus_outputs$214)
	.dw	0,(Sstm8_hd44780$lcd_bus_outputs$215)
	.dw	2
	.db	120
	.sleb128	4
	.dw	0,(Sstm8_hd44780$lcd_bus_outputs$213)
	.dw	0,(Sstm8_hd44780$lcd_bus_outputs$214)
	.dw	2
	.db	120
	.sleb128	3
	.dw	0,(Sstm8_hd44780$lcd_bus_outputs$212)
	.dw	0,(Sstm8_hd44780$lcd_bus_outputs$213)
	.dw	2
	.db	120
	.sleb128	2
	.dw	0,(Sstm8_hd44780$lcd_bus_outputs$210)
	.dw	0,(Sstm8_hd44780$lcd_bus_outputs$212)
	.dw	2
	.db	120
	.sleb128	1
	.dw	0,(Sstm8_hd44780$lcd_bus_outputs$209)
	.dw	0,(Sstm8_hd44780$lcd_bus_outputs$210)
	.dw	2
	.db	120
	.sleb128	5
	.dw	0,(Sstm8_hd44780$lcd_bus_outputs$208)
	.dw	0,(Sstm8_hd44780$lcd_bus_outputs$209)
	.dw	2
	.db	120
	.sleb128	4
	.dw	0,(Sstm8_hd44780$lcd_bus_outputs$207)
	.dw	0,(Sstm8_hd44780$lcd_bus_outputs$208)
	.dw	2
	.db	120
	.sleb128	3
	.dw	0,(Sstm8_hd44780$lcd_bus_outputs$206)
	.dw	0,(Sstm8_hd44780$lcd_bus_outputs$207)
	.dw	2
	.db	120
	.sleb128	2
	.dw	0,(Sstm8_hd44780$lcd_bus_outputs$204)
	.dw	0,(Sstm8_hd44780$lcd_bus_outputs$206)
	.dw	2
	.db	120
	.sleb128	1
	.dw	0,(Sstm8_hd44780$lcd_bus_outputs$203)
	.dw	0,(Sstm8_hd44780$lcd_bus_outputs$204)
	.dw	2
	.db	120
	.sleb128	5
	.dw	0,(Sstm8_hd44780$lcd_bus_outputs$202)
	.dw	0,(Sstm8_hd44780$lcd_bus_outputs$203)
	.dw	2
	.db	120
	.sleb128	4
	.dw	0,(Sstm8_hd44780$lcd_bus_outputs$201)
	.dw	0,(Sstm8_hd44780$lcd_bus_outputs$202)
	.dw	2
	.db	120
	.sleb128	3
	.dw	0,(Sstm8_hd44780$lcd_bus_outputs$200)
	.dw	0,(Sstm8_hd44780$lcd_bus_outputs$201)
	.dw	2
	.db	120
	.sleb128	2
	.dw	0,(Sstm8_hd44780$lcd_bus_outputs$198)
	.dw	0,(Sstm8_hd44780$lcd_bus_outputs$200)
	.dw	2
	.db	120
	.sleb128	1
	.dw	0,(Sstm8_hd44780$lcd_bus_outputs$197)
	.dw	0,(Sstm8_hd44780$lcd_bus_outputs$198)
	.dw	2
	.db	120
	.sleb128	5
	.dw	0,(Sstm8_hd44780$lcd_bus_outputs$196)
	.dw	0,(Sstm8_hd44780$lcd_bus_outputs$197)
	.dw	2
	.db	120
	.sleb128	4
	.dw	0,(Sstm8_hd44780$lcd_bus_outputs$195)
	.dw	0,(Sstm8_hd44780$lcd_bus_outputs$196)
	.dw	2
	.db	120
	.sleb128	3
	.dw	0,(Sstm8_hd44780$lcd_bus_outputs$194)
	.dw	0,(Sstm8_hd44780$lcd_bus_outputs$195)
	.dw	2
	.db	120
	.sleb128	2
	.dw	0,(Sstm8_hd44780$lcd_bus_outputs$192)
	.dw	0,(Sstm8_hd44780$lcd_bus_outputs$194)
	.dw	2
	.db	120
	.sleb128	1
	.dw	0,0
	.dw	0,0
	.dw	0,(Sstm8_hd44780$lcd_init_hw$186)
	.dw	0,(Sstm8_hd44780$lcd_init_hw$190)
	.dw	2
	.db	120
	.sleb128	1
	.dw	0,(Sstm8_hd44780$lcd_init_hw$185)
	.dw	0,(Sstm8_hd44780$lcd_init_hw$186)
	.dw	2
	.db	120
	.sleb128	5
	.dw	0,(Sstm8_hd44780$lcd_init_hw$184)
	.dw	0,(Sstm8_hd44780$lcd_init_hw$185)
	.dw	2
	.db	120
	.sleb128	4
	.dw	0,(Sstm8_hd44780$lcd_init_hw$183)
	.dw	0,(Sstm8_hd44780$lcd_init_hw$184)
	.dw	2
	.db	120
	.sleb128	3
	.dw	0,(Sstm8_hd44780$lcd_init_hw$182)
	.dw	0,(Sstm8_hd44780$lcd_init_hw$183)
	.dw	2
	.db	120
	.sleb128	2
	.dw	0,(Sstm8_hd44780$lcd_init_hw$180)
	.dw	0,(Sstm8_hd44780$lcd_init_hw$182)
	.dw	2
	.db	120
	.sleb128	1
	.dw	0,(Sstm8_hd44780$lcd_init_hw$179)
	.dw	0,(Sstm8_hd44780$lcd_init_hw$180)
	.dw	2
	.db	120
	.sleb128	5
	.dw	0,(Sstm8_hd44780$lcd_init_hw$178)
	.dw	0,(Sstm8_hd44780$lcd_init_hw$179)
	.dw	2
	.db	120
	.sleb128	4
	.dw	0,(Sstm8_hd44780$lcd_init_hw$177)
	.dw	0,(Sstm8_hd44780$lcd_init_hw$178)
	.dw	2
	.db	120
	.sleb128	3
	.dw	0,(Sstm8_hd44780$lcd_init_hw$176)
	.dw	0,(Sstm8_hd44780$lcd_init_hw$177)
	.dw	2
	.db	120
	.sleb128	2
	.dw	0,(Sstm8_hd44780$lcd_init_hw$174)
	.dw	0,(Sstm8_hd44780$lcd_init_hw$176)
	.dw	2
	.db	120
	.sleb128	1
	.dw	0,(Sstm8_hd44780$lcd_init_hw$173)
	.dw	0,(Sstm8_hd44780$lcd_init_hw$174)
	.dw	2
	.db	120
	.sleb128	5
	.dw	0,(Sstm8_hd44780$lcd_init_hw$172)
	.dw	0,(Sstm8_hd44780$lcd_init_hw$173)
	.dw	2
	.db	120
	.sleb128	4
	.dw	0,(Sstm8_hd44780$lcd_init_hw$171)
	.dw	0,(Sstm8_hd44780$lcd_init_hw$172)
	.dw	2
	.db	120
	.sleb128	3
	.dw	0,(Sstm8_hd44780$lcd_init_hw$170)
	.dw	0,(Sstm8_hd44780$lcd_init_hw$171)
	.dw	2
	.db	120
	.sleb128	2
	.dw	0,(Sstm8_hd44780$lcd_init_hw$168)
	.dw	0,(Sstm8_hd44780$lcd_init_hw$170)
	.dw	2
	.db	120
	.sleb128	1
	.dw	0,0
	.dw	0,0
	.dw	0,(Sstm8_hd44780$lcd_gotoxy$163)
	.dw	0,(Sstm8_hd44780$lcd_gotoxy$166)
	.dw	2
	.db	120
	.sleb128	1
	.dw	0,(Sstm8_hd44780$lcd_gotoxy$162)
	.dw	0,(Sstm8_hd44780$lcd_gotoxy$163)
	.dw	2
	.db	120
	.sleb128	2
	.dw	0,(Sstm8_hd44780$lcd_gotoxy$157)
	.dw	0,(Sstm8_hd44780$lcd_gotoxy$162)
	.dw	2
	.db	120
	.sleb128	1
	.dw	0,(Sstm8_hd44780$lcd_gotoxy$148)
	.dw	0,(Sstm8_hd44780$lcd_gotoxy$157)
	.dw	2
	.db	120
	.sleb128	1
	.dw	0,0
	.dw	0,0
	.dw	0,(Sstm8_hd44780$lcd_init$143)
	.dw	0,(Sstm8_hd44780$lcd_init$146)
	.dw	2
	.db	120
	.sleb128	1
	.dw	0,(Sstm8_hd44780$lcd_init$142)
	.dw	0,(Sstm8_hd44780$lcd_init$143)
	.dw	2
	.db	120
	.sleb128	2
	.dw	0,(Sstm8_hd44780$lcd_init$140)
	.dw	0,(Sstm8_hd44780$lcd_init$142)
	.dw	2
	.db	120
	.sleb128	1
	.dw	0,(Sstm8_hd44780$lcd_init$139)
	.dw	0,(Sstm8_hd44780$lcd_init$140)
	.dw	2
	.db	120
	.sleb128	2
	.dw	0,(Sstm8_hd44780$lcd_init$137)
	.dw	0,(Sstm8_hd44780$lcd_init$139)
	.dw	2
	.db	120
	.sleb128	1
	.dw	0,(Sstm8_hd44780$lcd_init$136)
	.dw	0,(Sstm8_hd44780$lcd_init$137)
	.dw	2
	.db	120
	.sleb128	2
	.dw	0,(Sstm8_hd44780$lcd_init$134)
	.dw	0,(Sstm8_hd44780$lcd_init$136)
	.dw	2
	.db	120
	.sleb128	1
	.dw	0,(Sstm8_hd44780$lcd_init$133)
	.dw	0,(Sstm8_hd44780$lcd_init$134)
	.dw	2
	.db	120
	.sleb128	2
	.dw	0,(Sstm8_hd44780$lcd_init$131)
	.dw	0,(Sstm8_hd44780$lcd_init$133)
	.dw	2
	.db	120
	.sleb128	1
	.dw	0,(Sstm8_hd44780$lcd_init$130)
	.dw	0,(Sstm8_hd44780$lcd_init$131)
	.dw	2
	.db	120
	.sleb128	2
	.dw	0,(Sstm8_hd44780$lcd_init$128)
	.dw	0,(Sstm8_hd44780$lcd_init$130)
	.dw	2
	.db	120
	.sleb128	1
	.dw	0,(Sstm8_hd44780$lcd_init$127)
	.dw	0,(Sstm8_hd44780$lcd_init$128)
	.dw	2
	.db	120
	.sleb128	2
	.dw	0,(Sstm8_hd44780$lcd_init$117)
	.dw	0,(Sstm8_hd44780$lcd_init$127)
	.dw	2
	.db	120
	.sleb128	1
	.dw	0,(Sstm8_hd44780$lcd_init$116)
	.dw	0,(Sstm8_hd44780$lcd_init$117)
	.dw	2
	.db	120
	.sleb128	2
	.dw	0,(Sstm8_hd44780$lcd_init$113)
	.dw	0,(Sstm8_hd44780$lcd_init$116)
	.dw	2
	.db	120
	.sleb128	1
	.dw	0,(Sstm8_hd44780$lcd_init$112)
	.dw	0,(Sstm8_hd44780$lcd_init$113)
	.dw	2
	.db	120
	.sleb128	2
	.dw	0,(Sstm8_hd44780$lcd_init$102)
	.dw	0,(Sstm8_hd44780$lcd_init$112)
	.dw	2
	.db	120
	.sleb128	1
	.dw	0,(Sstm8_hd44780$lcd_init$101)
	.dw	0,(Sstm8_hd44780$lcd_init$102)
	.dw	2
	.db	120
	.sleb128	2
	.dw	0,(Sstm8_hd44780$lcd_init$91)
	.dw	0,(Sstm8_hd44780$lcd_init$101)
	.dw	2
	.db	120
	.sleb128	1
	.dw	0,(Sstm8_hd44780$lcd_init$90)
	.dw	0,(Sstm8_hd44780$lcd_init$91)
	.dw	2
	.db	120
	.sleb128	2
	.dw	0,(Sstm8_hd44780$lcd_init$79)
	.dw	0,(Sstm8_hd44780$lcd_init$90)
	.dw	2
	.db	120
	.sleb128	1
	.dw	0,0
	.dw	0,0
	.dw	0,(Sstm8_hd44780$lcd_puts$72)
	.dw	0,(Sstm8_hd44780$lcd_puts$77)
	.dw	2
	.db	120
	.sleb128	1
	.dw	0,(Sstm8_hd44780$lcd_puts$71)
	.dw	0,(Sstm8_hd44780$lcd_puts$72)
	.dw	2
	.db	120
	.sleb128	3
	.dw	0,(Sstm8_hd44780$lcd_puts$70)
	.dw	0,(Sstm8_hd44780$lcd_puts$71)
	.dw	2
	.db	120
	.sleb128	4
	.dw	0,(Sstm8_hd44780$lcd_puts$69)
	.dw	0,(Sstm8_hd44780$lcd_puts$70)
	.dw	2
	.db	120
	.sleb128	3
	.dw	0,(Sstm8_hd44780$lcd_puts$65)
	.dw	0,(Sstm8_hd44780$lcd_puts$69)
	.dw	2
	.db	120
	.sleb128	1
	.dw	0,0
	.dw	0,0
	.dw	0,(Sstm8_hd44780$lcd_store_symbol$61)
	.dw	0,(Sstm8_hd44780$lcd_store_symbol$63)
	.dw	2
	.db	120
	.sleb128	1
	.dw	0,(Sstm8_hd44780$lcd_store_symbol$59)
	.dw	0,(Sstm8_hd44780$lcd_store_symbol$61)
	.dw	2
	.db	120
	.sleb128	2
	.dw	0,(Sstm8_hd44780$lcd_store_symbol$58)
	.dw	0,(Sstm8_hd44780$lcd_store_symbol$59)
	.dw	2
	.db	120
	.sleb128	3
	.dw	0,(Sstm8_hd44780$lcd_store_symbol$54)
	.dw	0,(Sstm8_hd44780$lcd_store_symbol$58)
	.dw	2
	.db	120
	.sleb128	2
	.dw	0,(Sstm8_hd44780$lcd_store_symbol$53)
	.dw	0,(Sstm8_hd44780$lcd_store_symbol$54)
	.dw	2
	.db	120
	.sleb128	3
	.dw	0,(Sstm8_hd44780$lcd_store_symbol$49)
	.dw	0,(Sstm8_hd44780$lcd_store_symbol$53)
	.dw	2
	.db	120
	.sleb128	2
	.dw	0,(Sstm8_hd44780$lcd_store_symbol$48)
	.dw	0,(Sstm8_hd44780$lcd_store_symbol$49)
	.dw	2
	.db	120
	.sleb128	3
	.dw	0,(Sstm8_hd44780$lcd_store_symbol$45)
	.dw	0,(Sstm8_hd44780$lcd_store_symbol$48)
	.dw	2
	.db	120
	.sleb128	2
	.dw	0,(Sstm8_hd44780$lcd_store_symbol$44)
	.dw	0,(Sstm8_hd44780$lcd_store_symbol$45)
	.dw	2
	.db	120
	.sleb128	1
	.dw	0,0
	.dw	0,0
	.dw	0,(Sstm8_hd44780$_delay_us$29)
	.dw	0,(Sstm8_hd44780$_delay_us$42)
	.dw	2
	.db	120
	.sleb128	1
	.dw	0,(Sstm8_hd44780$_delay_us$28)
	.dw	0,(Sstm8_hd44780$_delay_us$29)
	.dw	2
	.db	120
	.sleb128	9
	.dw	0,(Sstm8_hd44780$_delay_us$27)
	.dw	0,(Sstm8_hd44780$_delay_us$28)
	.dw	2
	.db	120
	.sleb128	7
	.dw	0,(Sstm8_hd44780$_delay_us$26)
	.dw	0,(Sstm8_hd44780$_delay_us$27)
	.dw	2
	.db	120
	.sleb128	5
	.dw	0,(Sstm8_hd44780$_delay_us$25)
	.dw	0,(Sstm8_hd44780$_delay_us$26)
	.dw	2
	.db	120
	.sleb128	4
	.dw	0,(Sstm8_hd44780$_delay_us$24)
	.dw	0,(Sstm8_hd44780$_delay_us$25)
	.dw	2
	.db	120
	.sleb128	3
	.dw	0,(Sstm8_hd44780$_delay_us$23)
	.dw	0,(Sstm8_hd44780$_delay_us$24)
	.dw	2
	.db	120
	.sleb128	2
	.dw	0,(Sstm8_hd44780$_delay_us$21)
	.dw	0,(Sstm8_hd44780$_delay_us$23)
	.dw	2
	.db	120
	.sleb128	1
	.dw	0,(Sstm8_hd44780$_delay_us$20)
	.dw	0,(Sstm8_hd44780$_delay_us$21)
	.dw	2
	.db	120
	.sleb128	9
	.dw	0,(Sstm8_hd44780$_delay_us$19)
	.dw	0,(Sstm8_hd44780$_delay_us$20)
	.dw	2
	.db	120
	.sleb128	8
	.dw	0,(Sstm8_hd44780$_delay_us$18)
	.dw	0,(Sstm8_hd44780$_delay_us$19)
	.dw	2
	.db	120
	.sleb128	7
	.dw	0,(Sstm8_hd44780$_delay_us$17)
	.dw	0,(Sstm8_hd44780$_delay_us$18)
	.dw	2
	.db	120
	.sleb128	6
	.dw	0,(Sstm8_hd44780$_delay_us$16)
	.dw	0,(Sstm8_hd44780$_delay_us$17)
	.dw	2
	.db	120
	.sleb128	5
	.dw	0,(Sstm8_hd44780$_delay_us$15)
	.dw	0,(Sstm8_hd44780$_delay_us$16)
	.dw	2
	.db	120
	.sleb128	3
	.dw	0,(Sstm8_hd44780$_delay_us$13)
	.dw	0,(Sstm8_hd44780$_delay_us$15)
	.dw	2
	.db	120
	.sleb128	1
	.dw	0,0
	.dw	0,0
	.dw	0,(Sstm8_hd44780$_delay_cycl$1)
	.dw	0,(Sstm8_hd44780$_delay_cycl$11)
	.dw	2
	.db	120
	.sleb128	1
	.dw	0,0
	.dw	0,0

	.area .debug_abbrev (NOLOAD)
Ldebug_abbrev:
	.uleb128	11
	.uleb128	15
	.db	0
	.uleb128	11
	.uleb128	11
	.uleb128	73
	.uleb128	19
	.uleb128	0
	.uleb128	0
	.uleb128	13
	.uleb128	11
	.db	1
	.uleb128	0
	.uleb128	0
	.uleb128	16
	.uleb128	46
	.db	1
	.uleb128	3
	.uleb128	8
	.uleb128	17
	.uleb128	1
	.uleb128	18
	.uleb128	1
	.uleb128	63
	.uleb128	12
	.uleb128	64
	.uleb128	6
	.uleb128	73
	.uleb128	19
	.uleb128	0
	.uleb128	0
	.uleb128	3
	.uleb128	5
	.db	0
	.uleb128	2
	.uleb128	10
	.uleb128	3
	.uleb128	8
	.uleb128	73
	.uleb128	19
	.uleb128	0
	.uleb128	0
	.uleb128	2
	.uleb128	46
	.db	1
	.uleb128	1
	.uleb128	19
	.uleb128	3
	.uleb128	8
	.uleb128	17
	.uleb128	1
	.uleb128	18
	.uleb128	1
	.uleb128	63
	.uleb128	12
	.uleb128	64
	.uleb128	6
	.uleb128	0
	.uleb128	0
	.uleb128	10
	.uleb128	52
	.db	0
	.uleb128	2
	.uleb128	10
	.uleb128	3
	.uleb128	8
	.uleb128	73
	.uleb128	19
	.uleb128	0
	.uleb128	0
	.uleb128	15
	.uleb128	46
	.db	1
	.uleb128	1
	.uleb128	19
	.uleb128	3
	.uleb128	8
	.uleb128	17
	.uleb128	1
	.uleb128	18
	.uleb128	1
	.uleb128	63
	.uleb128	12
	.uleb128	64
	.uleb128	6
	.uleb128	73
	.uleb128	19
	.uleb128	0
	.uleb128	0
	.uleb128	12
	.uleb128	11
	.db	1
	.uleb128	1
	.uleb128	19
	.uleb128	0
	.uleb128	0
	.uleb128	6
	.uleb128	38
	.db	0
	.uleb128	73
	.uleb128	19
	.uleb128	0
	.uleb128	0
	.uleb128	1
	.uleb128	17
	.db	1
	.uleb128	3
	.uleb128	8
	.uleb128	16
	.uleb128	6
	.uleb128	19
	.uleb128	11
	.uleb128	37
	.uleb128	8
	.uleb128	0
	.uleb128	0
	.uleb128	4
	.uleb128	11
	.db	0
	.uleb128	17
	.uleb128	1
	.uleb128	18
	.uleb128	1
	.uleb128	0
	.uleb128	0
	.uleb128	7
	.uleb128	11
	.db	1
	.uleb128	17
	.uleb128	1
	.uleb128	18
	.uleb128	1
	.uleb128	0
	.uleb128	0
	.uleb128	8
	.uleb128	11
	.db	1
	.uleb128	1
	.uleb128	19
	.uleb128	17
	.uleb128	1
	.uleb128	0
	.uleb128	0
	.uleb128	14
	.uleb128	46
	.db	0
	.uleb128	3
	.uleb128	8
	.uleb128	17
	.uleb128	1
	.uleb128	18
	.uleb128	1
	.uleb128	63
	.uleb128	12
	.uleb128	64
	.uleb128	6
	.uleb128	0
	.uleb128	0
	.uleb128	9
	.uleb128	11
	.db	1
	.uleb128	1
	.uleb128	19
	.uleb128	17
	.uleb128	1
	.uleb128	18
	.uleb128	1
	.uleb128	0
	.uleb128	0
	.uleb128	5
	.uleb128	36
	.db	0
	.uleb128	3
	.uleb128	8
	.uleb128	11
	.uleb128	11
	.uleb128	62
	.uleb128	11
	.uleb128	0
	.uleb128	0
	.uleb128	0

	.area .debug_info (NOLOAD)
	.dw	0,Ldebug_info_end-Ldebug_info_start
Ldebug_info_start:
	.dw	2
	.dw	0,(Ldebug_abbrev)
	.db	4
	.uleb128	1
	.ascii "./src/stm8_hd44780.c"
	.db	0
	.dw	0,(Ldebug_line_start+-4)
	.db	1
	.ascii "SDCC version 4.1.0 #12072"
	.db	0
	.uleb128	2
	.dw	0,120
	.ascii "_delay_cycl"
	.db	0
	.dw	0,(__delay_cycl)
	.dw	0,(XFstm8_hd44780$_delay_cycl$0$0+1)
	.db	0
	.dw	0,(Ldebug_loc_start+3636)
	.uleb128	3
	.db	2
	.db	145
	.sleb128	2
	.ascii "__ticks"
	.db	0
	.dw	0,120
	.uleb128	4
	.dw	0,(Sstm8_hd44780$_delay_cycl$4)
	.dw	0,(Sstm8_hd44780$_delay_cycl$6)
	.uleb128	0
	.uleb128	5
	.ascii "unsigned int"
	.db	0
	.db	2
	.db	7
	.uleb128	2
	.dw	0,271
	.ascii "_delay_us"
	.db	0
	.dw	0,(__delay_us)
	.dw	0,(XFstm8_hd44780$_delay_us$0$0+1)
	.db	0
	.dw	0,(Ldebug_loc_start+3448)
	.uleb128	6
	.dw	0,120
	.uleb128	3
	.db	2
	.db	145
	.sleb128	2
	.ascii "__us"
	.db	0
	.dw	0,164
	.uleb128	7
	.dw	0,(Sstm8_hd44780$_delay_us$14)
	.dw	0,(Sstm8_hd44780$_delay_us$31)
	.uleb128	8
	.dw	0,244
	.dw	0,(Sstm8_hd44780$_delay_us$32)
	.uleb128	9
	.dw	0,223
	.dw	0,(Sstm8_hd44780$_delay_us$33)
	.dw	0,(Sstm8_hd44780$_delay_us$38)
	.uleb128	4
	.dw	0,(Sstm8_hd44780$_delay_us$36)
	.dw	0,(Sstm8_hd44780$_delay_us$37)
	.uleb128	0
	.uleb128	10
	.db	6
	.db	82
	.db	147
	.uleb128	1
	.db	81
	.db	147
	.uleb128	1
	.ascii "__ticks"
	.db	0
	.dw	0,120
	.uleb128	0
	.uleb128	10
	.db	6
	.db	82
	.db	147
	.uleb128	1
	.db	81
	.db	147
	.uleb128	1
	.ascii "__1310720010"
	.db	0
	.dw	0,120
	.uleb128	0
	.uleb128	0
	.uleb128	2
	.dw	0,360
	.ascii "lcd_store_symbol"
	.db	0
	.dw	0,(_lcd_store_symbol)
	.dw	0,(XG$lcd_store_symbol$0$0+1)
	.db	1
	.dw	0,(Ldebug_loc_start+3332)
	.uleb128	3
	.db	2
	.db	145
	.sleb128	2
	.ascii "pos"
	.db	0
	.dw	0,360
	.uleb128	11
	.db	2
	.dw	0,360
	.uleb128	3
	.db	2
	.db	145
	.sleb128	3
	.ascii "charmap"
	.db	0
	.dw	0,318
	.uleb128	4
	.dw	0,(Sstm8_hd44780$lcd_store_symbol$51)
	.dw	0,(Sstm8_hd44780$lcd_store_symbol$55)
	.uleb128	10
	.db	2
	.db	145
	.sleb128	0
	.ascii "i"
	.db	0
	.dw	0,360
	.uleb128	0
	.uleb128	5
	.ascii "unsigned char"
	.db	0
	.db	1
	.db	8
	.uleb128	2
	.dw	0,427
	.ascii "lcd_puts"
	.db	0
	.dw	0,(_lcd_puts)
	.dw	0,(XG$lcd_puts$0$0+1)
	.db	1
	.dw	0,(Ldebug_loc_start+3264)
	.uleb128	3
	.db	2
	.db	145
	.sleb128	2
	.ascii "text"
	.db	0
	.dw	0,318
	.uleb128	4
	.dw	0,(Sstm8_hd44780$lcd_puts$67)
	.dw	0,(Sstm8_hd44780$lcd_puts$74)
	.uleb128	0
	.uleb128	2
	.dw	0,963
	.ascii "lcd_init"
	.db	0
	.dw	0,(_lcd_init)
	.dw	0,(XG$lcd_init$0$0+1)
	.db	1
	.dw	0,(Ldebug_loc_start+3004)
	.uleb128	12
	.dw	0,582
	.uleb128	12
	.dw	0,560
	.uleb128	12
	.dw	0,546
	.uleb128	13
	.uleb128	8
	.dw	0,523
	.dw	0,(Sstm8_hd44780$lcd_init$82)
	.uleb128	9
	.dw	0,502
	.dw	0,(Sstm8_hd44780$lcd_init$83)
	.dw	0,(Sstm8_hd44780$lcd_init$88)
	.uleb128	4
	.dw	0,(Sstm8_hd44780$lcd_init$86)
	.dw	0,(Sstm8_hd44780$lcd_init$87)
	.uleb128	0
	.uleb128	10
	.db	6
	.db	82
	.db	147
	.uleb128	1
	.db	81
	.db	147
	.uleb128	1
	.ascii "__ticks"
	.db	0
	.dw	0,120
	.uleb128	0
	.uleb128	10
	.db	2
	.db	145
	.sleb128	0
	.ascii "__1310720010"
	.db	0
	.dw	0,120
	.uleb128	0
	.uleb128	0
	.uleb128	10
	.db	2
	.db	145
	.sleb128	0
	.ascii "__us"
	.db	0
	.dw	0,164
	.uleb128	0
	.uleb128	10
	.db	2
	.db	145
	.sleb128	0
	.ascii "__1310720012"
	.db	0
	.dw	0,164
	.uleb128	0
	.uleb128	12
	.dw	0,710
	.uleb128	12
	.dw	0,688
	.uleb128	12
	.dw	0,674
	.uleb128	13
	.uleb128	8
	.dw	0,651
	.dw	0,(Sstm8_hd44780$lcd_init$93)
	.uleb128	9
	.dw	0,630
	.dw	0,(Sstm8_hd44780$lcd_init$94)
	.dw	0,(Sstm8_hd44780$lcd_init$99)
	.uleb128	4
	.dw	0,(Sstm8_hd44780$lcd_init$97)
	.dw	0,(Sstm8_hd44780$lcd_init$98)
	.uleb128	0
	.uleb128	10
	.db	6
	.db	82
	.db	147
	.uleb128	1
	.db	81
	.db	147
	.uleb128	1
	.ascii "__ticks"
	.db	0
	.dw	0,120
	.uleb128	0
	.uleb128	10
	.db	2
	.db	145
	.sleb128	0
	.ascii "__1310720010"
	.db	0
	.dw	0,120
	.uleb128	0
	.uleb128	0
	.uleb128	10
	.db	2
	.db	145
	.sleb128	0
	.ascii "__us"
	.db	0
	.dw	0,164
	.uleb128	0
	.uleb128	10
	.db	2
	.db	145
	.sleb128	0
	.ascii "__1310720014"
	.db	0
	.dw	0,164
	.uleb128	0
	.uleb128	12
	.dw	0,838
	.uleb128	12
	.dw	0,816
	.uleb128	12
	.dw	0,802
	.uleb128	13
	.uleb128	8
	.dw	0,779
	.dw	0,(Sstm8_hd44780$lcd_init$104)
	.uleb128	9
	.dw	0,758
	.dw	0,(Sstm8_hd44780$lcd_init$105)
	.dw	0,(Sstm8_hd44780$lcd_init$110)
	.uleb128	4
	.dw	0,(Sstm8_hd44780$lcd_init$108)
	.dw	0,(Sstm8_hd44780$lcd_init$109)
	.uleb128	0
	.uleb128	10
	.db	6
	.db	82
	.db	147
	.uleb128	1
	.db	81
	.db	147
	.uleb128	1
	.ascii "__ticks"
	.db	0
	.dw	0,120
	.uleb128	0
	.uleb128	10
	.db	2
	.db	145
	.sleb128	0
	.ascii "__1310720010"
	.db	0
	.dw	0,120
	.uleb128	0
	.uleb128	0
	.uleb128	10
	.db	2
	.db	145
	.sleb128	0
	.ascii "__us"
	.db	0
	.dw	0,164
	.uleb128	0
	.uleb128	10
	.db	2
	.db	145
	.sleb128	0
	.ascii "__1310720016"
	.db	0
	.dw	0,164
	.uleb128	0
	.uleb128	13
	.uleb128	12
	.dw	0,940
	.uleb128	12
	.dw	0,926
	.uleb128	13
	.uleb128	8
	.dw	0,903
	.dw	0,(Sstm8_hd44780$lcd_init$119)
	.uleb128	9
	.dw	0,882
	.dw	0,(Sstm8_hd44780$lcd_init$120)
	.dw	0,(Sstm8_hd44780$lcd_init$125)
	.uleb128	4
	.dw	0,(Sstm8_hd44780$lcd_init$123)
	.dw	0,(Sstm8_hd44780$lcd_init$124)
	.uleb128	0
	.uleb128	10
	.db	6
	.db	82
	.db	147
	.uleb128	1
	.db	81
	.db	147
	.uleb128	1
	.ascii "__ticks"
	.db	0
	.dw	0,120
	.uleb128	0
	.uleb128	10
	.db	2
	.db	145
	.sleb128	0
	.ascii "__1310720010"
	.db	0
	.dw	0,120
	.uleb128	0
	.uleb128	0
	.uleb128	10
	.db	2
	.db	145
	.sleb128	0
	.ascii "__us"
	.db	0
	.dw	0,164
	.uleb128	0
	.uleb128	10
	.db	2
	.db	145
	.sleb128	0
	.ascii "__1310720018"
	.db	0
	.dw	0,164
	.uleb128	0
	.uleb128	0
	.uleb128	2
	.dw	0,1059
	.ascii "lcd_gotoxy"
	.db	0
	.dw	0,(_lcd_gotoxy)
	.dw	0,(XG$lcd_gotoxy$0$0+1)
	.db	1
	.dw	0,(Ldebug_loc_start+2948)
	.uleb128	3
	.db	2
	.db	145
	.sleb128	2
	.ascii "column"
	.db	0
	.dw	0,360
	.uleb128	3
	.db	2
	.db	145
	.sleb128	3
	.ascii "line"
	.db	0
	.dw	0,360
	.uleb128	4
	.dw	0,(Sstm8_hd44780$lcd_gotoxy$151)
	.dw	0,(Sstm8_hd44780$lcd_gotoxy$152)
	.uleb128	4
	.dw	0,(Sstm8_hd44780$lcd_gotoxy$154)
	.dw	0,(Sstm8_hd44780$lcd_gotoxy$155)
	.uleb128	4
	.dw	0,(Sstm8_hd44780$lcd_gotoxy$158)
	.dw	0,(Sstm8_hd44780$lcd_gotoxy$159)
	.uleb128	10
	.db	1
	.db	80
	.ascii "tmp"
	.db	0
	.dw	0,360
	.uleb128	0
	.uleb128	14
	.ascii "lcd_init_hw"
	.db	0
	.dw	0,(_lcd_init_hw)
	.dw	0,(XG$lcd_init_hw$0$0+1)
	.db	1
	.dw	0,(Ldebug_loc_start+2748)
	.uleb128	14
	.ascii "lcd_bus_outputs"
	.db	0
	.dw	0,(_lcd_bus_outputs)
	.dw	0,(XG$lcd_bus_outputs$0$0+1)
	.db	1
	.dw	0,(Ldebug_loc_start+2488)
	.uleb128	14
	.ascii "lcd_bus_inputs"
	.db	0
	.dw	0,(_lcd_bus_inputs)
	.dw	0,(XG$lcd_bus_inputs$0$0+1)
	.db	1
	.dw	0,(Ldebug_loc_start+2228)
	.uleb128	14
	.ascii "lcd_deinit_hw"
	.db	0
	.dw	0,(_lcd_deinit_hw)
	.dw	0,(XG$lcd_deinit_hw$0$0+1)
	.db	1
	.dw	0,(Ldebug_loc_start+1788)
	.uleb128	2
	.dw	0,1288
	.ascii "lcd_bus_set"
	.db	0
	.dw	0,(_lcd_bus_set)
	.dw	0,(XG$lcd_bus_set$0$0+1)
	.db	1
	.dw	0,(Ldebug_loc_start+1384)
	.uleb128	3
	.db	2
	.db	145
	.sleb128	2
	.ascii "data"
	.db	0
	.dw	0,360
	.uleb128	4
	.dw	0,(Sstm8_hd44780$lcd_bus_set$299)
	.dw	0,(Sstm8_hd44780$lcd_bus_set$304)
	.uleb128	4
	.dw	0,(Sstm8_hd44780$lcd_bus_set$305)
	.dw	0,(Sstm8_hd44780$lcd_bus_set$310)
	.uleb128	4
	.dw	0,(Sstm8_hd44780$lcd_bus_set$312)
	.dw	0,(Sstm8_hd44780$lcd_bus_set$317)
	.uleb128	4
	.dw	0,(Sstm8_hd44780$lcd_bus_set$318)
	.dw	0,(Sstm8_hd44780$lcd_bus_set$323)
	.uleb128	4
	.dw	0,(Sstm8_hd44780$lcd_bus_set$325)
	.dw	0,(Sstm8_hd44780$lcd_bus_set$330)
	.uleb128	4
	.dw	0,(Sstm8_hd44780$lcd_bus_set$331)
	.dw	0,(Sstm8_hd44780$lcd_bus_set$336)
	.uleb128	4
	.dw	0,(Sstm8_hd44780$lcd_bus_set$338)
	.dw	0,(Sstm8_hd44780$lcd_bus_set$343)
	.uleb128	4
	.dw	0,(Sstm8_hd44780$lcd_bus_set$344)
	.dw	0,(Sstm8_hd44780$lcd_bus_set$349)
	.uleb128	0
	.uleb128	15
	.dw	0,1372
	.ascii "lcd_bus_read"
	.db	0
	.dw	0,(_lcd_bus_read)
	.dw	0,(XG$lcd_bus_read$0$0+1)
	.db	1
	.dw	0,(Ldebug_loc_start+1148)
	.dw	0,360
	.uleb128	4
	.dw	0,(Sstm8_hd44780$lcd_bus_read$362)
	.dw	0,(Sstm8_hd44780$lcd_bus_read$363)
	.uleb128	4
	.dw	0,(Sstm8_hd44780$lcd_bus_read$369)
	.dw	0,(Sstm8_hd44780$lcd_bus_read$370)
	.uleb128	4
	.dw	0,(Sstm8_hd44780$lcd_bus_read$376)
	.dw	0,(Sstm8_hd44780$lcd_bus_read$377)
	.uleb128	4
	.dw	0,(Sstm8_hd44780$lcd_bus_read$383)
	.dw	0,(Sstm8_hd44780$lcd_bus_read$384)
	.uleb128	10
	.db	2
	.db	145
	.sleb128	-1
	.ascii "tmp"
	.db	0
	.dw	0,360
	.uleb128	0
	.uleb128	2
	.dw	0,1654
	.ascii "lcd_e_tick"
	.db	0
	.dw	0,(_lcd_e_tick)
	.dw	0,(XG$lcd_e_tick$0$0+1)
	.db	1
	.dw	0,(Ldebug_loc_start+1032)
	.uleb128	12
	.dw	0,1529
	.uleb128	12
	.dw	0,1507
	.uleb128	12
	.dw	0,1493
	.uleb128	13
	.uleb128	8
	.dw	0,1470
	.dw	0,(Sstm8_hd44780$lcd_e_tick$397)
	.uleb128	9
	.dw	0,1449
	.dw	0,(Sstm8_hd44780$lcd_e_tick$398)
	.dw	0,(Sstm8_hd44780$lcd_e_tick$403)
	.uleb128	4
	.dw	0,(Sstm8_hd44780$lcd_e_tick$401)
	.dw	0,(Sstm8_hd44780$lcd_e_tick$402)
	.uleb128	0
	.uleb128	10
	.db	6
	.db	82
	.db	147
	.uleb128	1
	.db	81
	.db	147
	.uleb128	1
	.ascii "__ticks"
	.db	0
	.dw	0,120
	.uleb128	0
	.uleb128	10
	.db	2
	.db	145
	.sleb128	0
	.ascii "__1310720010"
	.db	0
	.dw	0,120
	.uleb128	0
	.uleb128	0
	.uleb128	10
	.db	2
	.db	145
	.sleb128	0
	.ascii "__us"
	.db	0
	.dw	0,164
	.uleb128	0
	.uleb128	10
	.db	2
	.db	145
	.sleb128	0
	.ascii "__1310720020"
	.db	0
	.dw	0,164
	.uleb128	0
	.uleb128	13
	.uleb128	12
	.dw	0,1631
	.uleb128	12
	.dw	0,1617
	.uleb128	13
	.uleb128	8
	.dw	0,1594
	.dw	0,(Sstm8_hd44780$lcd_e_tick$409)
	.uleb128	9
	.dw	0,1573
	.dw	0,(Sstm8_hd44780$lcd_e_tick$410)
	.dw	0,(Sstm8_hd44780$lcd_e_tick$415)
	.uleb128	4
	.dw	0,(Sstm8_hd44780$lcd_e_tick$413)
	.dw	0,(Sstm8_hd44780$lcd_e_tick$414)
	.uleb128	0
	.uleb128	10
	.db	6
	.db	82
	.db	147
	.uleb128	1
	.db	81
	.db	147
	.uleb128	1
	.ascii "__ticks"
	.db	0
	.dw	0,120
	.uleb128	0
	.uleb128	10
	.db	2
	.db	145
	.sleb128	0
	.ascii "__1310720010"
	.db	0
	.dw	0,120
	.uleb128	0
	.uleb128	0
	.uleb128	10
	.db	2
	.db	145
	.sleb128	0
	.ascii "__us"
	.db	0
	.dw	0,164
	.uleb128	0
	.uleb128	10
	.db	2
	.db	145
	.sleb128	0
	.ascii "__1310720022"
	.db	0
	.dw	0,164
	.uleb128	0
	.uleb128	0
	.uleb128	2
	.dw	0,1825
	.ascii "lcd_command"
	.db	0
	.dw	0,(_lcd_command)
	.dw	0,(XG$lcd_command$0$0+1)
	.db	1
	.dw	0,(Ldebug_loc_start+916)
	.uleb128	3
	.db	2
	.db	145
	.sleb128	2
	.ascii "command"
	.db	0
	.dw	0,360
	.uleb128	13
	.uleb128	12
	.dw	0,1802
	.uleb128	12
	.dw	0,1788
	.uleb128	13
	.uleb128	8
	.dw	0,1765
	.dw	0,(Sstm8_hd44780$lcd_command$427)
	.uleb128	9
	.dw	0,1744
	.dw	0,(Sstm8_hd44780$lcd_command$428)
	.dw	0,(Sstm8_hd44780$lcd_command$433)
	.uleb128	4
	.dw	0,(Sstm8_hd44780$lcd_command$431)
	.dw	0,(Sstm8_hd44780$lcd_command$432)
	.uleb128	0
	.uleb128	10
	.db	6
	.db	82
	.db	147
	.uleb128	1
	.db	81
	.db	147
	.uleb128	1
	.ascii "__ticks"
	.db	0
	.dw	0,120
	.uleb128	0
	.uleb128	10
	.db	2
	.db	145
	.sleb128	0
	.ascii "__1310720010"
	.db	0
	.dw	0,120
	.uleb128	0
	.uleb128	0
	.uleb128	10
	.db	2
	.db	145
	.sleb128	0
	.ascii "__us"
	.db	0
	.dw	0,164
	.uleb128	0
	.uleb128	10
	.db	2
	.db	145
	.sleb128	0
	.ascii "__1310720024"
	.db	0
	.dw	0,164
	.uleb128	0
	.uleb128	0
	.uleb128	2
	.dw	0,1990
	.ascii "lcd_data"
	.db	0
	.dw	0,(_lcd_data)
	.dw	0,(XG$lcd_data$0$0+1)
	.db	1
	.dw	0,(Ldebug_loc_start+800)
	.uleb128	3
	.db	2
	.db	145
	.sleb128	2
	.ascii "data"
	.db	0
	.dw	0,360
	.uleb128	13
	.uleb128	12
	.dw	0,1967
	.uleb128	12
	.dw	0,1953
	.uleb128	13
	.uleb128	8
	.dw	0,1930
	.dw	0,(Sstm8_hd44780$lcd_data$453)
	.uleb128	9
	.dw	0,1909
	.dw	0,(Sstm8_hd44780$lcd_data$454)
	.dw	0,(Sstm8_hd44780$lcd_data$459)
	.uleb128	4
	.dw	0,(Sstm8_hd44780$lcd_data$457)
	.dw	0,(Sstm8_hd44780$lcd_data$458)
	.uleb128	0
	.uleb128	10
	.db	6
	.db	82
	.db	147
	.uleb128	1
	.db	81
	.db	147
	.uleb128	1
	.ascii "__ticks"
	.db	0
	.dw	0,120
	.uleb128	0
	.uleb128	10
	.db	2
	.db	145
	.sleb128	0
	.ascii "__1310720010"
	.db	0
	.dw	0,120
	.uleb128	0
	.uleb128	0
	.uleb128	10
	.db	2
	.db	145
	.sleb128	0
	.ascii "__us"
	.db	0
	.dw	0,164
	.uleb128	0
	.uleb128	10
	.db	2
	.db	145
	.sleb128	0
	.ascii "__1310720026"
	.db	0
	.dw	0,164
	.uleb128	0
	.uleb128	0
	.uleb128	15
	.dw	0,2674
	.ascii "lcd_read"
	.db	0
	.dw	0,(_lcd_read)
	.dw	0,(XG$lcd_read$0$0+1)
	.db	1
	.dw	0,(Ldebug_loc_start+420)
	.dw	0,360
	.uleb128	12
	.dw	0,2149
	.uleb128	12
	.dw	0,2127
	.uleb128	12
	.dw	0,2113
	.uleb128	13
	.uleb128	8
	.dw	0,2090
	.dw	0,(Sstm8_hd44780$lcd_read$486)
	.uleb128	9
	.dw	0,2069
	.dw	0,(Sstm8_hd44780$lcd_read$487)
	.dw	0,(Sstm8_hd44780$lcd_read$492)
	.uleb128	4
	.dw	0,(Sstm8_hd44780$lcd_read$490)
	.dw	0,(Sstm8_hd44780$lcd_read$491)
	.uleb128	0
	.uleb128	10
	.db	6
	.db	82
	.db	147
	.uleb128	1
	.db	81
	.db	147
	.uleb128	1
	.ascii "__ticks"
	.db	0
	.dw	0,120
	.uleb128	0
	.uleb128	10
	.db	2
	.db	145
	.sleb128	0
	.ascii "__1310720010"
	.db	0
	.dw	0,120
	.uleb128	0
	.uleb128	0
	.uleb128	10
	.db	2
	.db	145
	.sleb128	0
	.ascii "__us"
	.db	0
	.dw	0,164
	.uleb128	0
	.uleb128	10
	.db	2
	.db	145
	.sleb128	0
	.ascii "__1310720028"
	.db	0
	.dw	0,164
	.uleb128	0
	.uleb128	12
	.dw	0,2277
	.uleb128	12
	.dw	0,2255
	.uleb128	12
	.dw	0,2241
	.uleb128	13
	.uleb128	8
	.dw	0,2218
	.dw	0,(Sstm8_hd44780$lcd_read$498)
	.uleb128	9
	.dw	0,2197
	.dw	0,(Sstm8_hd44780$lcd_read$499)
	.dw	0,(Sstm8_hd44780$lcd_read$504)
	.uleb128	4
	.dw	0,(Sstm8_hd44780$lcd_read$502)
	.dw	0,(Sstm8_hd44780$lcd_read$503)
	.uleb128	0
	.uleb128	10
	.db	6
	.db	82
	.db	147
	.uleb128	1
	.db	81
	.db	147
	.uleb128	1
	.ascii "__ticks"
	.db	0
	.dw	0,120
	.uleb128	0
	.uleb128	10
	.db	2
	.db	145
	.sleb128	0
	.ascii "__1310720010"
	.db	0
	.dw	0,120
	.uleb128	0
	.uleb128	0
	.uleb128	10
	.db	2
	.db	145
	.sleb128	0
	.ascii "__us"
	.db	0
	.dw	0,164
	.uleb128	0
	.uleb128	10
	.db	2
	.db	145
	.sleb128	0
	.ascii "__1310720030"
	.db	0
	.dw	0,164
	.uleb128	0
	.uleb128	12
	.dw	0,2405
	.uleb128	12
	.dw	0,2383
	.uleb128	12
	.dw	0,2369
	.uleb128	13
	.uleb128	8
	.dw	0,2346
	.dw	0,(Sstm8_hd44780$lcd_read$511)
	.uleb128	9
	.dw	0,2325
	.dw	0,(Sstm8_hd44780$lcd_read$512)
	.dw	0,(Sstm8_hd44780$lcd_read$517)
	.uleb128	4
	.dw	0,(Sstm8_hd44780$lcd_read$515)
	.dw	0,(Sstm8_hd44780$lcd_read$516)
	.uleb128	0
	.uleb128	10
	.db	6
	.db	82
	.db	147
	.uleb128	1
	.db	81
	.db	147
	.uleb128	1
	.ascii "__ticks"
	.db	0
	.dw	0,120
	.uleb128	0
	.uleb128	10
	.db	2
	.db	145
	.sleb128	0
	.ascii "__1310720010"
	.db	0
	.dw	0,120
	.uleb128	0
	.uleb128	0
	.uleb128	10
	.db	2
	.db	145
	.sleb128	0
	.ascii "__us"
	.db	0
	.dw	0,164
	.uleb128	0
	.uleb128	10
	.db	2
	.db	145
	.sleb128	0
	.ascii "__1310720032"
	.db	0
	.dw	0,164
	.uleb128	0
	.uleb128	12
	.dw	0,2533
	.uleb128	12
	.dw	0,2511
	.uleb128	12
	.dw	0,2497
	.uleb128	13
	.uleb128	8
	.dw	0,2474
	.dw	0,(Sstm8_hd44780$lcd_read$523)
	.uleb128	9
	.dw	0,2453
	.dw	0,(Sstm8_hd44780$lcd_read$524)
	.dw	0,(Sstm8_hd44780$lcd_read$529)
	.uleb128	4
	.dw	0,(Sstm8_hd44780$lcd_read$527)
	.dw	0,(Sstm8_hd44780$lcd_read$528)
	.uleb128	0
	.uleb128	10
	.db	6
	.db	82
	.db	147
	.uleb128	1
	.db	81
	.db	147
	.uleb128	1
	.ascii "__ticks"
	.db	0
	.dw	0,120
	.uleb128	0
	.uleb128	10
	.db	2
	.db	145
	.sleb128	0
	.ascii "__1310720010"
	.db	0
	.dw	0,120
	.uleb128	0
	.uleb128	0
	.uleb128	10
	.db	2
	.db	145
	.sleb128	0
	.ascii "__us"
	.db	0
	.dw	0,164
	.uleb128	0
	.uleb128	10
	.db	2
	.db	145
	.sleb128	0
	.ascii "__1310720034"
	.db	0
	.dw	0,164
	.uleb128	0
	.uleb128	12
	.dw	0,2661
	.uleb128	12
	.dw	0,2639
	.uleb128	12
	.dw	0,2625
	.uleb128	13
	.uleb128	8
	.dw	0,2602
	.dw	0,(Sstm8_hd44780$lcd_read$536)
	.uleb128	9
	.dw	0,2581
	.dw	0,(Sstm8_hd44780$lcd_read$537)
	.dw	0,(Sstm8_hd44780$lcd_read$542)
	.uleb128	4
	.dw	0,(Sstm8_hd44780$lcd_read$540)
	.dw	0,(Sstm8_hd44780$lcd_read$541)
	.uleb128	0
	.uleb128	10
	.db	6
	.db	82
	.db	147
	.uleb128	1
	.db	81
	.db	147
	.uleb128	1
	.ascii "__ticks"
	.db	0
	.dw	0,120
	.uleb128	0
	.uleb128	10
	.db	2
	.db	145
	.sleb128	0
	.ascii "__1310720010"
	.db	0
	.dw	0,120
	.uleb128	0
	.uleb128	0
	.uleb128	10
	.db	2
	.db	145
	.sleb128	0
	.ascii "__us"
	.db	0
	.dw	0,164
	.uleb128	0
	.uleb128	10
	.db	2
	.db	145
	.sleb128	0
	.ascii "__1310720036"
	.db	0
	.dw	0,164
	.uleb128	0
	.uleb128	10
	.db	2
	.db	145
	.sleb128	-1
	.ascii "tmp"
	.db	0
	.dw	0,360
	.uleb128	0
	.uleb128	14
	.ascii "lcd_bus_sleep"
	.db	0
	.dw	0,(_lcd_bus_sleep)
	.dw	0,(XG$lcd_bus_sleep$0$0+1)
	.db	1
	.dw	0,(Ldebug_loc_start+304)
	.uleb128	14
	.ascii "lcd_bus_wakeup"
	.db	0
	.dw	0,(_lcd_bus_wakeup)
	.dw	0,(XG$lcd_bus_wakeup$0$0+1)
	.db	1
	.dw	0,(Ldebug_loc_start+44)
	.uleb128	16
	.ascii "lcd_busy_wait"
	.db	0
	.dw	0,(_lcd_busy_wait)
	.dw	0,(XG$lcd_busy_wait$0$0+1)
	.db	1
	.dw	0,(Ldebug_loc_start)
	.dw	0,360
	.uleb128	4
	.dw	0,(Sstm8_hd44780$lcd_busy_wait$607)
	.dw	0,(Sstm8_hd44780$lcd_busy_wait$609)
	.uleb128	4
	.dw	0,(Sstm8_hd44780$lcd_busy_wait$611)
	.dw	0,(Sstm8_hd44780$lcd_busy_wait$612)
	.uleb128	4
	.dw	0,(Sstm8_hd44780$lcd_busy_wait$613)
	.dw	0,(Sstm8_hd44780$lcd_busy_wait$615)
	.uleb128	10
	.db	6
	.db	82
	.db	147
	.uleb128	1
	.db	81
	.db	147
	.uleb128	1
	.ascii "timeout"
	.db	0
	.dw	0,120
	.uleb128	0
	.uleb128	0
	.uleb128	0
	.uleb128	0
Ldebug_info_end:

	.area .debug_pubnames (NOLOAD)
	.dw	0,Ldebug_pubnames_end-Ldebug_pubnames_start
Ldebug_pubnames_start:
	.dw	2
	.dw	0,(Ldebug_info_start-4)
	.dw	0,4+Ldebug_info_end-Ldebug_info_start
	.dw	0,271
	.ascii "lcd_store_symbol"
	.db	0
	.dw	0,377
	.ascii "lcd_puts"
	.db	0
	.dw	0,427
	.ascii "lcd_init"
	.db	0
	.dw	0,963
	.ascii "lcd_gotoxy"
	.db	0
	.dw	0,1059
	.ascii "lcd_init_hw"
	.db	0
	.dw	0,1085
	.ascii "lcd_bus_outputs"
	.db	0
	.dw	0,1115
	.ascii "lcd_bus_inputs"
	.db	0
	.dw	0,1144
	.ascii "lcd_deinit_hw"
	.db	0
	.dw	0,1172
	.ascii "lcd_bus_set"
	.db	0
	.dw	0,1288
	.ascii "lcd_bus_read"
	.db	0
	.dw	0,1372
	.ascii "lcd_e_tick"
	.db	0
	.dw	0,1654
	.ascii "lcd_command"
	.db	0
	.dw	0,1825
	.ascii "lcd_data"
	.db	0
	.dw	0,1990
	.ascii "lcd_read"
	.db	0
	.dw	0,2674
	.ascii "lcd_bus_sleep"
	.db	0
	.dw	0,2702
	.ascii "lcd_bus_wakeup"
	.db	0
	.dw	0,2731
	.ascii "lcd_busy_wait"
	.db	0
	.dw	0,0
Ldebug_pubnames_end:

	.area .debug_frame (NOLOAD)
	.dw	0
	.dw	Ldebug_CIE0_end-Ldebug_CIE0_start
Ldebug_CIE0_start:
	.dw	0xffff
	.dw	0xffff
	.db	1
	.db	0
	.uleb128	1
	.sleb128	-1
	.db	9
	.db	12
	.uleb128	8
	.uleb128	2
	.db	137
	.uleb128	1
Ldebug_CIE0_end:
	.dw	0,33
	.dw	0,(Ldebug_CIE0_start-4)
	.dw	0,(Sstm8_hd44780$lcd_busy_wait$602)	;initial loc
	.dw	0,Sstm8_hd44780$lcd_busy_wait$618-Sstm8_hd44780$lcd_busy_wait$602
	.db	1
	.dw	0,(Sstm8_hd44780$lcd_busy_wait$602)
	.db	14
	.uleb128	2
	.db	1
	.dw	0,(Sstm8_hd44780$lcd_busy_wait$605)
	.db	14
	.uleb128	4
	.db	1
	.dw	0,(Sstm8_hd44780$lcd_busy_wait$606)
	.db	14
	.uleb128	2

	.area .debug_frame (NOLOAD)
	.dw	0
	.dw	Ldebug_CIE1_end-Ldebug_CIE1_start
Ldebug_CIE1_start:
	.dw	0xffff
	.dw	0xffff
	.db	1
	.db	0
	.uleb128	1
	.sleb128	-1
	.db	9
	.db	12
	.uleb128	8
	.uleb128	2
	.db	137
	.uleb128	1
Ldebug_CIE1_end:
	.dw	0,159
	.dw	0,(Ldebug_CIE1_start-4)
	.dw	0,(Sstm8_hd44780$lcd_bus_wakeup$571)	;initial loc
	.dw	0,Sstm8_hd44780$lcd_bus_wakeup$600-Sstm8_hd44780$lcd_bus_wakeup$571
	.db	1
	.dw	0,(Sstm8_hd44780$lcd_bus_wakeup$571)
	.db	14
	.uleb128	2
	.db	1
	.dw	0,(Sstm8_hd44780$lcd_bus_wakeup$573)
	.db	14
	.uleb128	3
	.db	1
	.dw	0,(Sstm8_hd44780$lcd_bus_wakeup$574)
	.db	14
	.uleb128	4
	.db	1
	.dw	0,(Sstm8_hd44780$lcd_bus_wakeup$575)
	.db	14
	.uleb128	5
	.db	1
	.dw	0,(Sstm8_hd44780$lcd_bus_wakeup$576)
	.db	14
	.uleb128	2
	.db	1
	.dw	0,(Sstm8_hd44780$lcd_bus_wakeup$578)
	.db	14
	.uleb128	3
	.db	1
	.dw	0,(Sstm8_hd44780$lcd_bus_wakeup$579)
	.db	14
	.uleb128	4
	.db	1
	.dw	0,(Sstm8_hd44780$lcd_bus_wakeup$580)
	.db	14
	.uleb128	5
	.db	1
	.dw	0,(Sstm8_hd44780$lcd_bus_wakeup$581)
	.db	14
	.uleb128	2
	.db	1
	.dw	0,(Sstm8_hd44780$lcd_bus_wakeup$583)
	.db	14
	.uleb128	3
	.db	1
	.dw	0,(Sstm8_hd44780$lcd_bus_wakeup$584)
	.db	14
	.uleb128	4
	.db	1
	.dw	0,(Sstm8_hd44780$lcd_bus_wakeup$585)
	.db	14
	.uleb128	5
	.db	1
	.dw	0,(Sstm8_hd44780$lcd_bus_wakeup$586)
	.db	14
	.uleb128	2
	.db	1
	.dw	0,(Sstm8_hd44780$lcd_bus_wakeup$588)
	.db	14
	.uleb128	3
	.db	1
	.dw	0,(Sstm8_hd44780$lcd_bus_wakeup$589)
	.db	14
	.uleb128	4
	.db	1
	.dw	0,(Sstm8_hd44780$lcd_bus_wakeup$590)
	.db	14
	.uleb128	5
	.db	1
	.dw	0,(Sstm8_hd44780$lcd_bus_wakeup$591)
	.db	14
	.uleb128	2
	.db	1
	.dw	0,(Sstm8_hd44780$lcd_bus_wakeup$593)
	.db	14
	.uleb128	3
	.db	1
	.dw	0,(Sstm8_hd44780$lcd_bus_wakeup$594)
	.db	14
	.uleb128	4
	.db	1
	.dw	0,(Sstm8_hd44780$lcd_bus_wakeup$595)
	.db	14
	.uleb128	5
	.db	1
	.dw	0,(Sstm8_hd44780$lcd_bus_wakeup$596)
	.db	14
	.uleb128	2

	.area .debug_frame (NOLOAD)
	.dw	0
	.dw	Ldebug_CIE2_end-Ldebug_CIE2_start
Ldebug_CIE2_start:
	.dw	0xffff
	.dw	0xffff
	.db	1
	.db	0
	.uleb128	1
	.sleb128	-1
	.db	9
	.db	12
	.uleb128	8
	.uleb128	2
	.db	137
	.uleb128	1
Ldebug_CIE2_end:
	.dw	0,75
	.dw	0,(Ldebug_CIE2_start-4)
	.dw	0,(Sstm8_hd44780$lcd_bus_sleep$555)	;initial loc
	.dw	0,Sstm8_hd44780$lcd_bus_sleep$569-Sstm8_hd44780$lcd_bus_sleep$555
	.db	1
	.dw	0,(Sstm8_hd44780$lcd_bus_sleep$555)
	.db	14
	.uleb128	2
	.db	1
	.dw	0,(Sstm8_hd44780$lcd_bus_sleep$557)
	.db	14
	.uleb128	3
	.db	1
	.dw	0,(Sstm8_hd44780$lcd_bus_sleep$558)
	.db	14
	.uleb128	4
	.db	1
	.dw	0,(Sstm8_hd44780$lcd_bus_sleep$559)
	.db	14
	.uleb128	5
	.db	1
	.dw	0,(Sstm8_hd44780$lcd_bus_sleep$560)
	.db	14
	.uleb128	2
	.db	1
	.dw	0,(Sstm8_hd44780$lcd_bus_sleep$562)
	.db	14
	.uleb128	3
	.db	1
	.dw	0,(Sstm8_hd44780$lcd_bus_sleep$563)
	.db	14
	.uleb128	4
	.db	1
	.dw	0,(Sstm8_hd44780$lcd_bus_sleep$564)
	.db	14
	.uleb128	5
	.db	1
	.dw	0,(Sstm8_hd44780$lcd_bus_sleep$565)
	.db	14
	.uleb128	2

	.area .debug_frame (NOLOAD)
	.dw	0
	.dw	Ldebug_CIE3_end-Ldebug_CIE3_start
Ldebug_CIE3_start:
	.dw	0xffff
	.dw	0xffff
	.db	1
	.db	0
	.uleb128	1
	.sleb128	-1
	.db	9
	.db	12
	.uleb128	8
	.uleb128	2
	.db	137
	.uleb128	1
Ldebug_CIE3_end:
	.dw	0,229
	.dw	0,(Ldebug_CIE3_start-4)
	.dw	0,(Sstm8_hd44780$lcd_read$473)	;initial loc
	.dw	0,Sstm8_hd44780$lcd_read$553-Sstm8_hd44780$lcd_read$473
	.db	1
	.dw	0,(Sstm8_hd44780$lcd_read$473)
	.db	14
	.uleb128	2
	.db	1
	.dw	0,(Sstm8_hd44780$lcd_read$474)
	.db	14
	.uleb128	3
	.db	1
	.dw	0,(Sstm8_hd44780$lcd_read$476)
	.db	14
	.uleb128	4
	.db	1
	.dw	0,(Sstm8_hd44780$lcd_read$477)
	.db	14
	.uleb128	5
	.db	1
	.dw	0,(Sstm8_hd44780$lcd_read$478)
	.db	14
	.uleb128	6
	.db	1
	.dw	0,(Sstm8_hd44780$lcd_read$479)
	.db	14
	.uleb128	3
	.db	1
	.dw	0,(Sstm8_hd44780$lcd_read$482)
	.db	14
	.uleb128	4
	.db	1
	.dw	0,(Sstm8_hd44780$lcd_read$483)
	.db	14
	.uleb128	5
	.db	1
	.dw	0,(Sstm8_hd44780$lcd_read$484)
	.db	14
	.uleb128	6
	.db	1
	.dw	0,(Sstm8_hd44780$lcd_read$485)
	.db	14
	.uleb128	3
	.db	1
	.dw	0,(Sstm8_hd44780$lcd_read$494)
	.db	14
	.uleb128	4
	.db	1
	.dw	0,(Sstm8_hd44780$lcd_read$495)
	.db	14
	.uleb128	5
	.db	1
	.dw	0,(Sstm8_hd44780$lcd_read$496)
	.db	14
	.uleb128	6
	.db	1
	.dw	0,(Sstm8_hd44780$lcd_read$497)
	.db	14
	.uleb128	3
	.db	1
	.dw	0,(Sstm8_hd44780$lcd_read$507)
	.db	14
	.uleb128	4
	.db	1
	.dw	0,(Sstm8_hd44780$lcd_read$508)
	.db	14
	.uleb128	5
	.db	1
	.dw	0,(Sstm8_hd44780$lcd_read$509)
	.db	14
	.uleb128	6
	.db	1
	.dw	0,(Sstm8_hd44780$lcd_read$510)
	.db	14
	.uleb128	3
	.db	1
	.dw	0,(Sstm8_hd44780$lcd_read$519)
	.db	14
	.uleb128	4
	.db	1
	.dw	0,(Sstm8_hd44780$lcd_read$520)
	.db	14
	.uleb128	5
	.db	1
	.dw	0,(Sstm8_hd44780$lcd_read$521)
	.db	14
	.uleb128	6
	.db	1
	.dw	0,(Sstm8_hd44780$lcd_read$522)
	.db	14
	.uleb128	3
	.db	1
	.dw	0,(Sstm8_hd44780$lcd_read$532)
	.db	14
	.uleb128	4
	.db	1
	.dw	0,(Sstm8_hd44780$lcd_read$533)
	.db	14
	.uleb128	5
	.db	1
	.dw	0,(Sstm8_hd44780$lcd_read$534)
	.db	14
	.uleb128	6
	.db	1
	.dw	0,(Sstm8_hd44780$lcd_read$535)
	.db	14
	.uleb128	3
	.db	1
	.dw	0,(Sstm8_hd44780$lcd_read$544)
	.db	14
	.uleb128	4
	.db	1
	.dw	0,(Sstm8_hd44780$lcd_read$545)
	.db	14
	.uleb128	5
	.db	1
	.dw	0,(Sstm8_hd44780$lcd_read$546)
	.db	14
	.uleb128	6
	.db	1
	.dw	0,(Sstm8_hd44780$lcd_read$547)
	.db	14
	.uleb128	3
	.db	1
	.dw	0,(Sstm8_hd44780$lcd_read$551)
	.db	14
	.uleb128	2

	.area .debug_frame (NOLOAD)
	.dw	0
	.dw	Ldebug_CIE4_end-Ldebug_CIE4_start
Ldebug_CIE4_start:
	.dw	0xffff
	.dw	0xffff
	.db	1
	.db	0
	.uleb128	1
	.sleb128	-1
	.db	9
	.db	12
	.uleb128	8
	.uleb128	2
	.db	137
	.uleb128	1
Ldebug_CIE4_end:
	.dw	0,75
	.dw	0,(Ldebug_CIE4_start-4)
	.dw	0,(Sstm8_hd44780$lcd_data$447)	;initial loc
	.dw	0,Sstm8_hd44780$lcd_data$471-Sstm8_hd44780$lcd_data$447
	.db	1
	.dw	0,(Sstm8_hd44780$lcd_data$447)
	.db	14
	.uleb128	2
	.db	1
	.dw	0,(Sstm8_hd44780$lcd_data$449)
	.db	14
	.uleb128	3
	.db	1
	.dw	0,(Sstm8_hd44780$lcd_data$450)
	.db	14
	.uleb128	4
	.db	1
	.dw	0,(Sstm8_hd44780$lcd_data$451)
	.db	14
	.uleb128	5
	.db	1
	.dw	0,(Sstm8_hd44780$lcd_data$452)
	.db	14
	.uleb128	2
	.db	1
	.dw	0,(Sstm8_hd44780$lcd_data$461)
	.db	14
	.uleb128	3
	.db	1
	.dw	0,(Sstm8_hd44780$lcd_data$462)
	.db	14
	.uleb128	2
	.db	1
	.dw	0,(Sstm8_hd44780$lcd_data$465)
	.db	14
	.uleb128	3
	.db	1
	.dw	0,(Sstm8_hd44780$lcd_data$466)
	.db	14
	.uleb128	2

	.area .debug_frame (NOLOAD)
	.dw	0
	.dw	Ldebug_CIE5_end-Ldebug_CIE5_start
Ldebug_CIE5_start:
	.dw	0xffff
	.dw	0xffff
	.db	1
	.db	0
	.uleb128	1
	.sleb128	-1
	.db	9
	.db	12
	.uleb128	8
	.uleb128	2
	.db	137
	.uleb128	1
Ldebug_CIE5_end:
	.dw	0,75
	.dw	0,(Ldebug_CIE5_start-4)
	.dw	0,(Sstm8_hd44780$lcd_command$421)	;initial loc
	.dw	0,Sstm8_hd44780$lcd_command$445-Sstm8_hd44780$lcd_command$421
	.db	1
	.dw	0,(Sstm8_hd44780$lcd_command$421)
	.db	14
	.uleb128	2
	.db	1
	.dw	0,(Sstm8_hd44780$lcd_command$423)
	.db	14
	.uleb128	3
	.db	1
	.dw	0,(Sstm8_hd44780$lcd_command$424)
	.db	14
	.uleb128	4
	.db	1
	.dw	0,(Sstm8_hd44780$lcd_command$425)
	.db	14
	.uleb128	5
	.db	1
	.dw	0,(Sstm8_hd44780$lcd_command$426)
	.db	14
	.uleb128	2
	.db	1
	.dw	0,(Sstm8_hd44780$lcd_command$435)
	.db	14
	.uleb128	3
	.db	1
	.dw	0,(Sstm8_hd44780$lcd_command$436)
	.db	14
	.uleb128	2
	.db	1
	.dw	0,(Sstm8_hd44780$lcd_command$439)
	.db	14
	.uleb128	3
	.db	1
	.dw	0,(Sstm8_hd44780$lcd_command$440)
	.db	14
	.uleb128	2

	.area .debug_frame (NOLOAD)
	.dw	0
	.dw	Ldebug_CIE6_end-Ldebug_CIE6_start
Ldebug_CIE6_start:
	.dw	0xffff
	.dw	0xffff
	.db	1
	.db	0
	.uleb128	1
	.sleb128	-1
	.db	9
	.db	12
	.uleb128	8
	.uleb128	2
	.db	137
	.uleb128	1
Ldebug_CIE6_end:
	.dw	0,75
	.dw	0,(Ldebug_CIE6_start-4)
	.dw	0,(Sstm8_hd44780$lcd_e_tick$391)	;initial loc
	.dw	0,Sstm8_hd44780$lcd_e_tick$419-Sstm8_hd44780$lcd_e_tick$391
	.db	1
	.dw	0,(Sstm8_hd44780$lcd_e_tick$391)
	.db	14
	.uleb128	2
	.db	1
	.dw	0,(Sstm8_hd44780$lcd_e_tick$393)
	.db	14
	.uleb128	3
	.db	1
	.dw	0,(Sstm8_hd44780$lcd_e_tick$394)
	.db	14
	.uleb128	4
	.db	1
	.dw	0,(Sstm8_hd44780$lcd_e_tick$395)
	.db	14
	.uleb128	5
	.db	1
	.dw	0,(Sstm8_hd44780$lcd_e_tick$396)
	.db	14
	.uleb128	2
	.db	1
	.dw	0,(Sstm8_hd44780$lcd_e_tick$405)
	.db	14
	.uleb128	3
	.db	1
	.dw	0,(Sstm8_hd44780$lcd_e_tick$406)
	.db	14
	.uleb128	4
	.db	1
	.dw	0,(Sstm8_hd44780$lcd_e_tick$407)
	.db	14
	.uleb128	5
	.db	1
	.dw	0,(Sstm8_hd44780$lcd_e_tick$408)
	.db	14
	.uleb128	2

	.area .debug_frame (NOLOAD)
	.dw	0
	.dw	Ldebug_CIE7_end-Ldebug_CIE7_start
Ldebug_CIE7_start:
	.dw	0xffff
	.dw	0xffff
	.db	1
	.db	0
	.uleb128	1
	.sleb128	-1
	.db	9
	.db	12
	.uleb128	8
	.uleb128	2
	.db	137
	.uleb128	1
Ldebug_CIE7_end:
	.dw	0,145
	.dw	0,(Ldebug_CIE7_start-4)
	.dw	0,(Sstm8_hd44780$lcd_bus_read$354)	;initial loc
	.dw	0,Sstm8_hd44780$lcd_bus_read$389-Sstm8_hd44780$lcd_bus_read$354
	.db	1
	.dw	0,(Sstm8_hd44780$lcd_bus_read$354)
	.db	14
	.uleb128	2
	.db	1
	.dw	0,(Sstm8_hd44780$lcd_bus_read$355)
	.db	14
	.uleb128	3
	.db	1
	.dw	0,(Sstm8_hd44780$lcd_bus_read$358)
	.db	14
	.uleb128	4
	.db	1
	.dw	0,(Sstm8_hd44780$lcd_bus_read$359)
	.db	14
	.uleb128	5
	.db	1
	.dw	0,(Sstm8_hd44780$lcd_bus_read$360)
	.db	14
	.uleb128	6
	.db	1
	.dw	0,(Sstm8_hd44780$lcd_bus_read$361)
	.db	14
	.uleb128	3
	.db	1
	.dw	0,(Sstm8_hd44780$lcd_bus_read$365)
	.db	14
	.uleb128	4
	.db	1
	.dw	0,(Sstm8_hd44780$lcd_bus_read$366)
	.db	14
	.uleb128	5
	.db	1
	.dw	0,(Sstm8_hd44780$lcd_bus_read$367)
	.db	14
	.uleb128	6
	.db	1
	.dw	0,(Sstm8_hd44780$lcd_bus_read$368)
	.db	14
	.uleb128	3
	.db	1
	.dw	0,(Sstm8_hd44780$lcd_bus_read$372)
	.db	14
	.uleb128	4
	.db	1
	.dw	0,(Sstm8_hd44780$lcd_bus_read$373)
	.db	14
	.uleb128	5
	.db	1
	.dw	0,(Sstm8_hd44780$lcd_bus_read$374)
	.db	14
	.uleb128	6
	.db	1
	.dw	0,(Sstm8_hd44780$lcd_bus_read$375)
	.db	14
	.uleb128	3
	.db	1
	.dw	0,(Sstm8_hd44780$lcd_bus_read$379)
	.db	14
	.uleb128	4
	.db	1
	.dw	0,(Sstm8_hd44780$lcd_bus_read$380)
	.db	14
	.uleb128	5
	.db	1
	.dw	0,(Sstm8_hd44780$lcd_bus_read$381)
	.db	14
	.uleb128	6
	.db	1
	.dw	0,(Sstm8_hd44780$lcd_bus_read$382)
	.db	14
	.uleb128	3
	.db	1
	.dw	0,(Sstm8_hd44780$lcd_bus_read$387)
	.db	14
	.uleb128	2

	.area .debug_frame (NOLOAD)
	.dw	0
	.dw	Ldebug_CIE8_end-Ldebug_CIE8_start
Ldebug_CIE8_start:
	.dw	0xffff
	.dw	0xffff
	.db	1
	.db	0
	.uleb128	1
	.sleb128	-1
	.db	9
	.db	12
	.uleb128	8
	.uleb128	2
	.db	137
	.uleb128	1
Ldebug_CIE8_end:
	.dw	0,243
	.dw	0,(Ldebug_CIE8_start-4)
	.dw	0,(Sstm8_hd44780$lcd_bus_set$297)	;initial loc
	.dw	0,Sstm8_hd44780$lcd_bus_set$352-Sstm8_hd44780$lcd_bus_set$297
	.db	1
	.dw	0,(Sstm8_hd44780$lcd_bus_set$297)
	.db	14
	.uleb128	2
	.db	1
	.dw	0,(Sstm8_hd44780$lcd_bus_set$300)
	.db	14
	.uleb128	3
	.db	1
	.dw	0,(Sstm8_hd44780$lcd_bus_set$301)
	.db	14
	.uleb128	4
	.db	1
	.dw	0,(Sstm8_hd44780$lcd_bus_set$302)
	.db	14
	.uleb128	5
	.db	1
	.dw	0,(Sstm8_hd44780$lcd_bus_set$303)
	.db	14
	.uleb128	2
	.db	1
	.dw	0,(Sstm8_hd44780$lcd_bus_set$306)
	.db	14
	.uleb128	3
	.db	1
	.dw	0,(Sstm8_hd44780$lcd_bus_set$307)
	.db	14
	.uleb128	4
	.db	1
	.dw	0,(Sstm8_hd44780$lcd_bus_set$308)
	.db	14
	.uleb128	5
	.db	1
	.dw	0,(Sstm8_hd44780$lcd_bus_set$309)
	.db	14
	.uleb128	2
	.db	1
	.dw	0,(Sstm8_hd44780$lcd_bus_set$313)
	.db	14
	.uleb128	3
	.db	1
	.dw	0,(Sstm8_hd44780$lcd_bus_set$314)
	.db	14
	.uleb128	4
	.db	1
	.dw	0,(Sstm8_hd44780$lcd_bus_set$315)
	.db	14
	.uleb128	5
	.db	1
	.dw	0,(Sstm8_hd44780$lcd_bus_set$316)
	.db	14
	.uleb128	2
	.db	1
	.dw	0,(Sstm8_hd44780$lcd_bus_set$319)
	.db	14
	.uleb128	3
	.db	1
	.dw	0,(Sstm8_hd44780$lcd_bus_set$320)
	.db	14
	.uleb128	4
	.db	1
	.dw	0,(Sstm8_hd44780$lcd_bus_set$321)
	.db	14
	.uleb128	5
	.db	1
	.dw	0,(Sstm8_hd44780$lcd_bus_set$322)
	.db	14
	.uleb128	2
	.db	1
	.dw	0,(Sstm8_hd44780$lcd_bus_set$326)
	.db	14
	.uleb128	3
	.db	1
	.dw	0,(Sstm8_hd44780$lcd_bus_set$327)
	.db	14
	.uleb128	4
	.db	1
	.dw	0,(Sstm8_hd44780$lcd_bus_set$328)
	.db	14
	.uleb128	5
	.db	1
	.dw	0,(Sstm8_hd44780$lcd_bus_set$329)
	.db	14
	.uleb128	2
	.db	1
	.dw	0,(Sstm8_hd44780$lcd_bus_set$332)
	.db	14
	.uleb128	3
	.db	1
	.dw	0,(Sstm8_hd44780$lcd_bus_set$333)
	.db	14
	.uleb128	4
	.db	1
	.dw	0,(Sstm8_hd44780$lcd_bus_set$334)
	.db	14
	.uleb128	5
	.db	1
	.dw	0,(Sstm8_hd44780$lcd_bus_set$335)
	.db	14
	.uleb128	2
	.db	1
	.dw	0,(Sstm8_hd44780$lcd_bus_set$339)
	.db	14
	.uleb128	3
	.db	1
	.dw	0,(Sstm8_hd44780$lcd_bus_set$340)
	.db	14
	.uleb128	4
	.db	1
	.dw	0,(Sstm8_hd44780$lcd_bus_set$341)
	.db	14
	.uleb128	5
	.db	1
	.dw	0,(Sstm8_hd44780$lcd_bus_set$342)
	.db	14
	.uleb128	2
	.db	1
	.dw	0,(Sstm8_hd44780$lcd_bus_set$345)
	.db	14
	.uleb128	3
	.db	1
	.dw	0,(Sstm8_hd44780$lcd_bus_set$346)
	.db	14
	.uleb128	4
	.db	1
	.dw	0,(Sstm8_hd44780$lcd_bus_set$347)
	.db	14
	.uleb128	5
	.db	1
	.dw	0,(Sstm8_hd44780$lcd_bus_set$348)
	.db	14
	.uleb128	2

	.area .debug_frame (NOLOAD)
	.dw	0
	.dw	Ldebug_CIE9_end-Ldebug_CIE9_start
Ldebug_CIE9_start:
	.dw	0xffff
	.dw	0xffff
	.db	1
	.db	0
	.uleb128	1
	.sleb128	-1
	.db	9
	.db	12
	.uleb128	8
	.uleb128	2
	.db	137
	.uleb128	1
Ldebug_CIE9_end:
	.dw	0,264
	.dw	0,(Ldebug_CIE9_start-4)
	.dw	0,(Sstm8_hd44780$lcd_deinit_hw$250)	;initial loc
	.dw	0,Sstm8_hd44780$lcd_deinit_hw$295-Sstm8_hd44780$lcd_deinit_hw$250
	.db	1
	.dw	0,(Sstm8_hd44780$lcd_deinit_hw$250)
	.db	14
	.uleb128	2
	.db	1
	.dw	0,(Sstm8_hd44780$lcd_deinit_hw$252)
	.db	14
	.uleb128	3
	.db	1
	.dw	0,(Sstm8_hd44780$lcd_deinit_hw$253)
	.db	14
	.uleb128	4
	.db	1
	.dw	0,(Sstm8_hd44780$lcd_deinit_hw$254)
	.db	14
	.uleb128	5
	.db	1
	.dw	0,(Sstm8_hd44780$lcd_deinit_hw$255)
	.db	14
	.uleb128	6
	.db	1
	.dw	0,(Sstm8_hd44780$lcd_deinit_hw$256)
	.db	14
	.uleb128	2
	.db	1
	.dw	0,(Sstm8_hd44780$lcd_deinit_hw$258)
	.db	14
	.uleb128	3
	.db	1
	.dw	0,(Sstm8_hd44780$lcd_deinit_hw$259)
	.db	14
	.uleb128	4
	.db	1
	.dw	0,(Sstm8_hd44780$lcd_deinit_hw$260)
	.db	14
	.uleb128	5
	.db	1
	.dw	0,(Sstm8_hd44780$lcd_deinit_hw$261)
	.db	14
	.uleb128	6
	.db	1
	.dw	0,(Sstm8_hd44780$lcd_deinit_hw$262)
	.db	14
	.uleb128	2
	.db	1
	.dw	0,(Sstm8_hd44780$lcd_deinit_hw$264)
	.db	14
	.uleb128	3
	.db	1
	.dw	0,(Sstm8_hd44780$lcd_deinit_hw$265)
	.db	14
	.uleb128	4
	.db	1
	.dw	0,(Sstm8_hd44780$lcd_deinit_hw$266)
	.db	14
	.uleb128	5
	.db	1
	.dw	0,(Sstm8_hd44780$lcd_deinit_hw$267)
	.db	14
	.uleb128	6
	.db	1
	.dw	0,(Sstm8_hd44780$lcd_deinit_hw$268)
	.db	14
	.uleb128	2
	.db	1
	.dw	0,(Sstm8_hd44780$lcd_deinit_hw$270)
	.db	14
	.uleb128	3
	.db	1
	.dw	0,(Sstm8_hd44780$lcd_deinit_hw$271)
	.db	14
	.uleb128	4
	.db	1
	.dw	0,(Sstm8_hd44780$lcd_deinit_hw$272)
	.db	14
	.uleb128	5
	.db	1
	.dw	0,(Sstm8_hd44780$lcd_deinit_hw$273)
	.db	14
	.uleb128	6
	.db	1
	.dw	0,(Sstm8_hd44780$lcd_deinit_hw$274)
	.db	14
	.uleb128	2
	.db	1
	.dw	0,(Sstm8_hd44780$lcd_deinit_hw$276)
	.db	14
	.uleb128	3
	.db	1
	.dw	0,(Sstm8_hd44780$lcd_deinit_hw$277)
	.db	14
	.uleb128	4
	.db	1
	.dw	0,(Sstm8_hd44780$lcd_deinit_hw$278)
	.db	14
	.uleb128	5
	.db	1
	.dw	0,(Sstm8_hd44780$lcd_deinit_hw$279)
	.db	14
	.uleb128	6
	.db	1
	.dw	0,(Sstm8_hd44780$lcd_deinit_hw$280)
	.db	14
	.uleb128	2
	.db	1
	.dw	0,(Sstm8_hd44780$lcd_deinit_hw$282)
	.db	14
	.uleb128	3
	.db	1
	.dw	0,(Sstm8_hd44780$lcd_deinit_hw$283)
	.db	14
	.uleb128	4
	.db	1
	.dw	0,(Sstm8_hd44780$lcd_deinit_hw$284)
	.db	14
	.uleb128	5
	.db	1
	.dw	0,(Sstm8_hd44780$lcd_deinit_hw$285)
	.db	14
	.uleb128	6
	.db	1
	.dw	0,(Sstm8_hd44780$lcd_deinit_hw$286)
	.db	14
	.uleb128	2
	.db	1
	.dw	0,(Sstm8_hd44780$lcd_deinit_hw$288)
	.db	14
	.uleb128	3
	.db	1
	.dw	0,(Sstm8_hd44780$lcd_deinit_hw$289)
	.db	14
	.uleb128	4
	.db	1
	.dw	0,(Sstm8_hd44780$lcd_deinit_hw$290)
	.db	14
	.uleb128	5
	.db	1
	.dw	0,(Sstm8_hd44780$lcd_deinit_hw$291)
	.db	14
	.uleb128	6
	.db	1
	.dw	0,(Sstm8_hd44780$lcd_deinit_hw$292)
	.db	14
	.uleb128	2

	.area .debug_frame (NOLOAD)
	.dw	0
	.dw	Ldebug_CIE10_end-Ldebug_CIE10_start
Ldebug_CIE10_start:
	.dw	0xffff
	.dw	0xffff
	.db	1
	.db	0
	.uleb128	1
	.sleb128	-1
	.db	9
	.db	12
	.uleb128	8
	.uleb128	2
	.db	137
	.uleb128	1
Ldebug_CIE10_end:
	.dw	0,159
	.dw	0,(Ldebug_CIE10_start-4)
	.dw	0,(Sstm8_hd44780$lcd_bus_inputs$221)	;initial loc
	.dw	0,Sstm8_hd44780$lcd_bus_inputs$248-Sstm8_hd44780$lcd_bus_inputs$221
	.db	1
	.dw	0,(Sstm8_hd44780$lcd_bus_inputs$221)
	.db	14
	.uleb128	2
	.db	1
	.dw	0,(Sstm8_hd44780$lcd_bus_inputs$223)
	.db	14
	.uleb128	3
	.db	1
	.dw	0,(Sstm8_hd44780$lcd_bus_inputs$224)
	.db	14
	.uleb128	4
	.db	1
	.dw	0,(Sstm8_hd44780$lcd_bus_inputs$225)
	.db	14
	.uleb128	5
	.db	1
	.dw	0,(Sstm8_hd44780$lcd_bus_inputs$226)
	.db	14
	.uleb128	6
	.db	1
	.dw	0,(Sstm8_hd44780$lcd_bus_inputs$227)
	.db	14
	.uleb128	2
	.db	1
	.dw	0,(Sstm8_hd44780$lcd_bus_inputs$229)
	.db	14
	.uleb128	3
	.db	1
	.dw	0,(Sstm8_hd44780$lcd_bus_inputs$230)
	.db	14
	.uleb128	4
	.db	1
	.dw	0,(Sstm8_hd44780$lcd_bus_inputs$231)
	.db	14
	.uleb128	5
	.db	1
	.dw	0,(Sstm8_hd44780$lcd_bus_inputs$232)
	.db	14
	.uleb128	6
	.db	1
	.dw	0,(Sstm8_hd44780$lcd_bus_inputs$233)
	.db	14
	.uleb128	2
	.db	1
	.dw	0,(Sstm8_hd44780$lcd_bus_inputs$235)
	.db	14
	.uleb128	3
	.db	1
	.dw	0,(Sstm8_hd44780$lcd_bus_inputs$236)
	.db	14
	.uleb128	4
	.db	1
	.dw	0,(Sstm8_hd44780$lcd_bus_inputs$237)
	.db	14
	.uleb128	5
	.db	1
	.dw	0,(Sstm8_hd44780$lcd_bus_inputs$238)
	.db	14
	.uleb128	6
	.db	1
	.dw	0,(Sstm8_hd44780$lcd_bus_inputs$239)
	.db	14
	.uleb128	2
	.db	1
	.dw	0,(Sstm8_hd44780$lcd_bus_inputs$241)
	.db	14
	.uleb128	3
	.db	1
	.dw	0,(Sstm8_hd44780$lcd_bus_inputs$242)
	.db	14
	.uleb128	4
	.db	1
	.dw	0,(Sstm8_hd44780$lcd_bus_inputs$243)
	.db	14
	.uleb128	5
	.db	1
	.dw	0,(Sstm8_hd44780$lcd_bus_inputs$244)
	.db	14
	.uleb128	6
	.db	1
	.dw	0,(Sstm8_hd44780$lcd_bus_inputs$245)
	.db	14
	.uleb128	2

	.area .debug_frame (NOLOAD)
	.dw	0
	.dw	Ldebug_CIE11_end-Ldebug_CIE11_start
Ldebug_CIE11_start:
	.dw	0xffff
	.dw	0xffff
	.db	1
	.db	0
	.uleb128	1
	.sleb128	-1
	.db	9
	.db	12
	.uleb128	8
	.uleb128	2
	.db	137
	.uleb128	1
Ldebug_CIE11_end:
	.dw	0,159
	.dw	0,(Ldebug_CIE11_start-4)
	.dw	0,(Sstm8_hd44780$lcd_bus_outputs$192)	;initial loc
	.dw	0,Sstm8_hd44780$lcd_bus_outputs$219-Sstm8_hd44780$lcd_bus_outputs$192
	.db	1
	.dw	0,(Sstm8_hd44780$lcd_bus_outputs$192)
	.db	14
	.uleb128	2
	.db	1
	.dw	0,(Sstm8_hd44780$lcd_bus_outputs$194)
	.db	14
	.uleb128	3
	.db	1
	.dw	0,(Sstm8_hd44780$lcd_bus_outputs$195)
	.db	14
	.uleb128	4
	.db	1
	.dw	0,(Sstm8_hd44780$lcd_bus_outputs$196)
	.db	14
	.uleb128	5
	.db	1
	.dw	0,(Sstm8_hd44780$lcd_bus_outputs$197)
	.db	14
	.uleb128	6
	.db	1
	.dw	0,(Sstm8_hd44780$lcd_bus_outputs$198)
	.db	14
	.uleb128	2
	.db	1
	.dw	0,(Sstm8_hd44780$lcd_bus_outputs$200)
	.db	14
	.uleb128	3
	.db	1
	.dw	0,(Sstm8_hd44780$lcd_bus_outputs$201)
	.db	14
	.uleb128	4
	.db	1
	.dw	0,(Sstm8_hd44780$lcd_bus_outputs$202)
	.db	14
	.uleb128	5
	.db	1
	.dw	0,(Sstm8_hd44780$lcd_bus_outputs$203)
	.db	14
	.uleb128	6
	.db	1
	.dw	0,(Sstm8_hd44780$lcd_bus_outputs$204)
	.db	14
	.uleb128	2
	.db	1
	.dw	0,(Sstm8_hd44780$lcd_bus_outputs$206)
	.db	14
	.uleb128	3
	.db	1
	.dw	0,(Sstm8_hd44780$lcd_bus_outputs$207)
	.db	14
	.uleb128	4
	.db	1
	.dw	0,(Sstm8_hd44780$lcd_bus_outputs$208)
	.db	14
	.uleb128	5
	.db	1
	.dw	0,(Sstm8_hd44780$lcd_bus_outputs$209)
	.db	14
	.uleb128	6
	.db	1
	.dw	0,(Sstm8_hd44780$lcd_bus_outputs$210)
	.db	14
	.uleb128	2
	.db	1
	.dw	0,(Sstm8_hd44780$lcd_bus_outputs$212)
	.db	14
	.uleb128	3
	.db	1
	.dw	0,(Sstm8_hd44780$lcd_bus_outputs$213)
	.db	14
	.uleb128	4
	.db	1
	.dw	0,(Sstm8_hd44780$lcd_bus_outputs$214)
	.db	14
	.uleb128	5
	.db	1
	.dw	0,(Sstm8_hd44780$lcd_bus_outputs$215)
	.db	14
	.uleb128	6
	.db	1
	.dw	0,(Sstm8_hd44780$lcd_bus_outputs$216)
	.db	14
	.uleb128	2

	.area .debug_frame (NOLOAD)
	.dw	0
	.dw	Ldebug_CIE12_end-Ldebug_CIE12_start
Ldebug_CIE12_start:
	.dw	0xffff
	.dw	0xffff
	.db	1
	.db	0
	.uleb128	1
	.sleb128	-1
	.db	9
	.db	12
	.uleb128	8
	.uleb128	2
	.db	137
	.uleb128	1
Ldebug_CIE12_end:
	.dw	0,124
	.dw	0,(Ldebug_CIE12_start-4)
	.dw	0,(Sstm8_hd44780$lcd_init_hw$168)	;initial loc
	.dw	0,Sstm8_hd44780$lcd_init_hw$190-Sstm8_hd44780$lcd_init_hw$168
	.db	1
	.dw	0,(Sstm8_hd44780$lcd_init_hw$168)
	.db	14
	.uleb128	2
	.db	1
	.dw	0,(Sstm8_hd44780$lcd_init_hw$170)
	.db	14
	.uleb128	3
	.db	1
	.dw	0,(Sstm8_hd44780$lcd_init_hw$171)
	.db	14
	.uleb128	4
	.db	1
	.dw	0,(Sstm8_hd44780$lcd_init_hw$172)
	.db	14
	.uleb128	5
	.db	1
	.dw	0,(Sstm8_hd44780$lcd_init_hw$173)
	.db	14
	.uleb128	6
	.db	1
	.dw	0,(Sstm8_hd44780$lcd_init_hw$174)
	.db	14
	.uleb128	2
	.db	1
	.dw	0,(Sstm8_hd44780$lcd_init_hw$176)
	.db	14
	.uleb128	3
	.db	1
	.dw	0,(Sstm8_hd44780$lcd_init_hw$177)
	.db	14
	.uleb128	4
	.db	1
	.dw	0,(Sstm8_hd44780$lcd_init_hw$178)
	.db	14
	.uleb128	5
	.db	1
	.dw	0,(Sstm8_hd44780$lcd_init_hw$179)
	.db	14
	.uleb128	6
	.db	1
	.dw	0,(Sstm8_hd44780$lcd_init_hw$180)
	.db	14
	.uleb128	2
	.db	1
	.dw	0,(Sstm8_hd44780$lcd_init_hw$182)
	.db	14
	.uleb128	3
	.db	1
	.dw	0,(Sstm8_hd44780$lcd_init_hw$183)
	.db	14
	.uleb128	4
	.db	1
	.dw	0,(Sstm8_hd44780$lcd_init_hw$184)
	.db	14
	.uleb128	5
	.db	1
	.dw	0,(Sstm8_hd44780$lcd_init_hw$185)
	.db	14
	.uleb128	6
	.db	1
	.dw	0,(Sstm8_hd44780$lcd_init_hw$186)
	.db	14
	.uleb128	2

	.area .debug_frame (NOLOAD)
	.dw	0
	.dw	Ldebug_CIE13_end-Ldebug_CIE13_start
Ldebug_CIE13_start:
	.dw	0xffff
	.dw	0xffff
	.db	1
	.db	0
	.uleb128	1
	.sleb128	-1
	.db	9
	.db	12
	.uleb128	8
	.uleb128	2
	.db	137
	.uleb128	1
Ldebug_CIE13_end:
	.dw	0,40
	.dw	0,(Ldebug_CIE13_start-4)
	.dw	0,(Sstm8_hd44780$lcd_gotoxy$148)	;initial loc
	.dw	0,Sstm8_hd44780$lcd_gotoxy$166-Sstm8_hd44780$lcd_gotoxy$148
	.db	1
	.dw	0,(Sstm8_hd44780$lcd_gotoxy$148)
	.db	14
	.uleb128	2
	.db	1
	.dw	0,(Sstm8_hd44780$lcd_gotoxy$157)
	.db	14
	.uleb128	2
	.db	1
	.dw	0,(Sstm8_hd44780$lcd_gotoxy$162)
	.db	14
	.uleb128	3
	.db	1
	.dw	0,(Sstm8_hd44780$lcd_gotoxy$163)
	.db	14
	.uleb128	2

	.area .debug_frame (NOLOAD)
	.dw	0
	.dw	Ldebug_CIE14_end-Ldebug_CIE14_start
Ldebug_CIE14_start:
	.dw	0xffff
	.dw	0xffff
	.db	1
	.db	0
	.uleb128	1
	.sleb128	-1
	.db	9
	.db	12
	.uleb128	8
	.uleb128	2
	.db	137
	.uleb128	1
Ldebug_CIE14_end:
	.dw	0,159
	.dw	0,(Ldebug_CIE14_start-4)
	.dw	0,(Sstm8_hd44780$lcd_init$79)	;initial loc
	.dw	0,Sstm8_hd44780$lcd_init$146-Sstm8_hd44780$lcd_init$79
	.db	1
	.dw	0,(Sstm8_hd44780$lcd_init$79)
	.db	14
	.uleb128	2
	.db	1
	.dw	0,(Sstm8_hd44780$lcd_init$90)
	.db	14
	.uleb128	3
	.db	1
	.dw	0,(Sstm8_hd44780$lcd_init$91)
	.db	14
	.uleb128	2
	.db	1
	.dw	0,(Sstm8_hd44780$lcd_init$101)
	.db	14
	.uleb128	3
	.db	1
	.dw	0,(Sstm8_hd44780$lcd_init$102)
	.db	14
	.uleb128	2
	.db	1
	.dw	0,(Sstm8_hd44780$lcd_init$112)
	.db	14
	.uleb128	3
	.db	1
	.dw	0,(Sstm8_hd44780$lcd_init$113)
	.db	14
	.uleb128	2
	.db	1
	.dw	0,(Sstm8_hd44780$lcd_init$116)
	.db	14
	.uleb128	3
	.db	1
	.dw	0,(Sstm8_hd44780$lcd_init$117)
	.db	14
	.uleb128	2
	.db	1
	.dw	0,(Sstm8_hd44780$lcd_init$127)
	.db	14
	.uleb128	3
	.db	1
	.dw	0,(Sstm8_hd44780$lcd_init$128)
	.db	14
	.uleb128	2
	.db	1
	.dw	0,(Sstm8_hd44780$lcd_init$130)
	.db	14
	.uleb128	3
	.db	1
	.dw	0,(Sstm8_hd44780$lcd_init$131)
	.db	14
	.uleb128	2
	.db	1
	.dw	0,(Sstm8_hd44780$lcd_init$133)
	.db	14
	.uleb128	3
	.db	1
	.dw	0,(Sstm8_hd44780$lcd_init$134)
	.db	14
	.uleb128	2
	.db	1
	.dw	0,(Sstm8_hd44780$lcd_init$136)
	.db	14
	.uleb128	3
	.db	1
	.dw	0,(Sstm8_hd44780$lcd_init$137)
	.db	14
	.uleb128	2
	.db	1
	.dw	0,(Sstm8_hd44780$lcd_init$139)
	.db	14
	.uleb128	3
	.db	1
	.dw	0,(Sstm8_hd44780$lcd_init$140)
	.db	14
	.uleb128	2
	.db	1
	.dw	0,(Sstm8_hd44780$lcd_init$142)
	.db	14
	.uleb128	3
	.db	1
	.dw	0,(Sstm8_hd44780$lcd_init$143)
	.db	14
	.uleb128	2

	.area .debug_frame (NOLOAD)
	.dw	0
	.dw	Ldebug_CIE15_end-Ldebug_CIE15_start
Ldebug_CIE15_start:
	.dw	0xffff
	.dw	0xffff
	.db	1
	.db	0
	.uleb128	1
	.sleb128	-1
	.db	9
	.db	12
	.uleb128	8
	.uleb128	2
	.db	137
	.uleb128	1
Ldebug_CIE15_end:
	.dw	0,47
	.dw	0,(Ldebug_CIE15_start-4)
	.dw	0,(Sstm8_hd44780$lcd_puts$65)	;initial loc
	.dw	0,Sstm8_hd44780$lcd_puts$77-Sstm8_hd44780$lcd_puts$65
	.db	1
	.dw	0,(Sstm8_hd44780$lcd_puts$65)
	.db	14
	.uleb128	2
	.db	1
	.dw	0,(Sstm8_hd44780$lcd_puts$69)
	.db	14
	.uleb128	4
	.db	1
	.dw	0,(Sstm8_hd44780$lcd_puts$70)
	.db	14
	.uleb128	5
	.db	1
	.dw	0,(Sstm8_hd44780$lcd_puts$71)
	.db	14
	.uleb128	4
	.db	1
	.dw	0,(Sstm8_hd44780$lcd_puts$72)
	.db	14
	.uleb128	2

	.area .debug_frame (NOLOAD)
	.dw	0
	.dw	Ldebug_CIE16_end-Ldebug_CIE16_start
Ldebug_CIE16_start:
	.dw	0xffff
	.dw	0xffff
	.db	1
	.db	0
	.uleb128	1
	.sleb128	-1
	.db	9
	.db	12
	.uleb128	8
	.uleb128	2
	.db	137
	.uleb128	1
Ldebug_CIE16_end:
	.dw	0,75
	.dw	0,(Ldebug_CIE16_start-4)
	.dw	0,(Sstm8_hd44780$lcd_store_symbol$44)	;initial loc
	.dw	0,Sstm8_hd44780$lcd_store_symbol$63-Sstm8_hd44780$lcd_store_symbol$44
	.db	1
	.dw	0,(Sstm8_hd44780$lcd_store_symbol$44)
	.db	14
	.uleb128	2
	.db	1
	.dw	0,(Sstm8_hd44780$lcd_store_symbol$45)
	.db	14
	.uleb128	3
	.db	1
	.dw	0,(Sstm8_hd44780$lcd_store_symbol$48)
	.db	14
	.uleb128	4
	.db	1
	.dw	0,(Sstm8_hd44780$lcd_store_symbol$49)
	.db	14
	.uleb128	3
	.db	1
	.dw	0,(Sstm8_hd44780$lcd_store_symbol$53)
	.db	14
	.uleb128	4
	.db	1
	.dw	0,(Sstm8_hd44780$lcd_store_symbol$54)
	.db	14
	.uleb128	3
	.db	1
	.dw	0,(Sstm8_hd44780$lcd_store_symbol$58)
	.db	14
	.uleb128	4
	.db	1
	.dw	0,(Sstm8_hd44780$lcd_store_symbol$59)
	.db	14
	.uleb128	3
	.db	1
	.dw	0,(Sstm8_hd44780$lcd_store_symbol$61)
	.db	14
	.uleb128	2

	.area .debug_frame (NOLOAD)
	.dw	0
	.dw	Ldebug_CIE17_end-Ldebug_CIE17_start
Ldebug_CIE17_start:
	.dw	0xffff
	.dw	0xffff
	.db	1
	.db	0
	.uleb128	1
	.sleb128	-1
	.db	9
	.db	12
	.uleb128	8
	.uleb128	2
	.db	137
	.uleb128	1
Ldebug_CIE17_end:
	.dw	0,117
	.dw	0,(Ldebug_CIE17_start-4)
	.dw	0,(Sstm8_hd44780$_delay_us$13)	;initial loc
	.dw	0,Sstm8_hd44780$_delay_us$42-Sstm8_hd44780$_delay_us$13
	.db	1
	.dw	0,(Sstm8_hd44780$_delay_us$13)
	.db	14
	.uleb128	2
	.db	1
	.dw	0,(Sstm8_hd44780$_delay_us$15)
	.db	14
	.uleb128	4
	.db	1
	.dw	0,(Sstm8_hd44780$_delay_us$16)
	.db	14
	.uleb128	6
	.db	1
	.dw	0,(Sstm8_hd44780$_delay_us$17)
	.db	14
	.uleb128	7
	.db	1
	.dw	0,(Sstm8_hd44780$_delay_us$18)
	.db	14
	.uleb128	8
	.db	1
	.dw	0,(Sstm8_hd44780$_delay_us$19)
	.db	14
	.uleb128	9
	.db	1
	.dw	0,(Sstm8_hd44780$_delay_us$20)
	.db	14
	.uleb128	10
	.db	1
	.dw	0,(Sstm8_hd44780$_delay_us$21)
	.db	14
	.uleb128	2
	.db	1
	.dw	0,(Sstm8_hd44780$_delay_us$23)
	.db	14
	.uleb128	3
	.db	1
	.dw	0,(Sstm8_hd44780$_delay_us$24)
	.db	14
	.uleb128	4
	.db	1
	.dw	0,(Sstm8_hd44780$_delay_us$25)
	.db	14
	.uleb128	5
	.db	1
	.dw	0,(Sstm8_hd44780$_delay_us$26)
	.db	14
	.uleb128	6
	.db	1
	.dw	0,(Sstm8_hd44780$_delay_us$27)
	.db	14
	.uleb128	8
	.db	1
	.dw	0,(Sstm8_hd44780$_delay_us$28)
	.db	14
	.uleb128	10
	.db	1
	.dw	0,(Sstm8_hd44780$_delay_us$29)
	.db	14
	.uleb128	2

	.area .debug_frame (NOLOAD)
	.dw	0
	.dw	Ldebug_CIE18_end-Ldebug_CIE18_start
Ldebug_CIE18_start:
	.dw	0xffff
	.dw	0xffff
	.db	1
	.db	0
	.uleb128	1
	.sleb128	-1
	.db	9
	.db	12
	.uleb128	8
	.uleb128	2
	.db	137
	.uleb128	1
Ldebug_CIE18_end:
	.dw	0,19
	.dw	0,(Ldebug_CIE18_start-4)
	.dw	0,(Sstm8_hd44780$_delay_cycl$1)	;initial loc
	.dw	0,Sstm8_hd44780$_delay_cycl$11-Sstm8_hd44780$_delay_cycl$1
	.db	1
	.dw	0,(Sstm8_hd44780$_delay_cycl$1)
	.db	14
	.uleb128	2
