                                      1 ;--------------------------------------------------------
                                      2 ; File Created by SDCC : free open source ANSI-C Compiler
                                      3 ; Version 4.1.0 #12072 (MINGW64)
                                      4 ;--------------------------------------------------------
                                      5 	.module stm8_hd44780
                                      6 	.optsdcc -mstm8
                                      7 	
                                      8 ;--------------------------------------------------------
                                      9 ; Public variables in this module
                                     10 ;--------------------------------------------------------
                                     11 	.globl _GPIO_ReadInputPin
                                     12 	.globl _GPIO_WriteLow
                                     13 	.globl _GPIO_WriteHigh
                                     14 	.globl _GPIO_Init
                                     15 	.globl _lcd_store_symbol
                                     16 	.globl _lcd_puts
                                     17 	.globl _lcd_init
                                     18 	.globl _lcd_gotoxy
                                     19 	.globl _lcd_init_hw
                                     20 	.globl _lcd_bus_outputs
                                     21 	.globl _lcd_bus_inputs
                                     22 	.globl _lcd_deinit_hw
                                     23 	.globl _lcd_bus_set
                                     24 	.globl _lcd_bus_read
                                     25 	.globl _lcd_e_tick
                                     26 	.globl _lcd_command
                                     27 	.globl _lcd_data
                                     28 	.globl _lcd_read
                                     29 	.globl _lcd_bus_sleep
                                     30 	.globl _lcd_bus_wakeup
                                     31 	.globl _lcd_busy_wait
                                     32 ;--------------------------------------------------------
                                     33 ; ram data
                                     34 ;--------------------------------------------------------
                                     35 	.area DATA
                                     36 ;--------------------------------------------------------
                                     37 ; ram data
                                     38 ;--------------------------------------------------------
                                     39 	.area INITIALIZED
                                     40 ;--------------------------------------------------------
                                     41 ; absolute external ram data
                                     42 ;--------------------------------------------------------
                                     43 	.area DABS (ABS)
                                     44 
                                     45 ; default segment ordering for linker
                                     46 	.area HOME
                                     47 	.area GSINIT
                                     48 	.area GSFINAL
                                     49 	.area CONST
                                     50 	.area INITIALIZER
                                     51 	.area CODE
                                     52 
                                     53 ;--------------------------------------------------------
                                     54 ; global & static initialisations
                                     55 ;--------------------------------------------------------
                                     56 	.area HOME
                                     57 	.area GSINIT
                                     58 	.area GSFINAL
                                     59 	.area GSINIT
                                     60 ;--------------------------------------------------------
                                     61 ; Home
                                     62 ;--------------------------------------------------------
                                     63 	.area HOME
                                     64 	.area HOME
                                     65 ;--------------------------------------------------------
                                     66 ; code
                                     67 ;--------------------------------------------------------
                                     68 	.area CODE
                           000000    69 	Sstm8_hd44780$_delay_cycl$0 ==.
                                     70 ;	inc/delay.h: 14: static @inline void _delay_cycl( unsigned short __ticks )
                                     71 ; genLabel
                                     72 ;	-----------------------------------------
                                     73 ;	 function _delay_cycl
                                     74 ;	-----------------------------------------
                                     75 ;	Register assignment is optimal.
                                     76 ;	Stack space usage: 0 bytes.
      008272                         77 __delay_cycl:
                           000000    78 	Sstm8_hd44780$_delay_cycl$1 ==.
                           000000    79 	Sstm8_hd44780$_delay_cycl$2 ==.
                                     80 ;	inc/delay.h: 25: __asm__("nop\n nop\n"); 
                                     81 ;	genInline
      008272 9D               [ 1]   82 	nop
      008273 9D               [ 1]   83 	nop
                           000002    84 	Sstm8_hd44780$_delay_cycl$3 ==.
                                     85 ;	inc/delay.h: 26: do { 		// ASM: ldw X, #tick; lab$: decw X; tnzw X; jrne lab$
                                     86 ; genAssign
      008274 1E 03            [ 2]   87 	ldw	x, (0x03, sp)
                                     88 ; genLabel
      008276                         89 00101$:
                           000004    90 	Sstm8_hd44780$_delay_cycl$4 ==.
                           000004    91 	Sstm8_hd44780$_delay_cycl$5 ==.
                                     92 ;	inc/delay.h: 27: __ticks--;//      2c;                 1c;     2c    ; 1/2c   
                                     93 ; genMinus
      008276 5A               [ 2]   94 	decw	x
                           000005    95 	Sstm8_hd44780$_delay_cycl$6 ==.
                           000005    96 	Sstm8_hd44780$_delay_cycl$7 ==.
                                     97 ;	inc/delay.h: 28: } while ( __ticks );
                                     98 ; genIfx
      008277 5D               [ 2]   99 	tnzw	x
      008278 27 03            [ 1]  100 	jreq	00117$
      00827A CC 82 76         [ 2]  101 	jp	00101$
      00827D                        102 00117$:
                           00000B   103 	Sstm8_hd44780$_delay_cycl$8 ==.
                                    104 ;	inc/delay.h: 29: __asm__("nop\n");
                                    105 ;	genInline
      00827D 9D               [ 1]  106 	nop
                                    107 ; genLabel
      00827E                        108 00104$:
                           00000C   109 	Sstm8_hd44780$_delay_cycl$9 ==.
                                    110 ;	inc/delay.h: 39: }
                                    111 ; genEndFunction
                           00000C   112 	Sstm8_hd44780$_delay_cycl$10 ==.
                           00000C   113 	XFstm8_hd44780$_delay_cycl$0$0 ==.
      00827E 81               [ 4]  114 	ret
                           00000D   115 	Sstm8_hd44780$_delay_cycl$11 ==.
                           00000D   116 	Sstm8_hd44780$_delay_us$12 ==.
                                    117 ;	inc/delay.h: 41: static @inline void _delay_us( const unsigned short __us ){
                                    118 ; genLabel
                                    119 ;	-----------------------------------------
                                    120 ;	 function _delay_us
                                    121 ;	-----------------------------------------
                                    122 ;	Register assignment might be sub-optimal.
                                    123 ;	Stack space usage: 0 bytes.
      00827F                        124 __delay_us:
                           00000D   125 	Sstm8_hd44780$_delay_us$13 ==.
                           00000D   126 	Sstm8_hd44780$_delay_us$14 ==.
                                    127 ;	inc/delay.h: 42: _delay_cycl( (unsigned short)( T_COUNT(__us) ));
                                    128 ; genCast
                                    129 ; genAssign
      00827F 16 03            [ 2]  130 	ldw	y, (0x03, sp)
      008281 5F               [ 1]  131 	clrw	x
                                    132 ; genIPush
      008282 90 89            [ 2]  133 	pushw	y
                           000012   134 	Sstm8_hd44780$_delay_us$15 ==.
      008284 89               [ 2]  135 	pushw	x
                           000013   136 	Sstm8_hd44780$_delay_us$16 ==.
                                    137 ; genIPush
      008285 4B 00            [ 1]  138 	push	#0x00
                           000015   139 	Sstm8_hd44780$_delay_us$17 ==.
      008287 4B 24            [ 1]  140 	push	#0x24
                           000017   141 	Sstm8_hd44780$_delay_us$18 ==.
      008289 4B F4            [ 1]  142 	push	#0xf4
                           000019   143 	Sstm8_hd44780$_delay_us$19 ==.
      00828B 4B 00            [ 1]  144 	push	#0x00
                           00001B   145 	Sstm8_hd44780$_delay_us$20 ==.
                                    146 ; genCall
      00828D CD A4 C6         [ 4]  147 	call	__mullong
      008290 5B 08            [ 2]  148 	addw	sp, #8
                           000020   149 	Sstm8_hd44780$_delay_us$21 ==.
                           000020   150 	Sstm8_hd44780$_delay_us$22 ==.
                                    151 ; genCast
                                    152 ; genAssign
                                    153 ; genIPush
      008292 4B 40            [ 1]  154 	push	#0x40
                           000022   155 	Sstm8_hd44780$_delay_us$23 ==.
      008294 4B 42            [ 1]  156 	push	#0x42
                           000024   157 	Sstm8_hd44780$_delay_us$24 ==.
      008296 4B 0F            [ 1]  158 	push	#0x0f
                           000026   159 	Sstm8_hd44780$_delay_us$25 ==.
      008298 4B 00            [ 1]  160 	push	#0x00
                           000028   161 	Sstm8_hd44780$_delay_us$26 ==.
                                    162 ; genIPush
      00829A 89               [ 2]  163 	pushw	x
                           000029   164 	Sstm8_hd44780$_delay_us$27 ==.
      00829B 90 89            [ 2]  165 	pushw	y
                           00002B   166 	Sstm8_hd44780$_delay_us$28 ==.
                                    167 ; genCall
      00829D CD A4 48         [ 4]  168 	call	__divulong
      0082A0 5B 08            [ 2]  169 	addw	sp, #8
                           000030   170 	Sstm8_hd44780$_delay_us$29 ==.
                           000030   171 	Sstm8_hd44780$_delay_us$30 ==.
                                    172 ; genRightShiftLiteral
      0082A2 90 54            [ 2]  173 	srlw	y
      0082A4 56               [ 2]  174 	rrcw	x
      0082A5 90 54            [ 2]  175 	srlw	y
      0082A7 56               [ 2]  176 	rrcw	x
      0082A8 90 54            [ 2]  177 	srlw	y
      0082AA 56               [ 2]  178 	rrcw	x
                                    179 ; genCast
                                    180 ; genAssign
                           000039   181 	Sstm8_hd44780$_delay_us$31 ==.
                                    182 ; genPlus
      0082AB 5C               [ 1]  183 	incw	x
                                    184 ; genAssign
                                    185 ; genAssign
                           00003A   186 	Sstm8_hd44780$_delay_us$32 ==.
                                    187 ; genAssign
                           00003A   188 	Sstm8_hd44780$_delay_us$33 ==.
                                    189 ;	inc/delay.h: 25: __asm__("nop\n nop\n"); 
                                    190 ;	genInline
      0082AC 9D               [ 1]  191 	nop
      0082AD 9D               [ 1]  192 	nop
                           00003C   193 	Sstm8_hd44780$_delay_us$34 ==.
                           00003C   194 	Sstm8_hd44780$_delay_us$35 ==.
                                    195 ;	inc/delay.h: 26: do { 		// ASM: ldw X, #tick; lab$: decw X; tnzw X; jrne lab$
                                    196 ; genAssign
                                    197 ; genLabel
      0082AE                        198 00101$:
                           00003C   199 	Sstm8_hd44780$_delay_us$36 ==.
                                    200 ;	inc/delay.h: 27: __ticks--;//      2c;                 1c;     2c    ; 1/2c   
                                    201 ; genMinus
      0082AE 5A               [ 2]  202 	decw	x
                           00003D   203 	Sstm8_hd44780$_delay_us$37 ==.
                                    204 ;	inc/delay.h: 28: } while ( __ticks );
                                    205 ; genIfx
      0082AF 5D               [ 2]  206 	tnzw	x
      0082B0 27 03            [ 1]  207 	jreq	00118$
      0082B2 CC 82 AE         [ 2]  208 	jp	00101$
      0082B5                        209 00118$:
                                    210 ;	inc/delay.h: 29: __asm__("nop\n");
                                    211 ;	genInline
      0082B5 9D               [ 1]  212 	nop
                           000044   213 	Sstm8_hd44780$_delay_us$38 ==.
                           000044   214 	Sstm8_hd44780$_delay_us$39 ==.
                                    215 ;	inc/delay.h: 42: _delay_cycl( (unsigned short)( T_COUNT(__us) ));
                                    216 ; genLabel
      0082B6                        217 00105$:
                           000044   218 	Sstm8_hd44780$_delay_us$40 ==.
                                    219 ;	inc/delay.h: 43: }
                                    220 ; genEndFunction
                           000044   221 	Sstm8_hd44780$_delay_us$41 ==.
                           000044   222 	XFstm8_hd44780$_delay_us$0$0 ==.
      0082B6 81               [ 4]  223 	ret
                           000045   224 	Sstm8_hd44780$_delay_us$42 ==.
                           000045   225 	Sstm8_hd44780$lcd_store_symbol$43 ==.
                                    226 ;	./src/stm8_hd44780.c: 13: void lcd_store_symbol(uint8_t pos, uint8_t* charmap){
                                    227 ; genLabel
                                    228 ;	-----------------------------------------
                                    229 ;	 function lcd_store_symbol
                                    230 ;	-----------------------------------------
                                    231 ;	Register assignment is optimal.
                                    232 ;	Stack space usage: 1 bytes.
      0082B7                        233 _lcd_store_symbol:
                           000045   234 	Sstm8_hd44780$lcd_store_symbol$44 ==.
      0082B7 88               [ 1]  235 	push	a
                           000046   236 	Sstm8_hd44780$lcd_store_symbol$45 ==.
                           000046   237 	Sstm8_hd44780$lcd_store_symbol$46 ==.
                                    238 ;	./src/stm8_hd44780.c: 15: if(pos>7) return;
                                    239 ; genCmp
                                    240 ; genCmpTop
      0082B8 7B 04            [ 1]  241 	ld	a, (0x04, sp)
      0082BA A1 07            [ 1]  242 	cp	a, #0x07
      0082BC 22 03            [ 1]  243 	jrugt	00124$
      0082BE CC 82 C4         [ 2]  244 	jp	00102$
      0082C1                        245 00124$:
                                    246 ; skipping generated iCode
                                    247 ; genReturn
      0082C1 CC 82 ED         [ 2]  248 	jp	00106$
                                    249 ; genLabel
      0082C4                        250 00102$:
                           000052   251 	Sstm8_hd44780$lcd_store_symbol$47 ==.
                                    252 ;	./src/stm8_hd44780.c: 16: lcd_command(LCD_SET_CGRAM | pos);
                                    253 ; genOr
      0082C4 7B 04            [ 1]  254 	ld	a, (0x04, sp)
      0082C6 AA 40            [ 1]  255 	or	a, #0x40
                                    256 ; genIPush
      0082C8 88               [ 1]  257 	push	a
                           000057   258 	Sstm8_hd44780$lcd_store_symbol$48 ==.
                                    259 ; genCall
      0082C9 CD 85 C6         [ 4]  260 	call	_lcd_command
      0082CC 84               [ 1]  261 	pop	a
                           00005B   262 	Sstm8_hd44780$lcd_store_symbol$49 ==.
                           00005B   263 	Sstm8_hd44780$lcd_store_symbol$50 ==.
                                    264 ;	./src/stm8_hd44780.c: 17: for(i=0;i<8;i++){
                                    265 ; genAssign
      0082CD 0F 01            [ 1]  266 	clr	(0x01, sp)
                                    267 ; genLabel
      0082CF                        268 00104$:
                           00005D   269 	Sstm8_hd44780$lcd_store_symbol$51 ==.
                           00005D   270 	Sstm8_hd44780$lcd_store_symbol$52 ==.
                                    271 ;	./src/stm8_hd44780.c: 18: lcd_data(charmap[i]);
                                    272 ; genPlus
      0082CF 5F               [ 1]  273 	clrw	x
      0082D0 7B 01            [ 1]  274 	ld	a, (0x01, sp)
      0082D2 97               [ 1]  275 	ld	xl, a
      0082D3 72 FB 05         [ 2]  276 	addw	x, (0x05, sp)
                                    277 ; genPointerGet
      0082D6 F6               [ 1]  278 	ld	a, (x)
                                    279 ; genIPush
      0082D7 88               [ 1]  280 	push	a
                           000066   281 	Sstm8_hd44780$lcd_store_symbol$53 ==.
                                    282 ; genCall
      0082D8 CD 85 FD         [ 4]  283 	call	_lcd_data
      0082DB 84               [ 1]  284 	pop	a
                           00006A   285 	Sstm8_hd44780$lcd_store_symbol$54 ==.
                           00006A   286 	Sstm8_hd44780$lcd_store_symbol$55 ==.
                           00006A   287 	Sstm8_hd44780$lcd_store_symbol$56 ==.
                                    288 ;	./src/stm8_hd44780.c: 17: for(i=0;i<8;i++){
                                    289 ; genPlus
      0082DC 0C 01            [ 1]  290 	inc	(0x01, sp)
                                    291 ; genCmp
                                    292 ; genCmpTop
      0082DE 7B 01            [ 1]  293 	ld	a, (0x01, sp)
      0082E0 A1 08            [ 1]  294 	cp	a, #0x08
      0082E2 24 03            [ 1]  295 	jrnc	00125$
      0082E4 CC 82 CF         [ 2]  296 	jp	00104$
      0082E7                        297 00125$:
                                    298 ; skipping generated iCode
                           000075   299 	Sstm8_hd44780$lcd_store_symbol$57 ==.
                                    300 ;	./src/stm8_hd44780.c: 20: lcd_command(LCD_SET_DDRAM | 0); // other funtions (like lcd_puts) relies that address counter points into DDRAM
                                    301 ; genIPush
      0082E7 4B 80            [ 1]  302 	push	#0x80
                           000077   303 	Sstm8_hd44780$lcd_store_symbol$58 ==.
                                    304 ; genCall
      0082E9 CD 85 C6         [ 4]  305 	call	_lcd_command
      0082EC 84               [ 1]  306 	pop	a
                           00007B   307 	Sstm8_hd44780$lcd_store_symbol$59 ==.
                                    308 ; genLabel
      0082ED                        309 00106$:
                           00007B   310 	Sstm8_hd44780$lcd_store_symbol$60 ==.
                                    311 ;	./src/stm8_hd44780.c: 21: }
                                    312 ; genEndFunction
      0082ED 84               [ 1]  313 	pop	a
                           00007C   314 	Sstm8_hd44780$lcd_store_symbol$61 ==.
                           00007C   315 	Sstm8_hd44780$lcd_store_symbol$62 ==.
                           00007C   316 	XG$lcd_store_symbol$0$0 ==.
      0082EE 81               [ 4]  317 	ret
                           00007D   318 	Sstm8_hd44780$lcd_store_symbol$63 ==.
                           00007D   319 	Sstm8_hd44780$lcd_puts$64 ==.
                                    320 ;	./src/stm8_hd44780.c: 25: void lcd_puts(char* text){
                                    321 ; genLabel
                                    322 ;	-----------------------------------------
                                    323 ;	 function lcd_puts
                                    324 ;	-----------------------------------------
                                    325 ;	Register assignment is optimal.
                                    326 ;	Stack space usage: 0 bytes.
      0082EF                        327 _lcd_puts:
                           00007D   328 	Sstm8_hd44780$lcd_puts$65 ==.
                           00007D   329 	Sstm8_hd44780$lcd_puts$66 ==.
                                    330 ;	./src/stm8_hd44780.c: 26: while(*text){
                                    331 ; genAssign
      0082EF 1E 03            [ 2]  332 	ldw	x, (0x03, sp)
                                    333 ; genLabel
      0082F1                        334 00101$:
                                    335 ; genPointerGet
      0082F1 F6               [ 1]  336 	ld	a, (x)
                                    337 ; genIfx
      0082F2 4D               [ 1]  338 	tnz	a
      0082F3 26 03            [ 1]  339 	jrne	00117$
      0082F5 CC 83 03         [ 2]  340 	jp	00104$
      0082F8                        341 00117$:
                           000086   342 	Sstm8_hd44780$lcd_puts$67 ==.
                           000086   343 	Sstm8_hd44780$lcd_puts$68 ==.
                                    344 ;	./src/stm8_hd44780.c: 27: lcd_data(*text);
                                    345 ; genIPush
      0082F8 89               [ 2]  346 	pushw	x
                           000087   347 	Sstm8_hd44780$lcd_puts$69 ==.
      0082F9 88               [ 1]  348 	push	a
                           000088   349 	Sstm8_hd44780$lcd_puts$70 ==.
                                    350 ; genCall
      0082FA CD 85 FD         [ 4]  351 	call	_lcd_data
      0082FD 84               [ 1]  352 	pop	a
                           00008C   353 	Sstm8_hd44780$lcd_puts$71 ==.
      0082FE 85               [ 2]  354 	popw	x
                           00008D   355 	Sstm8_hd44780$lcd_puts$72 ==.
                           00008D   356 	Sstm8_hd44780$lcd_puts$73 ==.
                                    357 ;	./src/stm8_hd44780.c: 28: text++;
                                    358 ; genPlus
      0082FF 5C               [ 1]  359 	incw	x
                           00008E   360 	Sstm8_hd44780$lcd_puts$74 ==.
                                    361 ; genGoto
      008300 CC 82 F1         [ 2]  362 	jp	00101$
                                    363 ; genLabel
      008303                        364 00104$:
                           000091   365 	Sstm8_hd44780$lcd_puts$75 ==.
                                    366 ;	./src/stm8_hd44780.c: 30: }
                                    367 ; genEndFunction
                           000091   368 	Sstm8_hd44780$lcd_puts$76 ==.
                           000091   369 	XG$lcd_puts$0$0 ==.
      008303 81               [ 4]  370 	ret
                           000092   371 	Sstm8_hd44780$lcd_puts$77 ==.
                           000092   372 	Sstm8_hd44780$lcd_init$78 ==.
                                    373 ;	./src/stm8_hd44780.c: 32: void lcd_init(void){
                                    374 ; genLabel
                                    375 ;	-----------------------------------------
                                    376 ;	 function lcd_init
                                    377 ;	-----------------------------------------
                                    378 ;	Register assignment is optimal.
                                    379 ;	Stack space usage: 0 bytes.
      008304                        380 _lcd_init:
                           000092   381 	Sstm8_hd44780$lcd_init$79 ==.
                           000092   382 	Sstm8_hd44780$lcd_init$80 ==.
                                    383 ;	./src/stm8_hd44780.c: 33: lcd_init_hw();
                                    384 ; genCall
      008304 CD 83 B9         [ 4]  385 	call	_lcd_init_hw
                           000095   386 	Sstm8_hd44780$lcd_init$81 ==.
                                    387 ;	./src/stm8_hd44780.c: 35: lcd_bus_outputs();
                                    388 ; genCall
      008307 CD 83 E4         [ 4]  389 	call	_lcd_bus_outputs
                           000098   390 	Sstm8_hd44780$lcd_init$82 ==.
                                    391 ;	inc/delay.h: 42: _delay_cycl( (unsigned short)( T_COUNT(__us) ));
                                    392 ; genAssign
      00830A AE 01 D9         [ 2]  393 	ldw	x, #0x01d9
                           00009B   394 	Sstm8_hd44780$lcd_init$83 ==.
                                    395 ;	inc/delay.h: 25: __asm__("nop\n nop\n"); 
                                    396 ;	genInline
      00830D 9D               [ 1]  397 	nop
      00830E 9D               [ 1]  398 	nop
                           00009D   399 	Sstm8_hd44780$lcd_init$84 ==.
                           00009D   400 	Sstm8_hd44780$lcd_init$85 ==.
                                    401 ;	inc/delay.h: 26: do { 		// ASM: ldw X, #tick; lab$: decw X; tnzw X; jrne lab$
                                    402 ; genAssign
                                    403 ; genLabel
      00830F                        404 00101$:
                           00009D   405 	Sstm8_hd44780$lcd_init$86 ==.
                                    406 ;	inc/delay.h: 27: __ticks--;//      2c;                 1c;     2c    ; 1/2c   
                                    407 ; genMinus
      00830F 5A               [ 2]  408 	decw	x
                           00009E   409 	Sstm8_hd44780$lcd_init$87 ==.
                                    410 ;	inc/delay.h: 28: } while ( __ticks );
                                    411 ; genIfx
      008310 5D               [ 2]  412 	tnzw	x
      008311 27 03            [ 1]  413 	jreq	00167$
      008313 CC 83 0F         [ 2]  414 	jp	00101$
      008316                        415 00167$:
                                    416 ;	inc/delay.h: 29: __asm__("nop\n");
                                    417 ;	genInline
      008316 9D               [ 1]  418 	nop
                           0000A5   419 	Sstm8_hd44780$lcd_init$88 ==.
                           0000A5   420 	Sstm8_hd44780$lcd_init$89 ==.
                                    421 ;	./src/stm8_hd44780.c: 38: lcd_bus_set(0b0011);
                                    422 ; genIPush
      008317 4B 03            [ 1]  423 	push	#0x03
                           0000A7   424 	Sstm8_hd44780$lcd_init$90 ==.
                                    425 ; genCall
      008319 CD 84 AA         [ 4]  426 	call	_lcd_bus_set
      00831C 84               [ 1]  427 	pop	a
                           0000AB   428 	Sstm8_hd44780$lcd_init$91 ==.
                           0000AB   429 	Sstm8_hd44780$lcd_init$92 ==.
                                    430 ;	./src/stm8_hd44780.c: 39: lcd_e_tick();
                                    431 ; genCall
      00831D CD 85 95         [ 4]  432 	call	_lcd_e_tick
                           0000AE   433 	Sstm8_hd44780$lcd_init$93 ==.
                                    434 ;	inc/delay.h: 42: _delay_cycl( (unsigned short)( T_COUNT(__us) ));
                                    435 ; genAssign
      008320 AE 00 93         [ 2]  436 	ldw	x, #0x0093
                           0000B1   437 	Sstm8_hd44780$lcd_init$94 ==.
                                    438 ;	inc/delay.h: 25: __asm__("nop\n nop\n"); 
                                    439 ;	genInline
      008323 9D               [ 1]  440 	nop
      008324 9D               [ 1]  441 	nop
                           0000B3   442 	Sstm8_hd44780$lcd_init$95 ==.
                           0000B3   443 	Sstm8_hd44780$lcd_init$96 ==.
                                    444 ;	inc/delay.h: 26: do { 		// ASM: ldw X, #tick; lab$: decw X; tnzw X; jrne lab$
                                    445 ; genAssign
                                    446 ; genLabel
      008325                        447 00106$:
                           0000B3   448 	Sstm8_hd44780$lcd_init$97 ==.
                                    449 ;	inc/delay.h: 27: __ticks--;//      2c;                 1c;     2c    ; 1/2c   
                                    450 ; genMinus
      008325 5A               [ 2]  451 	decw	x
                           0000B4   452 	Sstm8_hd44780$lcd_init$98 ==.
                                    453 ;	inc/delay.h: 28: } while ( __ticks );
                                    454 ; genIfx
      008326 5D               [ 2]  455 	tnzw	x
      008327 27 03            [ 1]  456 	jreq	00168$
      008329 CC 83 25         [ 2]  457 	jp	00106$
      00832C                        458 00168$:
                                    459 ;	inc/delay.h: 29: __asm__("nop\n");
                                    460 ;	genInline
      00832C 9D               [ 1]  461 	nop
                           0000BB   462 	Sstm8_hd44780$lcd_init$99 ==.
                           0000BB   463 	Sstm8_hd44780$lcd_init$100 ==.
                                    464 ;	./src/stm8_hd44780.c: 42: lcd_bus_set(0b0011);
                                    465 ; genIPush
      00832D 4B 03            [ 1]  466 	push	#0x03
                           0000BD   467 	Sstm8_hd44780$lcd_init$101 ==.
                                    468 ; genCall
      00832F CD 84 AA         [ 4]  469 	call	_lcd_bus_set
      008332 84               [ 1]  470 	pop	a
                           0000C1   471 	Sstm8_hd44780$lcd_init$102 ==.
                           0000C1   472 	Sstm8_hd44780$lcd_init$103 ==.
                                    473 ;	./src/stm8_hd44780.c: 43: lcd_e_tick();
                                    474 ; genCall
      008333 CD 85 95         [ 4]  475 	call	_lcd_e_tick
                           0000C4   476 	Sstm8_hd44780$lcd_init$104 ==.
                                    477 ;	inc/delay.h: 42: _delay_cycl( (unsigned short)( T_COUNT(__us) ));
                                    478 ; genAssign
      008336 AE 00 C9         [ 2]  479 	ldw	x, #0x00c9
                           0000C7   480 	Sstm8_hd44780$lcd_init$105 ==.
                                    481 ;	inc/delay.h: 25: __asm__("nop\n nop\n"); 
                                    482 ;	genInline
      008339 9D               [ 1]  483 	nop
      00833A 9D               [ 1]  484 	nop
                           0000C9   485 	Sstm8_hd44780$lcd_init$106 ==.
                           0000C9   486 	Sstm8_hd44780$lcd_init$107 ==.
                                    487 ;	inc/delay.h: 26: do { 		// ASM: ldw X, #tick; lab$: decw X; tnzw X; jrne lab$
                                    488 ; genAssign
                                    489 ; genLabel
      00833B                        490 00111$:
                           0000C9   491 	Sstm8_hd44780$lcd_init$108 ==.
                                    492 ;	inc/delay.h: 27: __ticks--;//      2c;                 1c;     2c    ; 1/2c   
                                    493 ; genMinus
      00833B 5A               [ 2]  494 	decw	x
                           0000CA   495 	Sstm8_hd44780$lcd_init$109 ==.
                                    496 ;	inc/delay.h: 28: } while ( __ticks );
                                    497 ; genIfx
      00833C 5D               [ 2]  498 	tnzw	x
      00833D 27 03            [ 1]  499 	jreq	00169$
      00833F CC 83 3B         [ 2]  500 	jp	00111$
      008342                        501 00169$:
                                    502 ;	inc/delay.h: 29: __asm__("nop\n");
                                    503 ;	genInline
      008342 9D               [ 1]  504 	nop
                           0000D1   505 	Sstm8_hd44780$lcd_init$110 ==.
                           0000D1   506 	Sstm8_hd44780$lcd_init$111 ==.
                                    507 ;	./src/stm8_hd44780.c: 46: lcd_bus_set(0b0011);
                                    508 ; genIPush
      008343 4B 03            [ 1]  509 	push	#0x03
                           0000D3   510 	Sstm8_hd44780$lcd_init$112 ==.
                                    511 ; genCall
      008345 CD 84 AA         [ 4]  512 	call	_lcd_bus_set
      008348 84               [ 1]  513 	pop	a
                           0000D7   514 	Sstm8_hd44780$lcd_init$113 ==.
                           0000D7   515 	Sstm8_hd44780$lcd_init$114 ==.
                                    516 ;	./src/stm8_hd44780.c: 47: lcd_e_tick();
                                    517 ; genCall
      008349 CD 85 95         [ 4]  518 	call	_lcd_e_tick
                           0000DA   519 	Sstm8_hd44780$lcd_init$115 ==.
                                    520 ;	./src/stm8_hd44780.c: 48: lcd_bus_set(0b0010);
                                    521 ; genIPush
      00834C 4B 02            [ 1]  522 	push	#0x02
                           0000DC   523 	Sstm8_hd44780$lcd_init$116 ==.
                                    524 ; genCall
      00834E CD 84 AA         [ 4]  525 	call	_lcd_bus_set
      008351 84               [ 1]  526 	pop	a
                           0000E0   527 	Sstm8_hd44780$lcd_init$117 ==.
                           0000E0   528 	Sstm8_hd44780$lcd_init$118 ==.
                                    529 ;	./src/stm8_hd44780.c: 49: lcd_e_tick();
                                    530 ; genCall
      008352 CD 85 95         [ 4]  531 	call	_lcd_e_tick
                           0000E3   532 	Sstm8_hd44780$lcd_init$119 ==.
                                    533 ;	inc/delay.h: 42: _delay_cycl( (unsigned short)( T_COUNT(__us) ));
                                    534 ; genAssign
      008355 AE 00 51         [ 2]  535 	ldw	x, #0x0051
                           0000E6   536 	Sstm8_hd44780$lcd_init$120 ==.
                                    537 ;	inc/delay.h: 25: __asm__("nop\n nop\n"); 
                                    538 ;	genInline
      008358 9D               [ 1]  539 	nop
      008359 9D               [ 1]  540 	nop
                           0000E8   541 	Sstm8_hd44780$lcd_init$121 ==.
                           0000E8   542 	Sstm8_hd44780$lcd_init$122 ==.
                                    543 ;	inc/delay.h: 26: do { 		// ASM: ldw X, #tick; lab$: decw X; tnzw X; jrne lab$
                                    544 ; genAssign
                                    545 ; genLabel
      00835A                        546 00116$:
                           0000E8   547 	Sstm8_hd44780$lcd_init$123 ==.
                                    548 ;	inc/delay.h: 27: __ticks--;//      2c;                 1c;     2c    ; 1/2c   
                                    549 ; genMinus
      00835A 5A               [ 2]  550 	decw	x
                           0000E9   551 	Sstm8_hd44780$lcd_init$124 ==.
                                    552 ;	inc/delay.h: 28: } while ( __ticks );
                                    553 ; genIfx
      00835B 5D               [ 2]  554 	tnzw	x
      00835C 27 03            [ 1]  555 	jreq	00170$
      00835E CC 83 5A         [ 2]  556 	jp	00116$
      008361                        557 00170$:
                                    558 ;	inc/delay.h: 29: __asm__("nop\n");
                                    559 ;	genInline
      008361 9D               [ 1]  560 	nop
                           0000F0   561 	Sstm8_hd44780$lcd_init$125 ==.
                           0000F0   562 	Sstm8_hd44780$lcd_init$126 ==.
                                    563 ;	./src/stm8_hd44780.c: 55: lcd_command(LCD_FUNCTION_SET | LCD_4BITS | LCD_2LINES | USED_FONT);
                                    564 ; genIPush
      008362 4B 28            [ 1]  565 	push	#0x28
                           0000F2   566 	Sstm8_hd44780$lcd_init$127 ==.
                                    567 ; genCall
      008364 CD 85 C6         [ 4]  568 	call	_lcd_command
      008367 84               [ 1]  569 	pop	a
                           0000F6   570 	Sstm8_hd44780$lcd_init$128 ==.
                           0000F6   571 	Sstm8_hd44780$lcd_init$129 ==.
                                    572 ;	./src/stm8_hd44780.c: 57: lcd_command(LCD_ENTRY_MODE_SET | LCD_INCREMENT | LCD_DISPLAY_NOSHIFT);
                                    573 ; genIPush
      008368 4B 06            [ 1]  574 	push	#0x06
                           0000F8   575 	Sstm8_hd44780$lcd_init$130 ==.
                                    576 ; genCall
      00836A CD 85 C6         [ 4]  577 	call	_lcd_command
      00836D 84               [ 1]  578 	pop	a
                           0000FC   579 	Sstm8_hd44780$lcd_init$131 ==.
                           0000FC   580 	Sstm8_hd44780$lcd_init$132 ==.
                                    581 ;	./src/stm8_hd44780.c: 58: lcd_command(LCD_DISPLAY_ONOFF | LCD_ON | LCD_CURSOR_OFF | LCD_BLINK_OFF);
                                    582 ; genIPush
      00836E 4B 0C            [ 1]  583 	push	#0x0c
                           0000FE   584 	Sstm8_hd44780$lcd_init$133 ==.
                                    585 ; genCall
      008370 CD 85 C6         [ 4]  586 	call	_lcd_command
      008373 84               [ 1]  587 	pop	a
                           000102   588 	Sstm8_hd44780$lcd_init$134 ==.
                           000102   589 	Sstm8_hd44780$lcd_init$135 ==.
                                    590 ;	./src/stm8_hd44780.c: 59: lcd_command(LCD_CURSOR_OR_DISPLAY_SHIFT | LCD_CURSOR_SHIFT | LCD_SHIFT_RIGHT);
                                    591 ; genIPush
      008374 4B 14            [ 1]  592 	push	#0x14
                           000104   593 	Sstm8_hd44780$lcd_init$136 ==.
                                    594 ; genCall
      008376 CD 85 C6         [ 4]  595 	call	_lcd_command
      008379 84               [ 1]  596 	pop	a
                           000108   597 	Sstm8_hd44780$lcd_init$137 ==.
                           000108   598 	Sstm8_hd44780$lcd_init$138 ==.
                                    599 ;	./src/stm8_hd44780.c: 60: lcd_command(LCD_DISPLAY_CLEAR);
                                    600 ; genIPush
      00837A 4B 01            [ 1]  601 	push	#0x01
                           00010A   602 	Sstm8_hd44780$lcd_init$139 ==.
                                    603 ; genCall
      00837C CD 85 C6         [ 4]  604 	call	_lcd_command
      00837F 84               [ 1]  605 	pop	a
                           00010E   606 	Sstm8_hd44780$lcd_init$140 ==.
                           00010E   607 	Sstm8_hd44780$lcd_init$141 ==.
                                    608 ;	./src/stm8_hd44780.c: 61: lcd_command(LCD_RETURN_HOME);
                                    609 ; genIPush
      008380 4B 02            [ 1]  610 	push	#0x02
                           000110   611 	Sstm8_hd44780$lcd_init$142 ==.
                                    612 ; genCall
      008382 CD 85 C6         [ 4]  613 	call	_lcd_command
      008385 84               [ 1]  614 	pop	a
                           000114   615 	Sstm8_hd44780$lcd_init$143 ==.
                                    616 ; genLabel
      008386                        617 00121$:
                           000114   618 	Sstm8_hd44780$lcd_init$144 ==.
                                    619 ;	./src/stm8_hd44780.c: 62: }
                                    620 ; genEndFunction
                           000114   621 	Sstm8_hd44780$lcd_init$145 ==.
                           000114   622 	XG$lcd_init$0$0 ==.
      008386 81               [ 4]  623 	ret
                           000115   624 	Sstm8_hd44780$lcd_init$146 ==.
                           000115   625 	Sstm8_hd44780$lcd_gotoxy$147 ==.
                                    626 ;	./src/stm8_hd44780.c: 64: void lcd_gotoxy(uint8_t column, uint8_t line){
                                    627 ; genLabel
                                    628 ;	-----------------------------------------
                                    629 ;	 function lcd_gotoxy
                                    630 ;	-----------------------------------------
                                    631 ;	Register assignment is optimal.
                                    632 ;	Stack space usage: 0 bytes.
      008387                        633 _lcd_gotoxy:
                           000115   634 	Sstm8_hd44780$lcd_gotoxy$148 ==.
                           000115   635 	Sstm8_hd44780$lcd_gotoxy$149 ==.
                                    636 ;	./src/stm8_hd44780.c: 65: uint8_t tmp=0;
                                    637 ; genAssign
      008387 5F               [ 1]  638 	clrw	x
                           000116   639 	Sstm8_hd44780$lcd_gotoxy$150 ==.
                                    640 ;	./src/stm8_hd44780.c: 77: if(column > (LCD_COLUMNS-1)){column=LCD_COLUMNS-1;}
                                    641 ; genCmp
                                    642 ; genCmpTop
      008388 7B 03            [ 1]  643 	ld	a, (0x03, sp)
      00838A A1 0F            [ 1]  644 	cp	a, #0x0f
      00838C 22 03            [ 1]  645 	jrugt	00125$
      00838E CC 83 95         [ 2]  646 	jp	00102$
      008391                        647 00125$:
                                    648 ; skipping generated iCode
                           00011F   649 	Sstm8_hd44780$lcd_gotoxy$151 ==.
                                    650 ; genAssign
      008391 A6 0F            [ 1]  651 	ld	a, #0x0f
      008393 6B 03            [ 1]  652 	ld	(0x03, sp), a
                           000123   653 	Sstm8_hd44780$lcd_gotoxy$152 ==.
                                    654 ; genLabel
      008395                        655 00102$:
                           000123   656 	Sstm8_hd44780$lcd_gotoxy$153 ==.
                                    657 ;	./src/stm8_hd44780.c: 78: if(line == 0){tmp=0x00;}
                                    658 ; genIfx
      008395 0D 04            [ 1]  659 	tnz	(0x04, sp)
      008397 27 03            [ 1]  660 	jreq	00126$
      008399 CC 83 A0         [ 2]  661 	jp	00106$
      00839C                        662 00126$:
                           00012A   663 	Sstm8_hd44780$lcd_gotoxy$154 ==.
                                    664 ; genAssign
      00839C 5F               [ 1]  665 	clrw	x
                           00012B   666 	Sstm8_hd44780$lcd_gotoxy$155 ==.
                                    667 ; genGoto
      00839D CC 83 AE         [ 2]  668 	jp	00107$
                                    669 ; genLabel
      0083A0                        670 00106$:
                           00012E   671 	Sstm8_hd44780$lcd_gotoxy$156 ==.
                                    672 ;	./src/stm8_hd44780.c: 79: else if(line==1){tmp = 0x40;}
                                    673 ; genCmpEQorNE
      0083A0 7B 04            [ 1]  674 	ld	a, (0x04, sp)
      0083A2 4A               [ 1]  675 	dec	a
      0083A3 26 03            [ 1]  676 	jrne	00128$
      0083A5 CC 83 AB         [ 2]  677 	jp	00129$
      0083A8                        678 00128$:
      0083A8 CC 83 AE         [ 2]  679 	jp	00107$
      0083AB                        680 00129$:
                           000139   681 	Sstm8_hd44780$lcd_gotoxy$157 ==.
                                    682 ; skipping generated iCode
                           000139   683 	Sstm8_hd44780$lcd_gotoxy$158 ==.
                                    684 ; genAssign
      0083AB A6 40            [ 1]  685 	ld	a, #0x40
      0083AD 97               [ 1]  686 	ld	xl, a
                           00013C   687 	Sstm8_hd44780$lcd_gotoxy$159 ==.
                                    688 ; genLabel
      0083AE                        689 00107$:
                           00013C   690 	Sstm8_hd44780$lcd_gotoxy$160 ==.
                                    691 ;	./src/stm8_hd44780.c: 80: tmp = tmp + column;
                                    692 ; genPlus
      0083AE 9F               [ 1]  693 	ld	a, xl
      0083AF 1B 03            [ 1]  694 	add	a, (0x03, sp)
                                    695 ; genAssign
                           00013F   696 	Sstm8_hd44780$lcd_gotoxy$161 ==.
                                    697 ;	./src/stm8_hd44780.c: 87: lcd_command(LCD_SET_DDRAM | tmp);
                                    698 ; genOr
      0083B1 AA 80            [ 1]  699 	or	a, #0x80
                                    700 ; genIPush
      0083B3 88               [ 1]  701 	push	a
                           000142   702 	Sstm8_hd44780$lcd_gotoxy$162 ==.
                                    703 ; genCall
      0083B4 CD 85 C6         [ 4]  704 	call	_lcd_command
      0083B7 84               [ 1]  705 	pop	a
                           000146   706 	Sstm8_hd44780$lcd_gotoxy$163 ==.
                                    707 ; genLabel
      0083B8                        708 00108$:
                           000146   709 	Sstm8_hd44780$lcd_gotoxy$164 ==.
                                    710 ;	./src/stm8_hd44780.c: 88: }
                                    711 ; genEndFunction
                           000146   712 	Sstm8_hd44780$lcd_gotoxy$165 ==.
                           000146   713 	XG$lcd_gotoxy$0$0 ==.
      0083B8 81               [ 4]  714 	ret
                           000147   715 	Sstm8_hd44780$lcd_gotoxy$166 ==.
                           000147   716 	Sstm8_hd44780$lcd_init_hw$167 ==.
                                    717 ;	./src/stm8_hd44780.c: 91: void lcd_init_hw(void){
                                    718 ; genLabel
                                    719 ;	-----------------------------------------
                                    720 ;	 function lcd_init_hw
                                    721 ;	-----------------------------------------
                                    722 ;	Register assignment is optimal.
                                    723 ;	Stack space usage: 0 bytes.
      0083B9                        724 _lcd_init_hw:
                           000147   725 	Sstm8_hd44780$lcd_init_hw$168 ==.
                           000147   726 	Sstm8_hd44780$lcd_init_hw$169 ==.
                                    727 ;	./src/stm8_hd44780.c: 110: GPIO_Init(LCD_RS_PORT,LCD_RS_PIN,GPIO_MODE_OUT_PP_LOW_SLOW);
                                    728 ; genIPush
      0083B9 4B C0            [ 1]  729 	push	#0xc0
                           000149   730 	Sstm8_hd44780$lcd_init_hw$170 ==.
                                    731 ; genIPush
      0083BB 4B 80            [ 1]  732 	push	#0x80
                           00014B   733 	Sstm8_hd44780$lcd_init_hw$171 ==.
                                    734 ; genIPush
      0083BD 4B 19            [ 1]  735 	push	#0x19
                           00014D   736 	Sstm8_hd44780$lcd_init_hw$172 ==.
      0083BF 4B 50            [ 1]  737 	push	#0x50
                           00014F   738 	Sstm8_hd44780$lcd_init_hw$173 ==.
                                    739 ; genCall
      0083C1 CD 8F 78         [ 4]  740 	call	_GPIO_Init
      0083C4 5B 04            [ 2]  741 	addw	sp, #4
                           000154   742 	Sstm8_hd44780$lcd_init_hw$174 ==.
                           000154   743 	Sstm8_hd44780$lcd_init_hw$175 ==.
                                    744 ;	./src/stm8_hd44780.c: 111: GPIO_Init(LCD_RW_PORT,LCD_RW_PIN,GPIO_MODE_OUT_PP_LOW_SLOW);
                                    745 ; genIPush
      0083C6 4B C0            [ 1]  746 	push	#0xc0
                           000156   747 	Sstm8_hd44780$lcd_init_hw$176 ==.
                                    748 ; genIPush
      0083C8 4B 40            [ 1]  749 	push	#0x40
                           000158   750 	Sstm8_hd44780$lcd_init_hw$177 ==.
                                    751 ; genIPush
      0083CA 4B 19            [ 1]  752 	push	#0x19
                           00015A   753 	Sstm8_hd44780$lcd_init_hw$178 ==.
      0083CC 4B 50            [ 1]  754 	push	#0x50
                           00015C   755 	Sstm8_hd44780$lcd_init_hw$179 ==.
                                    756 ; genCall
      0083CE CD 8F 78         [ 4]  757 	call	_GPIO_Init
      0083D1 5B 04            [ 2]  758 	addw	sp, #4
                           000161   759 	Sstm8_hd44780$lcd_init_hw$180 ==.
                           000161   760 	Sstm8_hd44780$lcd_init_hw$181 ==.
                                    761 ;	./src/stm8_hd44780.c: 112: GPIO_Init(LCD_E_PORT,LCD_E_PIN,GPIO_MODE_OUT_PP_HIGH_SLOW);
                                    762 ; genIPush
      0083D3 4B D0            [ 1]  763 	push	#0xd0
                           000163   764 	Sstm8_hd44780$lcd_init_hw$182 ==.
                                    765 ; genIPush
      0083D5 4B 20            [ 1]  766 	push	#0x20
                           000165   767 	Sstm8_hd44780$lcd_init_hw$183 ==.
                                    768 ; genIPush
      0083D7 4B 19            [ 1]  769 	push	#0x19
                           000167   770 	Sstm8_hd44780$lcd_init_hw$184 ==.
      0083D9 4B 50            [ 1]  771 	push	#0x50
                           000169   772 	Sstm8_hd44780$lcd_init_hw$185 ==.
                                    773 ; genCall
      0083DB CD 8F 78         [ 4]  774 	call	_GPIO_Init
      0083DE 5B 04            [ 2]  775 	addw	sp, #4
                           00016E   776 	Sstm8_hd44780$lcd_init_hw$186 ==.
                           00016E   777 	Sstm8_hd44780$lcd_init_hw$187 ==.
                                    778 ;	./src/stm8_hd44780.c: 115: lcd_bus_outputs();
                                    779 ; genCall
      0083E0 CC 83 E4         [ 2]  780 	jp	_lcd_bus_outputs
                                    781 ; genLabel
      0083E3                        782 00101$:
                           000171   783 	Sstm8_hd44780$lcd_init_hw$188 ==.
                                    784 ;	./src/stm8_hd44780.c: 116: }
                                    785 ; genEndFunction
                           000171   786 	Sstm8_hd44780$lcd_init_hw$189 ==.
                           000171   787 	XG$lcd_init_hw$0$0 ==.
      0083E3 81               [ 4]  788 	ret
                           000172   789 	Sstm8_hd44780$lcd_init_hw$190 ==.
                           000172   790 	Sstm8_hd44780$lcd_bus_outputs$191 ==.
                                    791 ;	./src/stm8_hd44780.c: 119: void lcd_bus_outputs(void){
                                    792 ; genLabel
                                    793 ;	-----------------------------------------
                                    794 ;	 function lcd_bus_outputs
                                    795 ;	-----------------------------------------
                                    796 ;	Register assignment is optimal.
                                    797 ;	Stack space usage: 0 bytes.
      0083E4                        798 _lcd_bus_outputs:
                           000172   799 	Sstm8_hd44780$lcd_bus_outputs$192 ==.
                           000172   800 	Sstm8_hd44780$lcd_bus_outputs$193 ==.
                                    801 ;	./src/stm8_hd44780.c: 123: GPIO_Init(LCD_D4_PORT,LCD_D4_PIN,GPIO_MODE_OUT_PP_LOW_SLOW);
                                    802 ; genIPush
      0083E4 4B C0            [ 1]  803 	push	#0xc0
                           000174   804 	Sstm8_hd44780$lcd_bus_outputs$194 ==.
                                    805 ; genIPush
      0083E6 4B 01            [ 1]  806 	push	#0x01
                           000176   807 	Sstm8_hd44780$lcd_bus_outputs$195 ==.
                                    808 ; genIPush
      0083E8 4B 1E            [ 1]  809 	push	#0x1e
                           000178   810 	Sstm8_hd44780$lcd_bus_outputs$196 ==.
      0083EA 4B 50            [ 1]  811 	push	#0x50
                           00017A   812 	Sstm8_hd44780$lcd_bus_outputs$197 ==.
                                    813 ; genCall
      0083EC CD 8F 78         [ 4]  814 	call	_GPIO_Init
      0083EF 5B 04            [ 2]  815 	addw	sp, #4
                           00017F   816 	Sstm8_hd44780$lcd_bus_outputs$198 ==.
                           00017F   817 	Sstm8_hd44780$lcd_bus_outputs$199 ==.
                                    818 ;	./src/stm8_hd44780.c: 124: GPIO_Init(LCD_D5_PORT,LCD_D5_PIN,GPIO_MODE_OUT_PP_LOW_SLOW);
                                    819 ; genIPush
      0083F1 4B C0            [ 1]  820 	push	#0xc0
                           000181   821 	Sstm8_hd44780$lcd_bus_outputs$200 ==.
                                    822 ; genIPush
      0083F3 4B 02            [ 1]  823 	push	#0x02
                           000183   824 	Sstm8_hd44780$lcd_bus_outputs$201 ==.
                                    825 ; genIPush
      0083F5 4B 1E            [ 1]  826 	push	#0x1e
                           000185   827 	Sstm8_hd44780$lcd_bus_outputs$202 ==.
      0083F7 4B 50            [ 1]  828 	push	#0x50
                           000187   829 	Sstm8_hd44780$lcd_bus_outputs$203 ==.
                                    830 ; genCall
      0083F9 CD 8F 78         [ 4]  831 	call	_GPIO_Init
      0083FC 5B 04            [ 2]  832 	addw	sp, #4
                           00018C   833 	Sstm8_hd44780$lcd_bus_outputs$204 ==.
                           00018C   834 	Sstm8_hd44780$lcd_bus_outputs$205 ==.
                                    835 ;	./src/stm8_hd44780.c: 125: GPIO_Init(LCD_D6_PORT,LCD_D6_PIN,GPIO_MODE_OUT_PP_LOW_SLOW);
                                    836 ; genIPush
      0083FE 4B C0            [ 1]  837 	push	#0xc0
                           00018E   838 	Sstm8_hd44780$lcd_bus_outputs$206 ==.
                                    839 ; genIPush
      008400 4B 04            [ 1]  840 	push	#0x04
                           000190   841 	Sstm8_hd44780$lcd_bus_outputs$207 ==.
                                    842 ; genIPush
      008402 4B 1E            [ 1]  843 	push	#0x1e
                           000192   844 	Sstm8_hd44780$lcd_bus_outputs$208 ==.
      008404 4B 50            [ 1]  845 	push	#0x50
                           000194   846 	Sstm8_hd44780$lcd_bus_outputs$209 ==.
                                    847 ; genCall
      008406 CD 8F 78         [ 4]  848 	call	_GPIO_Init
      008409 5B 04            [ 2]  849 	addw	sp, #4
                           000199   850 	Sstm8_hd44780$lcd_bus_outputs$210 ==.
                           000199   851 	Sstm8_hd44780$lcd_bus_outputs$211 ==.
                                    852 ;	./src/stm8_hd44780.c: 126: GPIO_Init(LCD_D7_PORT,LCD_D7_PIN,GPIO_MODE_OUT_PP_LOW_SLOW);
                                    853 ; genIPush
      00840B 4B C0            [ 1]  854 	push	#0xc0
                           00019B   855 	Sstm8_hd44780$lcd_bus_outputs$212 ==.
                                    856 ; genIPush
      00840D 4B 08            [ 1]  857 	push	#0x08
                           00019D   858 	Sstm8_hd44780$lcd_bus_outputs$213 ==.
                                    859 ; genIPush
      00840F 4B 1E            [ 1]  860 	push	#0x1e
                           00019F   861 	Sstm8_hd44780$lcd_bus_outputs$214 ==.
      008411 4B 50            [ 1]  862 	push	#0x50
                           0001A1   863 	Sstm8_hd44780$lcd_bus_outputs$215 ==.
                                    864 ; genCall
      008413 CD 8F 78         [ 4]  865 	call	_GPIO_Init
      008416 5B 04            [ 2]  866 	addw	sp, #4
                           0001A6   867 	Sstm8_hd44780$lcd_bus_outputs$216 ==.
                                    868 ; genLabel
      008418                        869 00101$:
                           0001A6   870 	Sstm8_hd44780$lcd_bus_outputs$217 ==.
                                    871 ;	./src/stm8_hd44780.c: 128: }
                                    872 ; genEndFunction
                           0001A6   873 	Sstm8_hd44780$lcd_bus_outputs$218 ==.
                           0001A6   874 	XG$lcd_bus_outputs$0$0 ==.
      008418 81               [ 4]  875 	ret
                           0001A7   876 	Sstm8_hd44780$lcd_bus_outputs$219 ==.
                           0001A7   877 	Sstm8_hd44780$lcd_bus_inputs$220 ==.
                                    878 ;	./src/stm8_hd44780.c: 131: void lcd_bus_inputs(void){
                                    879 ; genLabel
                                    880 ;	-----------------------------------------
                                    881 ;	 function lcd_bus_inputs
                                    882 ;	-----------------------------------------
                                    883 ;	Register assignment is optimal.
                                    884 ;	Stack space usage: 0 bytes.
      008419                        885 _lcd_bus_inputs:
                           0001A7   886 	Sstm8_hd44780$lcd_bus_inputs$221 ==.
                           0001A7   887 	Sstm8_hd44780$lcd_bus_inputs$222 ==.
                                    888 ;	./src/stm8_hd44780.c: 139: GPIO_Init(LCD_D4_PORT,LCD_D4_PIN,GPIO_MODE_IN_FL_NO_IT);
                                    889 ; genIPush
      008419 4B 00            [ 1]  890 	push	#0x00
                           0001A9   891 	Sstm8_hd44780$lcd_bus_inputs$223 ==.
                                    892 ; genIPush
      00841B 4B 01            [ 1]  893 	push	#0x01
                           0001AB   894 	Sstm8_hd44780$lcd_bus_inputs$224 ==.
                                    895 ; genIPush
      00841D 4B 1E            [ 1]  896 	push	#0x1e
                           0001AD   897 	Sstm8_hd44780$lcd_bus_inputs$225 ==.
      00841F 4B 50            [ 1]  898 	push	#0x50
                           0001AF   899 	Sstm8_hd44780$lcd_bus_inputs$226 ==.
                                    900 ; genCall
      008421 CD 8F 78         [ 4]  901 	call	_GPIO_Init
      008424 5B 04            [ 2]  902 	addw	sp, #4
                           0001B4   903 	Sstm8_hd44780$lcd_bus_inputs$227 ==.
                           0001B4   904 	Sstm8_hd44780$lcd_bus_inputs$228 ==.
                                    905 ;	./src/stm8_hd44780.c: 140: GPIO_Init(LCD_D5_PORT,LCD_D5_PIN,GPIO_MODE_IN_FL_NO_IT);
                                    906 ; genIPush
      008426 4B 00            [ 1]  907 	push	#0x00
                           0001B6   908 	Sstm8_hd44780$lcd_bus_inputs$229 ==.
                                    909 ; genIPush
      008428 4B 02            [ 1]  910 	push	#0x02
                           0001B8   911 	Sstm8_hd44780$lcd_bus_inputs$230 ==.
                                    912 ; genIPush
      00842A 4B 1E            [ 1]  913 	push	#0x1e
                           0001BA   914 	Sstm8_hd44780$lcd_bus_inputs$231 ==.
      00842C 4B 50            [ 1]  915 	push	#0x50
                           0001BC   916 	Sstm8_hd44780$lcd_bus_inputs$232 ==.
                                    917 ; genCall
      00842E CD 8F 78         [ 4]  918 	call	_GPIO_Init
      008431 5B 04            [ 2]  919 	addw	sp, #4
                           0001C1   920 	Sstm8_hd44780$lcd_bus_inputs$233 ==.
                           0001C1   921 	Sstm8_hd44780$lcd_bus_inputs$234 ==.
                                    922 ;	./src/stm8_hd44780.c: 141: GPIO_Init(LCD_D6_PORT,LCD_D6_PIN,GPIO_MODE_IN_FL_NO_IT);
                                    923 ; genIPush
      008433 4B 00            [ 1]  924 	push	#0x00
                           0001C3   925 	Sstm8_hd44780$lcd_bus_inputs$235 ==.
                                    926 ; genIPush
      008435 4B 04            [ 1]  927 	push	#0x04
                           0001C5   928 	Sstm8_hd44780$lcd_bus_inputs$236 ==.
                                    929 ; genIPush
      008437 4B 1E            [ 1]  930 	push	#0x1e
                           0001C7   931 	Sstm8_hd44780$lcd_bus_inputs$237 ==.
      008439 4B 50            [ 1]  932 	push	#0x50
                           0001C9   933 	Sstm8_hd44780$lcd_bus_inputs$238 ==.
                                    934 ; genCall
      00843B CD 8F 78         [ 4]  935 	call	_GPIO_Init
      00843E 5B 04            [ 2]  936 	addw	sp, #4
                           0001CE   937 	Sstm8_hd44780$lcd_bus_inputs$239 ==.
                           0001CE   938 	Sstm8_hd44780$lcd_bus_inputs$240 ==.
                                    939 ;	./src/stm8_hd44780.c: 142: GPIO_Init(LCD_D7_PORT,LCD_D7_PIN,GPIO_MODE_IN_FL_NO_IT); 
                                    940 ; genIPush
      008440 4B 00            [ 1]  941 	push	#0x00
                           0001D0   942 	Sstm8_hd44780$lcd_bus_inputs$241 ==.
                                    943 ; genIPush
      008442 4B 08            [ 1]  944 	push	#0x08
                           0001D2   945 	Sstm8_hd44780$lcd_bus_inputs$242 ==.
                                    946 ; genIPush
      008444 4B 1E            [ 1]  947 	push	#0x1e
                           0001D4   948 	Sstm8_hd44780$lcd_bus_inputs$243 ==.
      008446 4B 50            [ 1]  949 	push	#0x50
                           0001D6   950 	Sstm8_hd44780$lcd_bus_inputs$244 ==.
                                    951 ; genCall
      008448 CD 8F 78         [ 4]  952 	call	_GPIO_Init
      00844B 5B 04            [ 2]  953 	addw	sp, #4
                           0001DB   954 	Sstm8_hd44780$lcd_bus_inputs$245 ==.
                                    955 ; genLabel
      00844D                        956 00101$:
                           0001DB   957 	Sstm8_hd44780$lcd_bus_inputs$246 ==.
                                    958 ;	./src/stm8_hd44780.c: 144: }
                                    959 ; genEndFunction
                           0001DB   960 	Sstm8_hd44780$lcd_bus_inputs$247 ==.
                           0001DB   961 	XG$lcd_bus_inputs$0$0 ==.
      00844D 81               [ 4]  962 	ret
                           0001DC   963 	Sstm8_hd44780$lcd_bus_inputs$248 ==.
                           0001DC   964 	Sstm8_hd44780$lcd_deinit_hw$249 ==.
                                    965 ;	./src/stm8_hd44780.c: 147: void lcd_deinit_hw(void){
                                    966 ; genLabel
                                    967 ;	-----------------------------------------
                                    968 ;	 function lcd_deinit_hw
                                    969 ;	-----------------------------------------
                                    970 ;	Register assignment is optimal.
                                    971 ;	Stack space usage: 0 bytes.
      00844E                        972 _lcd_deinit_hw:
                           0001DC   973 	Sstm8_hd44780$lcd_deinit_hw$250 ==.
                           0001DC   974 	Sstm8_hd44780$lcd_deinit_hw$251 ==.
                                    975 ;	./src/stm8_hd44780.c: 148: GPIO_Init(LCD_RS_PORT,LCD_RS_PIN,GPIO_MODE_IN_FL_NO_IT);
                                    976 ; genIPush
      00844E 4B 00            [ 1]  977 	push	#0x00
                           0001DE   978 	Sstm8_hd44780$lcd_deinit_hw$252 ==.
                                    979 ; genIPush
      008450 4B 80            [ 1]  980 	push	#0x80
                           0001E0   981 	Sstm8_hd44780$lcd_deinit_hw$253 ==.
                                    982 ; genIPush
      008452 4B 19            [ 1]  983 	push	#0x19
                           0001E2   984 	Sstm8_hd44780$lcd_deinit_hw$254 ==.
      008454 4B 50            [ 1]  985 	push	#0x50
                           0001E4   986 	Sstm8_hd44780$lcd_deinit_hw$255 ==.
                                    987 ; genCall
      008456 CD 8F 78         [ 4]  988 	call	_GPIO_Init
      008459 5B 04            [ 2]  989 	addw	sp, #4
                           0001E9   990 	Sstm8_hd44780$lcd_deinit_hw$256 ==.
                           0001E9   991 	Sstm8_hd44780$lcd_deinit_hw$257 ==.
                                    992 ;	./src/stm8_hd44780.c: 149: GPIO_Init(LCD_RW_PORT,LCD_RW_PIN,GPIO_MODE_IN_FL_NO_IT);
                                    993 ; genIPush
      00845B 4B 00            [ 1]  994 	push	#0x00
                           0001EB   995 	Sstm8_hd44780$lcd_deinit_hw$258 ==.
                                    996 ; genIPush
      00845D 4B 40            [ 1]  997 	push	#0x40
                           0001ED   998 	Sstm8_hd44780$lcd_deinit_hw$259 ==.
                                    999 ; genIPush
      00845F 4B 19            [ 1] 1000 	push	#0x19
                           0001EF  1001 	Sstm8_hd44780$lcd_deinit_hw$260 ==.
      008461 4B 50            [ 1] 1002 	push	#0x50
                           0001F1  1003 	Sstm8_hd44780$lcd_deinit_hw$261 ==.
                                   1004 ; genCall
      008463 CD 8F 78         [ 4] 1005 	call	_GPIO_Init
      008466 5B 04            [ 2] 1006 	addw	sp, #4
                           0001F6  1007 	Sstm8_hd44780$lcd_deinit_hw$262 ==.
                           0001F6  1008 	Sstm8_hd44780$lcd_deinit_hw$263 ==.
                                   1009 ;	./src/stm8_hd44780.c: 150: GPIO_Init(LCD_E_PORT,LCD_E_PIN,GPIO_MODE_IN_FL_NO_IT);
                                   1010 ; genIPush
      008468 4B 00            [ 1] 1011 	push	#0x00
                           0001F8  1012 	Sstm8_hd44780$lcd_deinit_hw$264 ==.
                                   1013 ; genIPush
      00846A 4B 20            [ 1] 1014 	push	#0x20
                           0001FA  1015 	Sstm8_hd44780$lcd_deinit_hw$265 ==.
                                   1016 ; genIPush
      00846C 4B 19            [ 1] 1017 	push	#0x19
                           0001FC  1018 	Sstm8_hd44780$lcd_deinit_hw$266 ==.
      00846E 4B 50            [ 1] 1019 	push	#0x50
                           0001FE  1020 	Sstm8_hd44780$lcd_deinit_hw$267 ==.
                                   1021 ; genCall
      008470 CD 8F 78         [ 4] 1022 	call	_GPIO_Init
      008473 5B 04            [ 2] 1023 	addw	sp, #4
                           000203  1024 	Sstm8_hd44780$lcd_deinit_hw$268 ==.
                           000203  1025 	Sstm8_hd44780$lcd_deinit_hw$269 ==.
                                   1026 ;	./src/stm8_hd44780.c: 151: GPIO_Init(LCD_D4_PORT,LCD_D4_PIN,GPIO_MODE_IN_FL_NO_IT);
                                   1027 ; genIPush
      008475 4B 00            [ 1] 1028 	push	#0x00
                           000205  1029 	Sstm8_hd44780$lcd_deinit_hw$270 ==.
                                   1030 ; genIPush
      008477 4B 01            [ 1] 1031 	push	#0x01
                           000207  1032 	Sstm8_hd44780$lcd_deinit_hw$271 ==.
                                   1033 ; genIPush
      008479 4B 1E            [ 1] 1034 	push	#0x1e
                           000209  1035 	Sstm8_hd44780$lcd_deinit_hw$272 ==.
      00847B 4B 50            [ 1] 1036 	push	#0x50
                           00020B  1037 	Sstm8_hd44780$lcd_deinit_hw$273 ==.
                                   1038 ; genCall
      00847D CD 8F 78         [ 4] 1039 	call	_GPIO_Init
      008480 5B 04            [ 2] 1040 	addw	sp, #4
                           000210  1041 	Sstm8_hd44780$lcd_deinit_hw$274 ==.
                           000210  1042 	Sstm8_hd44780$lcd_deinit_hw$275 ==.
                                   1043 ;	./src/stm8_hd44780.c: 152: GPIO_Init(LCD_D5_PORT,LCD_D5_PIN,GPIO_MODE_IN_FL_NO_IT);
                                   1044 ; genIPush
      008482 4B 00            [ 1] 1045 	push	#0x00
                           000212  1046 	Sstm8_hd44780$lcd_deinit_hw$276 ==.
                                   1047 ; genIPush
      008484 4B 02            [ 1] 1048 	push	#0x02
                           000214  1049 	Sstm8_hd44780$lcd_deinit_hw$277 ==.
                                   1050 ; genIPush
      008486 4B 1E            [ 1] 1051 	push	#0x1e
                           000216  1052 	Sstm8_hd44780$lcd_deinit_hw$278 ==.
      008488 4B 50            [ 1] 1053 	push	#0x50
                           000218  1054 	Sstm8_hd44780$lcd_deinit_hw$279 ==.
                                   1055 ; genCall
      00848A CD 8F 78         [ 4] 1056 	call	_GPIO_Init
      00848D 5B 04            [ 2] 1057 	addw	sp, #4
                           00021D  1058 	Sstm8_hd44780$lcd_deinit_hw$280 ==.
                           00021D  1059 	Sstm8_hd44780$lcd_deinit_hw$281 ==.
                                   1060 ;	./src/stm8_hd44780.c: 153: GPIO_Init(LCD_D6_PORT,LCD_D6_PIN,GPIO_MODE_IN_FL_NO_IT);
                                   1061 ; genIPush
      00848F 4B 00            [ 1] 1062 	push	#0x00
                           00021F  1063 	Sstm8_hd44780$lcd_deinit_hw$282 ==.
                                   1064 ; genIPush
      008491 4B 04            [ 1] 1065 	push	#0x04
                           000221  1066 	Sstm8_hd44780$lcd_deinit_hw$283 ==.
                                   1067 ; genIPush
      008493 4B 1E            [ 1] 1068 	push	#0x1e
                           000223  1069 	Sstm8_hd44780$lcd_deinit_hw$284 ==.
      008495 4B 50            [ 1] 1070 	push	#0x50
                           000225  1071 	Sstm8_hd44780$lcd_deinit_hw$285 ==.
                                   1072 ; genCall
      008497 CD 8F 78         [ 4] 1073 	call	_GPIO_Init
      00849A 5B 04            [ 2] 1074 	addw	sp, #4
                           00022A  1075 	Sstm8_hd44780$lcd_deinit_hw$286 ==.
                           00022A  1076 	Sstm8_hd44780$lcd_deinit_hw$287 ==.
                                   1077 ;	./src/stm8_hd44780.c: 154: GPIO_Init(LCD_D7_PORT,LCD_D7_PIN,GPIO_MODE_IN_FL_NO_IT); 
                                   1078 ; genIPush
      00849C 4B 00            [ 1] 1079 	push	#0x00
                           00022C  1080 	Sstm8_hd44780$lcd_deinit_hw$288 ==.
                                   1081 ; genIPush
      00849E 4B 08            [ 1] 1082 	push	#0x08
                           00022E  1083 	Sstm8_hd44780$lcd_deinit_hw$289 ==.
                                   1084 ; genIPush
      0084A0 4B 1E            [ 1] 1085 	push	#0x1e
                           000230  1086 	Sstm8_hd44780$lcd_deinit_hw$290 ==.
      0084A2 4B 50            [ 1] 1087 	push	#0x50
                           000232  1088 	Sstm8_hd44780$lcd_deinit_hw$291 ==.
                                   1089 ; genCall
      0084A4 CD 8F 78         [ 4] 1090 	call	_GPIO_Init
      0084A7 5B 04            [ 2] 1091 	addw	sp, #4
                           000237  1092 	Sstm8_hd44780$lcd_deinit_hw$292 ==.
                                   1093 ; genLabel
      0084A9                       1094 00101$:
                           000237  1095 	Sstm8_hd44780$lcd_deinit_hw$293 ==.
                                   1096 ;	./src/stm8_hd44780.c: 155: }
                                   1097 ; genEndFunction
                           000237  1098 	Sstm8_hd44780$lcd_deinit_hw$294 ==.
                           000237  1099 	XG$lcd_deinit_hw$0$0 ==.
      0084A9 81               [ 4] 1100 	ret
                           000238  1101 	Sstm8_hd44780$lcd_deinit_hw$295 ==.
                           000238  1102 	Sstm8_hd44780$lcd_bus_set$296 ==.
                                   1103 ;	./src/stm8_hd44780.c: 158: void lcd_bus_set(uint8_t data){
                                   1104 ; genLabel
                                   1105 ;	-----------------------------------------
                                   1106 ;	 function lcd_bus_set
                                   1107 ;	-----------------------------------------
                                   1108 ;	Register assignment is optimal.
                                   1109 ;	Stack space usage: 0 bytes.
      0084AA                       1110 _lcd_bus_set:
                           000238  1111 	Sstm8_hd44780$lcd_bus_set$297 ==.
                           000238  1112 	Sstm8_hd44780$lcd_bus_set$298 ==.
                                   1113 ;	./src/stm8_hd44780.c: 159: if(data & (1<<0)){LCD_D4_H;}else{LCD_D4_L;}
                                   1114 ; genAnd
      0084AA 7B 03            [ 1] 1115 	ld	a, (0x03, sp)
      0084AC 44               [ 1] 1116 	srl	a
      0084AD 25 03            [ 1] 1117 	jrc	00135$
      0084AF CC 84 C0         [ 2] 1118 	jp	00102$
      0084B2                       1119 00135$:
                                   1120 ; skipping generated iCode
                           000240  1121 	Sstm8_hd44780$lcd_bus_set$299 ==.
                                   1122 ; genIPush
      0084B2 4B 01            [ 1] 1123 	push	#0x01
                           000242  1124 	Sstm8_hd44780$lcd_bus_set$300 ==.
                                   1125 ; genIPush
      0084B4 4B 1E            [ 1] 1126 	push	#0x1e
                           000244  1127 	Sstm8_hd44780$lcd_bus_set$301 ==.
      0084B6 4B 50            [ 1] 1128 	push	#0x50
                           000246  1129 	Sstm8_hd44780$lcd_bus_set$302 ==.
                                   1130 ; genCall
      0084B8 CD 90 05         [ 4] 1131 	call	_GPIO_WriteHigh
      0084BB 5B 03            [ 2] 1132 	addw	sp, #3
                           00024B  1133 	Sstm8_hd44780$lcd_bus_set$303 ==.
                           00024B  1134 	Sstm8_hd44780$lcd_bus_set$304 ==.
                                   1135 ; genGoto
      0084BD CC 84 CB         [ 2] 1136 	jp	00103$
                                   1137 ; genLabel
      0084C0                       1138 00102$:
                           00024E  1139 	Sstm8_hd44780$lcd_bus_set$305 ==.
                                   1140 ; genIPush
      0084C0 4B 01            [ 1] 1141 	push	#0x01
                           000250  1142 	Sstm8_hd44780$lcd_bus_set$306 ==.
                                   1143 ; genIPush
      0084C2 4B 1E            [ 1] 1144 	push	#0x1e
                           000252  1145 	Sstm8_hd44780$lcd_bus_set$307 ==.
      0084C4 4B 50            [ 1] 1146 	push	#0x50
                           000254  1147 	Sstm8_hd44780$lcd_bus_set$308 ==.
                                   1148 ; genCall
      0084C6 CD 90 0C         [ 4] 1149 	call	_GPIO_WriteLow
      0084C9 5B 03            [ 2] 1150 	addw	sp, #3
                           000259  1151 	Sstm8_hd44780$lcd_bus_set$309 ==.
                           000259  1152 	Sstm8_hd44780$lcd_bus_set$310 ==.
                                   1153 ; genLabel
      0084CB                       1154 00103$:
                           000259  1155 	Sstm8_hd44780$lcd_bus_set$311 ==.
                                   1156 ;	./src/stm8_hd44780.c: 160: if(data & (1<<1)){LCD_D5_H;}else{LCD_D5_L;}
                                   1157 ; genAnd
      0084CB 7B 03            [ 1] 1158 	ld	a, (0x03, sp)
      0084CD A5 02            [ 1] 1159 	bcp	a, #0x02
      0084CF 26 03            [ 1] 1160 	jrne	00136$
      0084D1 CC 84 E2         [ 2] 1161 	jp	00105$
      0084D4                       1162 00136$:
                                   1163 ; skipping generated iCode
                           000262  1164 	Sstm8_hd44780$lcd_bus_set$312 ==.
                                   1165 ; genIPush
      0084D4 4B 02            [ 1] 1166 	push	#0x02
                           000264  1167 	Sstm8_hd44780$lcd_bus_set$313 ==.
                                   1168 ; genIPush
      0084D6 4B 1E            [ 1] 1169 	push	#0x1e
                           000266  1170 	Sstm8_hd44780$lcd_bus_set$314 ==.
      0084D8 4B 50            [ 1] 1171 	push	#0x50
                           000268  1172 	Sstm8_hd44780$lcd_bus_set$315 ==.
                                   1173 ; genCall
      0084DA CD 90 05         [ 4] 1174 	call	_GPIO_WriteHigh
      0084DD 5B 03            [ 2] 1175 	addw	sp, #3
                           00026D  1176 	Sstm8_hd44780$lcd_bus_set$316 ==.
                           00026D  1177 	Sstm8_hd44780$lcd_bus_set$317 ==.
                                   1178 ; genGoto
      0084DF CC 84 ED         [ 2] 1179 	jp	00106$
                                   1180 ; genLabel
      0084E2                       1181 00105$:
                           000270  1182 	Sstm8_hd44780$lcd_bus_set$318 ==.
                                   1183 ; genIPush
      0084E2 4B 02            [ 1] 1184 	push	#0x02
                           000272  1185 	Sstm8_hd44780$lcd_bus_set$319 ==.
                                   1186 ; genIPush
      0084E4 4B 1E            [ 1] 1187 	push	#0x1e
                           000274  1188 	Sstm8_hd44780$lcd_bus_set$320 ==.
      0084E6 4B 50            [ 1] 1189 	push	#0x50
                           000276  1190 	Sstm8_hd44780$lcd_bus_set$321 ==.
                                   1191 ; genCall
      0084E8 CD 90 0C         [ 4] 1192 	call	_GPIO_WriteLow
      0084EB 5B 03            [ 2] 1193 	addw	sp, #3
                           00027B  1194 	Sstm8_hd44780$lcd_bus_set$322 ==.
                           00027B  1195 	Sstm8_hd44780$lcd_bus_set$323 ==.
                                   1196 ; genLabel
      0084ED                       1197 00106$:
                           00027B  1198 	Sstm8_hd44780$lcd_bus_set$324 ==.
                                   1199 ;	./src/stm8_hd44780.c: 161: if(data & (1<<2)){LCD_D6_H;}else{LCD_D6_L;}
                                   1200 ; genAnd
      0084ED 7B 03            [ 1] 1201 	ld	a, (0x03, sp)
      0084EF A5 04            [ 1] 1202 	bcp	a, #0x04
      0084F1 26 03            [ 1] 1203 	jrne	00137$
      0084F3 CC 85 04         [ 2] 1204 	jp	00108$
      0084F6                       1205 00137$:
                                   1206 ; skipping generated iCode
                           000284  1207 	Sstm8_hd44780$lcd_bus_set$325 ==.
                                   1208 ; genIPush
      0084F6 4B 04            [ 1] 1209 	push	#0x04
                           000286  1210 	Sstm8_hd44780$lcd_bus_set$326 ==.
                                   1211 ; genIPush
      0084F8 4B 1E            [ 1] 1212 	push	#0x1e
                           000288  1213 	Sstm8_hd44780$lcd_bus_set$327 ==.
      0084FA 4B 50            [ 1] 1214 	push	#0x50
                           00028A  1215 	Sstm8_hd44780$lcd_bus_set$328 ==.
                                   1216 ; genCall
      0084FC CD 90 05         [ 4] 1217 	call	_GPIO_WriteHigh
      0084FF 5B 03            [ 2] 1218 	addw	sp, #3
                           00028F  1219 	Sstm8_hd44780$lcd_bus_set$329 ==.
                           00028F  1220 	Sstm8_hd44780$lcd_bus_set$330 ==.
                                   1221 ; genGoto
      008501 CC 85 0F         [ 2] 1222 	jp	00109$
                                   1223 ; genLabel
      008504                       1224 00108$:
                           000292  1225 	Sstm8_hd44780$lcd_bus_set$331 ==.
                                   1226 ; genIPush
      008504 4B 04            [ 1] 1227 	push	#0x04
                           000294  1228 	Sstm8_hd44780$lcd_bus_set$332 ==.
                                   1229 ; genIPush
      008506 4B 1E            [ 1] 1230 	push	#0x1e
                           000296  1231 	Sstm8_hd44780$lcd_bus_set$333 ==.
      008508 4B 50            [ 1] 1232 	push	#0x50
                           000298  1233 	Sstm8_hd44780$lcd_bus_set$334 ==.
                                   1234 ; genCall
      00850A CD 90 0C         [ 4] 1235 	call	_GPIO_WriteLow
      00850D 5B 03            [ 2] 1236 	addw	sp, #3
                           00029D  1237 	Sstm8_hd44780$lcd_bus_set$335 ==.
                           00029D  1238 	Sstm8_hd44780$lcd_bus_set$336 ==.
                                   1239 ; genLabel
      00850F                       1240 00109$:
                           00029D  1241 	Sstm8_hd44780$lcd_bus_set$337 ==.
                                   1242 ;	./src/stm8_hd44780.c: 162: if(data & (1<<3)){LCD_D7_H;}else{LCD_D7_L;}
                                   1243 ; genAnd
      00850F 7B 03            [ 1] 1244 	ld	a, (0x03, sp)
      008511 A5 08            [ 1] 1245 	bcp	a, #0x08
      008513 26 03            [ 1] 1246 	jrne	00138$
      008515 CC 85 26         [ 2] 1247 	jp	00111$
      008518                       1248 00138$:
                                   1249 ; skipping generated iCode
                           0002A6  1250 	Sstm8_hd44780$lcd_bus_set$338 ==.
                                   1251 ; genIPush
      008518 4B 08            [ 1] 1252 	push	#0x08
                           0002A8  1253 	Sstm8_hd44780$lcd_bus_set$339 ==.
                                   1254 ; genIPush
      00851A 4B 1E            [ 1] 1255 	push	#0x1e
                           0002AA  1256 	Sstm8_hd44780$lcd_bus_set$340 ==.
      00851C 4B 50            [ 1] 1257 	push	#0x50
                           0002AC  1258 	Sstm8_hd44780$lcd_bus_set$341 ==.
                                   1259 ; genCall
      00851E CD 90 05         [ 4] 1260 	call	_GPIO_WriteHigh
      008521 5B 03            [ 2] 1261 	addw	sp, #3
                           0002B1  1262 	Sstm8_hd44780$lcd_bus_set$342 ==.
                           0002B1  1263 	Sstm8_hd44780$lcd_bus_set$343 ==.
                                   1264 ; genGoto
      008523 CC 85 31         [ 2] 1265 	jp	00113$
                                   1266 ; genLabel
      008526                       1267 00111$:
                           0002B4  1268 	Sstm8_hd44780$lcd_bus_set$344 ==.
                                   1269 ; genIPush
      008526 4B 08            [ 1] 1270 	push	#0x08
                           0002B6  1271 	Sstm8_hd44780$lcd_bus_set$345 ==.
                                   1272 ; genIPush
      008528 4B 1E            [ 1] 1273 	push	#0x1e
                           0002B8  1274 	Sstm8_hd44780$lcd_bus_set$346 ==.
      00852A 4B 50            [ 1] 1275 	push	#0x50
                           0002BA  1276 	Sstm8_hd44780$lcd_bus_set$347 ==.
                                   1277 ; genCall
      00852C CD 90 0C         [ 4] 1278 	call	_GPIO_WriteLow
      00852F 5B 03            [ 2] 1279 	addw	sp, #3
                           0002BF  1280 	Sstm8_hd44780$lcd_bus_set$348 ==.
                           0002BF  1281 	Sstm8_hd44780$lcd_bus_set$349 ==.
                                   1282 ; genLabel
      008531                       1283 00113$:
                           0002BF  1284 	Sstm8_hd44780$lcd_bus_set$350 ==.
                                   1285 ;	./src/stm8_hd44780.c: 163: }
                                   1286 ; genEndFunction
                           0002BF  1287 	Sstm8_hd44780$lcd_bus_set$351 ==.
                           0002BF  1288 	XG$lcd_bus_set$0$0 ==.
      008531 81               [ 4] 1289 	ret
                           0002C0  1290 	Sstm8_hd44780$lcd_bus_set$352 ==.
                           0002C0  1291 	Sstm8_hd44780$lcd_bus_read$353 ==.
                                   1292 ;	./src/stm8_hd44780.c: 166: uint8_t lcd_bus_read(void){
                                   1293 ; genLabel
                                   1294 ;	-----------------------------------------
                                   1295 ;	 function lcd_bus_read
                                   1296 ;	-----------------------------------------
                                   1297 ;	Register assignment is optimal.
                                   1298 ;	Stack space usage: 1 bytes.
      008532                       1299 _lcd_bus_read:
                           0002C0  1300 	Sstm8_hd44780$lcd_bus_read$354 ==.
      008532 88               [ 1] 1301 	push	a
                           0002C1  1302 	Sstm8_hd44780$lcd_bus_read$355 ==.
                           0002C1  1303 	Sstm8_hd44780$lcd_bus_read$356 ==.
                                   1304 ;	./src/stm8_hd44780.c: 167: uint8_t tmp=0;
                                   1305 ; genAssign
      008533 0F 01            [ 1] 1306 	clr	(0x01, sp)
                           0002C3  1307 	Sstm8_hd44780$lcd_bus_read$357 ==.
                                   1308 ;	./src/stm8_hd44780.c: 168: if(GPIO_ReadInputPin(LCD_D4_PORT,LCD_D4_PIN)){tmp |= 1<<0;}
                                   1309 ; genIPush
      008535 4B 01            [ 1] 1310 	push	#0x01
                           0002C5  1311 	Sstm8_hd44780$lcd_bus_read$358 ==.
                                   1312 ; genIPush
      008537 4B 1E            [ 1] 1313 	push	#0x1e
                           0002C7  1314 	Sstm8_hd44780$lcd_bus_read$359 ==.
      008539 4B 50            [ 1] 1315 	push	#0x50
                           0002C9  1316 	Sstm8_hd44780$lcd_bus_read$360 ==.
                                   1317 ; genCall
      00853B CD 90 2A         [ 4] 1318 	call	_GPIO_ReadInputPin
      00853E 5B 03            [ 2] 1319 	addw	sp, #3
                           0002CE  1320 	Sstm8_hd44780$lcd_bus_read$361 ==.
                                   1321 ; genIfx
      008540 4D               [ 1] 1322 	tnz	a
      008541 26 03            [ 1] 1323 	jrne	00131$
      008543 CC 85 4B         [ 2] 1324 	jp	00102$
      008546                       1325 00131$:
                           0002D4  1326 	Sstm8_hd44780$lcd_bus_read$362 ==.
                                   1327 ; genOr
      008546 04 01            [ 1] 1328 	srl	(0x01, sp)
      008548 99               [ 1] 1329 	scf
      008549 09 01            [ 1] 1330 	rlc	(0x01, sp)
                           0002D9  1331 	Sstm8_hd44780$lcd_bus_read$363 ==.
                                   1332 ; genLabel
      00854B                       1333 00102$:
                           0002D9  1334 	Sstm8_hd44780$lcd_bus_read$364 ==.
                                   1335 ;	./src/stm8_hd44780.c: 169: if(GPIO_ReadInputPin(LCD_D5_PORT,LCD_D5_PIN)){tmp |= 1<<1;}
                                   1336 ; genIPush
      00854B 4B 02            [ 1] 1337 	push	#0x02
                           0002DB  1338 	Sstm8_hd44780$lcd_bus_read$365 ==.
                                   1339 ; genIPush
      00854D 4B 1E            [ 1] 1340 	push	#0x1e
                           0002DD  1341 	Sstm8_hd44780$lcd_bus_read$366 ==.
      00854F 4B 50            [ 1] 1342 	push	#0x50
                           0002DF  1343 	Sstm8_hd44780$lcd_bus_read$367 ==.
                                   1344 ; genCall
      008551 CD 90 2A         [ 4] 1345 	call	_GPIO_ReadInputPin
      008554 5B 03            [ 2] 1346 	addw	sp, #3
                           0002E4  1347 	Sstm8_hd44780$lcd_bus_read$368 ==.
                                   1348 ; genIfx
      008556 4D               [ 1] 1349 	tnz	a
      008557 26 03            [ 1] 1350 	jrne	00132$
      008559 CC 85 62         [ 2] 1351 	jp	00104$
      00855C                       1352 00132$:
                           0002EA  1353 	Sstm8_hd44780$lcd_bus_read$369 ==.
                                   1354 ; genOr
      00855C 7B 01            [ 1] 1355 	ld	a, (0x01, sp)
      00855E AA 02            [ 1] 1356 	or	a, #0x02
      008560 6B 01            [ 1] 1357 	ld	(0x01, sp), a
                           0002F0  1358 	Sstm8_hd44780$lcd_bus_read$370 ==.
                                   1359 ; genLabel
      008562                       1360 00104$:
                           0002F0  1361 	Sstm8_hd44780$lcd_bus_read$371 ==.
                                   1362 ;	./src/stm8_hd44780.c: 170: if(GPIO_ReadInputPin(LCD_D6_PORT,LCD_D6_PIN)){tmp |= 1<<2;}
                                   1363 ; genIPush
      008562 4B 04            [ 1] 1364 	push	#0x04
                           0002F2  1365 	Sstm8_hd44780$lcd_bus_read$372 ==.
                                   1366 ; genIPush
      008564 4B 1E            [ 1] 1367 	push	#0x1e
                           0002F4  1368 	Sstm8_hd44780$lcd_bus_read$373 ==.
      008566 4B 50            [ 1] 1369 	push	#0x50
                           0002F6  1370 	Sstm8_hd44780$lcd_bus_read$374 ==.
                                   1371 ; genCall
      008568 CD 90 2A         [ 4] 1372 	call	_GPIO_ReadInputPin
      00856B 5B 03            [ 2] 1373 	addw	sp, #3
                           0002FB  1374 	Sstm8_hd44780$lcd_bus_read$375 ==.
                                   1375 ; genIfx
      00856D 4D               [ 1] 1376 	tnz	a
      00856E 26 03            [ 1] 1377 	jrne	00133$
      008570 CC 85 79         [ 2] 1378 	jp	00106$
      008573                       1379 00133$:
                           000301  1380 	Sstm8_hd44780$lcd_bus_read$376 ==.
                                   1381 ; genOr
      008573 7B 01            [ 1] 1382 	ld	a, (0x01, sp)
      008575 AA 04            [ 1] 1383 	or	a, #0x04
      008577 6B 01            [ 1] 1384 	ld	(0x01, sp), a
                           000307  1385 	Sstm8_hd44780$lcd_bus_read$377 ==.
                                   1386 ; genLabel
      008579                       1387 00106$:
                           000307  1388 	Sstm8_hd44780$lcd_bus_read$378 ==.
                                   1389 ;	./src/stm8_hd44780.c: 171: if(GPIO_ReadInputPin(LCD_D7_PORT,LCD_D7_PIN)){tmp |= 1<<3;}
                                   1390 ; genIPush
      008579 4B 08            [ 1] 1391 	push	#0x08
                           000309  1392 	Sstm8_hd44780$lcd_bus_read$379 ==.
                                   1393 ; genIPush
      00857B 4B 1E            [ 1] 1394 	push	#0x1e
                           00030B  1395 	Sstm8_hd44780$lcd_bus_read$380 ==.
      00857D 4B 50            [ 1] 1396 	push	#0x50
                           00030D  1397 	Sstm8_hd44780$lcd_bus_read$381 ==.
                                   1398 ; genCall
      00857F CD 90 2A         [ 4] 1399 	call	_GPIO_ReadInputPin
      008582 5B 03            [ 2] 1400 	addw	sp, #3
                           000312  1401 	Sstm8_hd44780$lcd_bus_read$382 ==.
                                   1402 ; genIfx
      008584 4D               [ 1] 1403 	tnz	a
      008585 26 03            [ 1] 1404 	jrne	00134$
      008587 CC 85 90         [ 2] 1405 	jp	00108$
      00858A                       1406 00134$:
                           000318  1407 	Sstm8_hd44780$lcd_bus_read$383 ==.
                                   1408 ; genOr
      00858A 7B 01            [ 1] 1409 	ld	a, (0x01, sp)
      00858C AA 08            [ 1] 1410 	or	a, #0x08
      00858E 6B 01            [ 1] 1411 	ld	(0x01, sp), a
                           00031E  1412 	Sstm8_hd44780$lcd_bus_read$384 ==.
                                   1413 ; genLabel
      008590                       1414 00108$:
                           00031E  1415 	Sstm8_hd44780$lcd_bus_read$385 ==.
                                   1416 ;	./src/stm8_hd44780.c: 172: return tmp;
                                   1417 ; genReturn
      008590 7B 01            [ 1] 1418 	ld	a, (0x01, sp)
                                   1419 ; genLabel
      008592                       1420 00109$:
                           000320  1421 	Sstm8_hd44780$lcd_bus_read$386 ==.
                                   1422 ;	./src/stm8_hd44780.c: 173: }
                                   1423 ; genEndFunction
      008592 5B 01            [ 2] 1424 	addw	sp, #1
                           000322  1425 	Sstm8_hd44780$lcd_bus_read$387 ==.
                           000322  1426 	Sstm8_hd44780$lcd_bus_read$388 ==.
                           000322  1427 	XG$lcd_bus_read$0$0 ==.
      008594 81               [ 4] 1428 	ret
                           000323  1429 	Sstm8_hd44780$lcd_bus_read$389 ==.
                           000323  1430 	Sstm8_hd44780$lcd_e_tick$390 ==.
                                   1431 ;	./src/stm8_hd44780.c: 176: void lcd_e_tick(void){
                                   1432 ; genLabel
                                   1433 ;	-----------------------------------------
                                   1434 ;	 function lcd_e_tick
                                   1435 ;	-----------------------------------------
                                   1436 ;	Register assignment is optimal.
                                   1437 ;	Stack space usage: 0 bytes.
      008595                       1438 _lcd_e_tick:
                           000323  1439 	Sstm8_hd44780$lcd_e_tick$391 ==.
                           000323  1440 	Sstm8_hd44780$lcd_e_tick$392 ==.
                                   1441 ;	./src/stm8_hd44780.c: 177: LCD_E_H;
                                   1442 ; genIPush
      008595 4B 20            [ 1] 1443 	push	#0x20
                           000325  1444 	Sstm8_hd44780$lcd_e_tick$393 ==.
                                   1445 ; genIPush
      008597 4B 19            [ 1] 1446 	push	#0x19
                           000327  1447 	Sstm8_hd44780$lcd_e_tick$394 ==.
      008599 4B 50            [ 1] 1448 	push	#0x50
                           000329  1449 	Sstm8_hd44780$lcd_e_tick$395 ==.
                                   1450 ; genCall
      00859B CD 90 05         [ 4] 1451 	call	_GPIO_WriteHigh
      00859E 5B 03            [ 2] 1452 	addw	sp, #3
                           00032E  1453 	Sstm8_hd44780$lcd_e_tick$396 ==.
                           00032E  1454 	Sstm8_hd44780$lcd_e_tick$397 ==.
                                   1455 ;	inc/delay.h: 42: _delay_cycl( (unsigned short)( T_COUNT(__us) ));
                                   1456 ; genAssign
      0085A0 AE 00 03         [ 2] 1457 	ldw	x, #0x0003
                           000331  1458 	Sstm8_hd44780$lcd_e_tick$398 ==.
                                   1459 ;	inc/delay.h: 25: __asm__("nop\n nop\n"); 
                                   1460 ;	genInline
      0085A3 9D               [ 1] 1461 	nop
      0085A4 9D               [ 1] 1462 	nop
                           000333  1463 	Sstm8_hd44780$lcd_e_tick$399 ==.
                           000333  1464 	Sstm8_hd44780$lcd_e_tick$400 ==.
                                   1465 ;	inc/delay.h: 26: do { 		// ASM: ldw X, #tick; lab$: decw X; tnzw X; jrne lab$
                                   1466 ; genAssign
                                   1467 ; genLabel
      0085A5                       1468 00101$:
                           000333  1469 	Sstm8_hd44780$lcd_e_tick$401 ==.
                                   1470 ;	inc/delay.h: 27: __ticks--;//      2c;                 1c;     2c    ; 1/2c   
                                   1471 ; genMinus
      0085A5 5A               [ 2] 1472 	decw	x
                           000334  1473 	Sstm8_hd44780$lcd_e_tick$402 ==.
                                   1474 ;	inc/delay.h: 28: } while ( __ticks );
                                   1475 ; genIfx
      0085A6 5D               [ 2] 1476 	tnzw	x
      0085A7 27 03            [ 1] 1477 	jreq	00135$
      0085A9 CC 85 A5         [ 2] 1478 	jp	00101$
      0085AC                       1479 00135$:
                                   1480 ;	inc/delay.h: 29: __asm__("nop\n");
                                   1481 ;	genInline
      0085AC 9D               [ 1] 1482 	nop
                           00033B  1483 	Sstm8_hd44780$lcd_e_tick$403 ==.
                           00033B  1484 	Sstm8_hd44780$lcd_e_tick$404 ==.
                                   1485 ;	./src/stm8_hd44780.c: 179: LCD_E_L;
                                   1486 ; genIPush
      0085AD 4B 20            [ 1] 1487 	push	#0x20
                           00033D  1488 	Sstm8_hd44780$lcd_e_tick$405 ==.
                                   1489 ; genIPush
      0085AF 4B 19            [ 1] 1490 	push	#0x19
                           00033F  1491 	Sstm8_hd44780$lcd_e_tick$406 ==.
      0085B1 4B 50            [ 1] 1492 	push	#0x50
                           000341  1493 	Sstm8_hd44780$lcd_e_tick$407 ==.
                                   1494 ; genCall
      0085B3 CD 90 0C         [ 4] 1495 	call	_GPIO_WriteLow
      0085B6 5B 03            [ 2] 1496 	addw	sp, #3
                           000346  1497 	Sstm8_hd44780$lcd_e_tick$408 ==.
                           000346  1498 	Sstm8_hd44780$lcd_e_tick$409 ==.
                                   1499 ;	inc/delay.h: 42: _delay_cycl( (unsigned short)( T_COUNT(__us) ));
                                   1500 ; genAssign
      0085B8 AE 00 03         [ 2] 1501 	ldw	x, #0x0003
                           000349  1502 	Sstm8_hd44780$lcd_e_tick$410 ==.
                                   1503 ;	inc/delay.h: 25: __asm__("nop\n nop\n"); 
                                   1504 ;	genInline
      0085BB 9D               [ 1] 1505 	nop
      0085BC 9D               [ 1] 1506 	nop
                           00034B  1507 	Sstm8_hd44780$lcd_e_tick$411 ==.
                           00034B  1508 	Sstm8_hd44780$lcd_e_tick$412 ==.
                                   1509 ;	inc/delay.h: 26: do { 		// ASM: ldw X, #tick; lab$: decw X; tnzw X; jrne lab$
                                   1510 ; genAssign
                                   1511 ; genLabel
      0085BD                       1512 00106$:
                           00034B  1513 	Sstm8_hd44780$lcd_e_tick$413 ==.
                                   1514 ;	inc/delay.h: 27: __ticks--;//      2c;                 1c;     2c    ; 1/2c   
                                   1515 ; genMinus
      0085BD 5A               [ 2] 1516 	decw	x
                           00034C  1517 	Sstm8_hd44780$lcd_e_tick$414 ==.
                                   1518 ;	inc/delay.h: 28: } while ( __ticks );
                                   1519 ; genIfx
      0085BE 5D               [ 2] 1520 	tnzw	x
      0085BF 27 03            [ 1] 1521 	jreq	00136$
      0085C1 CC 85 BD         [ 2] 1522 	jp	00106$
      0085C4                       1523 00136$:
                                   1524 ;	inc/delay.h: 29: __asm__("nop\n");
                                   1525 ;	genInline
      0085C4 9D               [ 1] 1526 	nop
                           000353  1527 	Sstm8_hd44780$lcd_e_tick$415 ==.
                           000353  1528 	Sstm8_hd44780$lcd_e_tick$416 ==.
                                   1529 ;	./src/stm8_hd44780.c: 180: _delay_us(LCD_E_DELAY);
                                   1530 ; genLabel
      0085C5                       1531 00111$:
                           000353  1532 	Sstm8_hd44780$lcd_e_tick$417 ==.
                                   1533 ;	./src/stm8_hd44780.c: 181: }
                                   1534 ; genEndFunction
                           000353  1535 	Sstm8_hd44780$lcd_e_tick$418 ==.
                           000353  1536 	XG$lcd_e_tick$0$0 ==.
      0085C5 81               [ 4] 1537 	ret
                           000354  1538 	Sstm8_hd44780$lcd_e_tick$419 ==.
                           000354  1539 	Sstm8_hd44780$lcd_command$420 ==.
                                   1540 ;	./src/stm8_hd44780.c: 184: void lcd_command(uint8_t command){
                                   1541 ; genLabel
                                   1542 ;	-----------------------------------------
                                   1543 ;	 function lcd_command
                                   1544 ;	-----------------------------------------
                                   1545 ;	Register assignment is optimal.
                                   1546 ;	Stack space usage: 0 bytes.
      0085C6                       1547 _lcd_command:
                           000354  1548 	Sstm8_hd44780$lcd_command$421 ==.
                           000354  1549 	Sstm8_hd44780$lcd_command$422 ==.
                                   1550 ;	./src/stm8_hd44780.c: 185: LCD_RS_L;
                                   1551 ; genIPush
      0085C6 4B 80            [ 1] 1552 	push	#0x80
                           000356  1553 	Sstm8_hd44780$lcd_command$423 ==.
                                   1554 ; genIPush
      0085C8 4B 19            [ 1] 1555 	push	#0x19
                           000358  1556 	Sstm8_hd44780$lcd_command$424 ==.
      0085CA 4B 50            [ 1] 1557 	push	#0x50
                           00035A  1558 	Sstm8_hd44780$lcd_command$425 ==.
                                   1559 ; genCall
      0085CC CD 90 0C         [ 4] 1560 	call	_GPIO_WriteLow
      0085CF 5B 03            [ 2] 1561 	addw	sp, #3
                           00035F  1562 	Sstm8_hd44780$lcd_command$426 ==.
                           00035F  1563 	Sstm8_hd44780$lcd_command$427 ==.
                                   1564 ;	inc/delay.h: 42: _delay_cycl( (unsigned short)( T_COUNT(__us) ));
                                   1565 ; genAssign
      0085D1 AE 00 03         [ 2] 1566 	ldw	x, #0x0003
                           000362  1567 	Sstm8_hd44780$lcd_command$428 ==.
                                   1568 ;	inc/delay.h: 25: __asm__("nop\n nop\n"); 
                                   1569 ;	genInline
      0085D4 9D               [ 1] 1570 	nop
      0085D5 9D               [ 1] 1571 	nop
                           000364  1572 	Sstm8_hd44780$lcd_command$429 ==.
                           000364  1573 	Sstm8_hd44780$lcd_command$430 ==.
                                   1574 ;	inc/delay.h: 26: do { 		// ASM: ldw X, #tick; lab$: decw X; tnzw X; jrne lab$
                                   1575 ; genAssign
                                   1576 ; genLabel
      0085D6                       1577 00101$:
                           000364  1578 	Sstm8_hd44780$lcd_command$431 ==.
                                   1579 ;	inc/delay.h: 27: __ticks--;//      2c;                 1c;     2c    ; 1/2c   
                                   1580 ; genMinus
      0085D6 5A               [ 2] 1581 	decw	x
                           000365  1582 	Sstm8_hd44780$lcd_command$432 ==.
                                   1583 ;	inc/delay.h: 28: } while ( __ticks );
                                   1584 ; genIfx
      0085D7 5D               [ 2] 1585 	tnzw	x
      0085D8 27 03            [ 1] 1586 	jreq	00119$
      0085DA CC 85 D6         [ 2] 1587 	jp	00101$
      0085DD                       1588 00119$:
                                   1589 ;	inc/delay.h: 29: __asm__("nop\n");
                                   1590 ;	genInline
      0085DD 9D               [ 1] 1591 	nop
                           00036C  1592 	Sstm8_hd44780$lcd_command$433 ==.
                           00036C  1593 	Sstm8_hd44780$lcd_command$434 ==.
                                   1594 ;	./src/stm8_hd44780.c: 187: lcd_bus_set((command >> 4) & 0b1111);
                                   1595 ; genRightShiftLiteral
      0085DE 7B 03            [ 1] 1596 	ld	a, (0x03, sp)
      0085E0 4E               [ 1] 1597 	swap	a
      0085E1 A4 0F            [ 1] 1598 	and	a, #0x0f
                                   1599 ; genAnd
      0085E3 A4 0F            [ 1] 1600 	and	a, #0x0f
                                   1601 ; genIPush
      0085E5 88               [ 1] 1602 	push	a
                           000374  1603 	Sstm8_hd44780$lcd_command$435 ==.
                                   1604 ; genCall
      0085E6 CD 84 AA         [ 4] 1605 	call	_lcd_bus_set
      0085E9 84               [ 1] 1606 	pop	a
                           000378  1607 	Sstm8_hd44780$lcd_command$436 ==.
                           000378  1608 	Sstm8_hd44780$lcd_command$437 ==.
                                   1609 ;	./src/stm8_hd44780.c: 188: lcd_e_tick();
                                   1610 ; genCall
      0085EA CD 85 95         [ 4] 1611 	call	_lcd_e_tick
                           00037B  1612 	Sstm8_hd44780$lcd_command$438 ==.
                                   1613 ;	./src/stm8_hd44780.c: 189: lcd_bus_set(command & 0b1111);
                                   1614 ; genAssign
      0085ED 7B 03            [ 1] 1615 	ld	a, (0x03, sp)
                                   1616 ; genAnd
      0085EF A4 0F            [ 1] 1617 	and	a, #0x0f
                                   1618 ; genIPush
      0085F1 88               [ 1] 1619 	push	a
                           000380  1620 	Sstm8_hd44780$lcd_command$439 ==.
                                   1621 ; genCall
      0085F2 CD 84 AA         [ 4] 1622 	call	_lcd_bus_set
      0085F5 84               [ 1] 1623 	pop	a
                           000384  1624 	Sstm8_hd44780$lcd_command$440 ==.
                           000384  1625 	Sstm8_hd44780$lcd_command$441 ==.
                                   1626 ;	./src/stm8_hd44780.c: 190: lcd_e_tick();
                                   1627 ; genCall
      0085F6 CD 85 95         [ 4] 1628 	call	_lcd_e_tick
                           000387  1629 	Sstm8_hd44780$lcd_command$442 ==.
                                   1630 ;	./src/stm8_hd44780.c: 191: lcd_busy_wait();
                                   1631 ; genCall
      0085F9 CC 87 32         [ 2] 1632 	jp	_lcd_busy_wait
                                   1633 ; genLabel
      0085FC                       1634 00106$:
                           00038A  1635 	Sstm8_hd44780$lcd_command$443 ==.
                                   1636 ;	./src/stm8_hd44780.c: 192: }
                                   1637 ; genEndFunction
                           00038A  1638 	Sstm8_hd44780$lcd_command$444 ==.
                           00038A  1639 	XG$lcd_command$0$0 ==.
      0085FC 81               [ 4] 1640 	ret
                           00038B  1641 	Sstm8_hd44780$lcd_command$445 ==.
                           00038B  1642 	Sstm8_hd44780$lcd_data$446 ==.
                                   1643 ;	./src/stm8_hd44780.c: 195: void lcd_data(uint8_t data){
                                   1644 ; genLabel
                                   1645 ;	-----------------------------------------
                                   1646 ;	 function lcd_data
                                   1647 ;	-----------------------------------------
                                   1648 ;	Register assignment is optimal.
                                   1649 ;	Stack space usage: 0 bytes.
      0085FD                       1650 _lcd_data:
                           00038B  1651 	Sstm8_hd44780$lcd_data$447 ==.
                           00038B  1652 	Sstm8_hd44780$lcd_data$448 ==.
                                   1653 ;	./src/stm8_hd44780.c: 196: LCD_RS_H;
                                   1654 ; genIPush
      0085FD 4B 80            [ 1] 1655 	push	#0x80
                           00038D  1656 	Sstm8_hd44780$lcd_data$449 ==.
                                   1657 ; genIPush
      0085FF 4B 19            [ 1] 1658 	push	#0x19
                           00038F  1659 	Sstm8_hd44780$lcd_data$450 ==.
      008601 4B 50            [ 1] 1660 	push	#0x50
                           000391  1661 	Sstm8_hd44780$lcd_data$451 ==.
                                   1662 ; genCall
      008603 CD 90 05         [ 4] 1663 	call	_GPIO_WriteHigh
      008606 5B 03            [ 2] 1664 	addw	sp, #3
                           000396  1665 	Sstm8_hd44780$lcd_data$452 ==.
                           000396  1666 	Sstm8_hd44780$lcd_data$453 ==.
                                   1667 ;	inc/delay.h: 42: _delay_cycl( (unsigned short)( T_COUNT(__us) ));
                                   1668 ; genAssign
      008608 AE 00 03         [ 2] 1669 	ldw	x, #0x0003
                           000399  1670 	Sstm8_hd44780$lcd_data$454 ==.
                                   1671 ;	inc/delay.h: 25: __asm__("nop\n nop\n"); 
                                   1672 ;	genInline
      00860B 9D               [ 1] 1673 	nop
      00860C 9D               [ 1] 1674 	nop
                           00039B  1675 	Sstm8_hd44780$lcd_data$455 ==.
                           00039B  1676 	Sstm8_hd44780$lcd_data$456 ==.
                                   1677 ;	inc/delay.h: 26: do { 		// ASM: ldw X, #tick; lab$: decw X; tnzw X; jrne lab$
                                   1678 ; genAssign
                                   1679 ; genLabel
      00860D                       1680 00101$:
                           00039B  1681 	Sstm8_hd44780$lcd_data$457 ==.
                                   1682 ;	inc/delay.h: 27: __ticks--;//      2c;                 1c;     2c    ; 1/2c   
                                   1683 ; genMinus
      00860D 5A               [ 2] 1684 	decw	x
                           00039C  1685 	Sstm8_hd44780$lcd_data$458 ==.
                                   1686 ;	inc/delay.h: 28: } while ( __ticks );
                                   1687 ; genIfx
      00860E 5D               [ 2] 1688 	tnzw	x
      00860F 27 03            [ 1] 1689 	jreq	00119$
      008611 CC 86 0D         [ 2] 1690 	jp	00101$
      008614                       1691 00119$:
                                   1692 ;	inc/delay.h: 29: __asm__("nop\n");
                                   1693 ;	genInline
      008614 9D               [ 1] 1694 	nop
                           0003A3  1695 	Sstm8_hd44780$lcd_data$459 ==.
                           0003A3  1696 	Sstm8_hd44780$lcd_data$460 ==.
                                   1697 ;	./src/stm8_hd44780.c: 198: lcd_bus_set((data >> 4) & 0b1111);
                                   1698 ; genRightShiftLiteral
      008615 7B 03            [ 1] 1699 	ld	a, (0x03, sp)
      008617 4E               [ 1] 1700 	swap	a
      008618 A4 0F            [ 1] 1701 	and	a, #0x0f
                                   1702 ; genAnd
      00861A A4 0F            [ 1] 1703 	and	a, #0x0f
                                   1704 ; genIPush
      00861C 88               [ 1] 1705 	push	a
                           0003AB  1706 	Sstm8_hd44780$lcd_data$461 ==.
                                   1707 ; genCall
      00861D CD 84 AA         [ 4] 1708 	call	_lcd_bus_set
      008620 84               [ 1] 1709 	pop	a
                           0003AF  1710 	Sstm8_hd44780$lcd_data$462 ==.
                           0003AF  1711 	Sstm8_hd44780$lcd_data$463 ==.
                                   1712 ;	./src/stm8_hd44780.c: 199: lcd_e_tick();
                                   1713 ; genCall
      008621 CD 85 95         [ 4] 1714 	call	_lcd_e_tick
                           0003B2  1715 	Sstm8_hd44780$lcd_data$464 ==.
                                   1716 ;	./src/stm8_hd44780.c: 200: lcd_bus_set(data & 0b1111);
                                   1717 ; genAssign
      008624 7B 03            [ 1] 1718 	ld	a, (0x03, sp)
                                   1719 ; genAnd
      008626 A4 0F            [ 1] 1720 	and	a, #0x0f
                                   1721 ; genIPush
      008628 88               [ 1] 1722 	push	a
                           0003B7  1723 	Sstm8_hd44780$lcd_data$465 ==.
                                   1724 ; genCall
      008629 CD 84 AA         [ 4] 1725 	call	_lcd_bus_set
      00862C 84               [ 1] 1726 	pop	a
                           0003BB  1727 	Sstm8_hd44780$lcd_data$466 ==.
                           0003BB  1728 	Sstm8_hd44780$lcd_data$467 ==.
                                   1729 ;	./src/stm8_hd44780.c: 201: lcd_e_tick();
                                   1730 ; genCall
      00862D CD 85 95         [ 4] 1731 	call	_lcd_e_tick
                           0003BE  1732 	Sstm8_hd44780$lcd_data$468 ==.
                                   1733 ;	./src/stm8_hd44780.c: 202: lcd_busy_wait();
                                   1734 ; genCall
      008630 CC 87 32         [ 2] 1735 	jp	_lcd_busy_wait
                                   1736 ; genLabel
      008633                       1737 00106$:
                           0003C1  1738 	Sstm8_hd44780$lcd_data$469 ==.
                                   1739 ;	./src/stm8_hd44780.c: 203: }
                                   1740 ; genEndFunction
                           0003C1  1741 	Sstm8_hd44780$lcd_data$470 ==.
                           0003C1  1742 	XG$lcd_data$0$0 ==.
      008633 81               [ 4] 1743 	ret
                           0003C2  1744 	Sstm8_hd44780$lcd_data$471 ==.
                           0003C2  1745 	Sstm8_hd44780$lcd_read$472 ==.
                                   1746 ;	./src/stm8_hd44780.c: 206: uint8_t lcd_read(void){
                                   1747 ; genLabel
                                   1748 ;	-----------------------------------------
                                   1749 ;	 function lcd_read
                                   1750 ;	-----------------------------------------
                                   1751 ;	Register assignment might be sub-optimal.
                                   1752 ;	Stack space usage: 1 bytes.
      008634                       1753 _lcd_read:
                           0003C2  1754 	Sstm8_hd44780$lcd_read$473 ==.
      008634 88               [ 1] 1755 	push	a
                           0003C3  1756 	Sstm8_hd44780$lcd_read$474 ==.
                           0003C3  1757 	Sstm8_hd44780$lcd_read$475 ==.
                                   1758 ;	./src/stm8_hd44780.c: 208: LCD_RS_L;
                                   1759 ; genIPush
      008635 4B 80            [ 1] 1760 	push	#0x80
                           0003C5  1761 	Sstm8_hd44780$lcd_read$476 ==.
                                   1762 ; genIPush
      008637 4B 19            [ 1] 1763 	push	#0x19
                           0003C7  1764 	Sstm8_hd44780$lcd_read$477 ==.
      008639 4B 50            [ 1] 1765 	push	#0x50
                           0003C9  1766 	Sstm8_hd44780$lcd_read$478 ==.
                                   1767 ; genCall
      00863B CD 90 0C         [ 4] 1768 	call	_GPIO_WriteLow
      00863E 5B 03            [ 2] 1769 	addw	sp, #3
                           0003CE  1770 	Sstm8_hd44780$lcd_read$479 ==.
                           0003CE  1771 	Sstm8_hd44780$lcd_read$480 ==.
                                   1772 ;	./src/stm8_hd44780.c: 209: lcd_bus_inputs();
                                   1773 ; genCall
      008640 CD 84 19         [ 4] 1774 	call	_lcd_bus_inputs
                           0003D1  1775 	Sstm8_hd44780$lcd_read$481 ==.
                                   1776 ;	./src/stm8_hd44780.c: 210: LCD_RW_H;
                                   1777 ; genIPush
      008643 4B 40            [ 1] 1778 	push	#0x40
                           0003D3  1779 	Sstm8_hd44780$lcd_read$482 ==.
                                   1780 ; genIPush
      008645 4B 19            [ 1] 1781 	push	#0x19
                           0003D5  1782 	Sstm8_hd44780$lcd_read$483 ==.
      008647 4B 50            [ 1] 1783 	push	#0x50
                           0003D7  1784 	Sstm8_hd44780$lcd_read$484 ==.
                                   1785 ; genCall
      008649 CD 90 05         [ 4] 1786 	call	_GPIO_WriteHigh
      00864C 5B 03            [ 2] 1787 	addw	sp, #3
                           0003DC  1788 	Sstm8_hd44780$lcd_read$485 ==.
                           0003DC  1789 	Sstm8_hd44780$lcd_read$486 ==.
                                   1790 ;	inc/delay.h: 42: _delay_cycl( (unsigned short)( T_COUNT(__us) ));
                                   1791 ; genAssign
      00864E AE 00 03         [ 2] 1792 	ldw	x, #0x0003
                           0003DF  1793 	Sstm8_hd44780$lcd_read$487 ==.
                                   1794 ;	inc/delay.h: 25: __asm__("nop\n nop\n"); 
                                   1795 ;	genInline
      008651 9D               [ 1] 1796 	nop
      008652 9D               [ 1] 1797 	nop
                           0003E1  1798 	Sstm8_hd44780$lcd_read$488 ==.
                           0003E1  1799 	Sstm8_hd44780$lcd_read$489 ==.
                                   1800 ;	inc/delay.h: 26: do { 		// ASM: ldw X, #tick; lab$: decw X; tnzw X; jrne lab$
                                   1801 ; genAssign
                                   1802 ; genLabel
      008653                       1803 00101$:
                           0003E1  1804 	Sstm8_hd44780$lcd_read$490 ==.
                                   1805 ;	inc/delay.h: 27: __ticks--;//      2c;                 1c;     2c    ; 1/2c   
                                   1806 ; genMinus
      008653 5A               [ 2] 1807 	decw	x
                           0003E2  1808 	Sstm8_hd44780$lcd_read$491 ==.
                                   1809 ;	inc/delay.h: 28: } while ( __ticks );
                                   1810 ; genIfx
      008654 5D               [ 2] 1811 	tnzw	x
      008655 27 03            [ 1] 1812 	jreq	00183$
      008657 CC 86 53         [ 2] 1813 	jp	00101$
      00865A                       1814 00183$:
                                   1815 ;	inc/delay.h: 29: __asm__("nop\n");
                                   1816 ;	genInline
      00865A 9D               [ 1] 1817 	nop
                           0003E9  1818 	Sstm8_hd44780$lcd_read$492 ==.
                           0003E9  1819 	Sstm8_hd44780$lcd_read$493 ==.
                                   1820 ;	./src/stm8_hd44780.c: 212: LCD_E_H;
                                   1821 ; genIPush
      00865B 4B 20            [ 1] 1822 	push	#0x20
                           0003EB  1823 	Sstm8_hd44780$lcd_read$494 ==.
                                   1824 ; genIPush
      00865D 4B 19            [ 1] 1825 	push	#0x19
                           0003ED  1826 	Sstm8_hd44780$lcd_read$495 ==.
      00865F 4B 50            [ 1] 1827 	push	#0x50
                           0003EF  1828 	Sstm8_hd44780$lcd_read$496 ==.
                                   1829 ; genCall
      008661 CD 90 05         [ 4] 1830 	call	_GPIO_WriteHigh
      008664 5B 03            [ 2] 1831 	addw	sp, #3
                           0003F4  1832 	Sstm8_hd44780$lcd_read$497 ==.
                           0003F4  1833 	Sstm8_hd44780$lcd_read$498 ==.
                                   1834 ;	inc/delay.h: 42: _delay_cycl( (unsigned short)( T_COUNT(__us) ));
                                   1835 ; genAssign
      008666 AE 00 03         [ 2] 1836 	ldw	x, #0x0003
                           0003F7  1837 	Sstm8_hd44780$lcd_read$499 ==.
                                   1838 ;	inc/delay.h: 25: __asm__("nop\n nop\n"); 
                                   1839 ;	genInline
      008669 9D               [ 1] 1840 	nop
      00866A 9D               [ 1] 1841 	nop
                           0003F9  1842 	Sstm8_hd44780$lcd_read$500 ==.
                           0003F9  1843 	Sstm8_hd44780$lcd_read$501 ==.
                                   1844 ;	inc/delay.h: 26: do { 		// ASM: ldw X, #tick; lab$: decw X; tnzw X; jrne lab$
                                   1845 ; genAssign
                                   1846 ; genLabel
      00866B                       1847 00106$:
                           0003F9  1848 	Sstm8_hd44780$lcd_read$502 ==.
                                   1849 ;	inc/delay.h: 27: __ticks--;//      2c;                 1c;     2c    ; 1/2c   
                                   1850 ; genMinus
      00866B 5A               [ 2] 1851 	decw	x
                           0003FA  1852 	Sstm8_hd44780$lcd_read$503 ==.
                                   1853 ;	inc/delay.h: 28: } while ( __ticks );
                                   1854 ; genIfx
      00866C 5D               [ 2] 1855 	tnzw	x
      00866D 27 03            [ 1] 1856 	jreq	00184$
      00866F CC 86 6B         [ 2] 1857 	jp	00106$
      008672                       1858 00184$:
                                   1859 ;	inc/delay.h: 29: __asm__("nop\n");
                                   1860 ;	genInline
      008672 9D               [ 1] 1861 	nop
                           000401  1862 	Sstm8_hd44780$lcd_read$504 ==.
                           000401  1863 	Sstm8_hd44780$lcd_read$505 ==.
                                   1864 ;	./src/stm8_hd44780.c: 214: tmp = lcd_bus_read()<<4;
                                   1865 ; genCall
      008673 CD 85 32         [ 4] 1866 	call	_lcd_bus_read
                                   1867 ; genCast
                                   1868 ; genAssign
                                   1869 ; genLeftShiftLiteral
      008676 4E               [ 1] 1870 	swap	a
      008677 A4 F0            [ 1] 1871 	and	a, #0xf0
      008679 6B 01            [ 1] 1872 	ld	(0x01, sp), a
                           000409  1873 	Sstm8_hd44780$lcd_read$506 ==.
                                   1874 ;	./src/stm8_hd44780.c: 215: LCD_E_L;
                                   1875 ; genIPush
      00867B 4B 20            [ 1] 1876 	push	#0x20
                           00040B  1877 	Sstm8_hd44780$lcd_read$507 ==.
                                   1878 ; genIPush
      00867D 4B 19            [ 1] 1879 	push	#0x19
                           00040D  1880 	Sstm8_hd44780$lcd_read$508 ==.
      00867F 4B 50            [ 1] 1881 	push	#0x50
                           00040F  1882 	Sstm8_hd44780$lcd_read$509 ==.
                                   1883 ; genCall
      008681 CD 90 0C         [ 4] 1884 	call	_GPIO_WriteLow
      008684 5B 03            [ 2] 1885 	addw	sp, #3
                           000414  1886 	Sstm8_hd44780$lcd_read$510 ==.
                           000414  1887 	Sstm8_hd44780$lcd_read$511 ==.
                                   1888 ;	inc/delay.h: 42: _delay_cycl( (unsigned short)( T_COUNT(__us) ));
                                   1889 ; genAssign
      008686 AE 00 03         [ 2] 1890 	ldw	x, #0x0003
                           000417  1891 	Sstm8_hd44780$lcd_read$512 ==.
                                   1892 ;	inc/delay.h: 25: __asm__("nop\n nop\n"); 
                                   1893 ;	genInline
      008689 9D               [ 1] 1894 	nop
      00868A 9D               [ 1] 1895 	nop
                           000419  1896 	Sstm8_hd44780$lcd_read$513 ==.
                           000419  1897 	Sstm8_hd44780$lcd_read$514 ==.
                                   1898 ;	inc/delay.h: 26: do { 		// ASM: ldw X, #tick; lab$: decw X; tnzw X; jrne lab$
                                   1899 ; genAssign
                                   1900 ; genLabel
      00868B                       1901 00111$:
                           000419  1902 	Sstm8_hd44780$lcd_read$515 ==.
                                   1903 ;	inc/delay.h: 27: __ticks--;//      2c;                 1c;     2c    ; 1/2c   
                                   1904 ; genMinus
      00868B 5A               [ 2] 1905 	decw	x
                           00041A  1906 	Sstm8_hd44780$lcd_read$516 ==.
                                   1907 ;	inc/delay.h: 28: } while ( __ticks );
                                   1908 ; genIfx
      00868C 5D               [ 2] 1909 	tnzw	x
      00868D 27 03            [ 1] 1910 	jreq	00185$
      00868F CC 86 8B         [ 2] 1911 	jp	00111$
      008692                       1912 00185$:
                                   1913 ;	inc/delay.h: 29: __asm__("nop\n");
                                   1914 ;	genInline
      008692 9D               [ 1] 1915 	nop
                           000421  1916 	Sstm8_hd44780$lcd_read$517 ==.
                           000421  1917 	Sstm8_hd44780$lcd_read$518 ==.
                                   1918 ;	./src/stm8_hd44780.c: 217: LCD_E_H;
                                   1919 ; genIPush
      008693 4B 20            [ 1] 1920 	push	#0x20
                           000423  1921 	Sstm8_hd44780$lcd_read$519 ==.
                                   1922 ; genIPush
      008695 4B 19            [ 1] 1923 	push	#0x19
                           000425  1924 	Sstm8_hd44780$lcd_read$520 ==.
      008697 4B 50            [ 1] 1925 	push	#0x50
                           000427  1926 	Sstm8_hd44780$lcd_read$521 ==.
                                   1927 ; genCall
      008699 CD 90 05         [ 4] 1928 	call	_GPIO_WriteHigh
      00869C 5B 03            [ 2] 1929 	addw	sp, #3
                           00042C  1930 	Sstm8_hd44780$lcd_read$522 ==.
                           00042C  1931 	Sstm8_hd44780$lcd_read$523 ==.
                                   1932 ;	inc/delay.h: 42: _delay_cycl( (unsigned short)( T_COUNT(__us) ));
                                   1933 ; genAssign
      00869E AE 00 03         [ 2] 1934 	ldw	x, #0x0003
                           00042F  1935 	Sstm8_hd44780$lcd_read$524 ==.
                                   1936 ;	inc/delay.h: 25: __asm__("nop\n nop\n"); 
                                   1937 ;	genInline
      0086A1 9D               [ 1] 1938 	nop
      0086A2 9D               [ 1] 1939 	nop
                           000431  1940 	Sstm8_hd44780$lcd_read$525 ==.
                           000431  1941 	Sstm8_hd44780$lcd_read$526 ==.
                                   1942 ;	inc/delay.h: 26: do { 		// ASM: ldw X, #tick; lab$: decw X; tnzw X; jrne lab$
                                   1943 ; genAssign
                                   1944 ; genLabel
      0086A3                       1945 00116$:
                           000431  1946 	Sstm8_hd44780$lcd_read$527 ==.
                                   1947 ;	inc/delay.h: 27: __ticks--;//      2c;                 1c;     2c    ; 1/2c   
                                   1948 ; genMinus
      0086A3 5A               [ 2] 1949 	decw	x
                           000432  1950 	Sstm8_hd44780$lcd_read$528 ==.
                                   1951 ;	inc/delay.h: 28: } while ( __ticks );
                                   1952 ; genIfx
      0086A4 5D               [ 2] 1953 	tnzw	x
      0086A5 27 03            [ 1] 1954 	jreq	00186$
      0086A7 CC 86 A3         [ 2] 1955 	jp	00116$
      0086AA                       1956 00186$:
                                   1957 ;	inc/delay.h: 29: __asm__("nop\n");
                                   1958 ;	genInline
      0086AA 9D               [ 1] 1959 	nop
                           000439  1960 	Sstm8_hd44780$lcd_read$529 ==.
                           000439  1961 	Sstm8_hd44780$lcd_read$530 ==.
                                   1962 ;	./src/stm8_hd44780.c: 219: tmp |= lcd_bus_read();
                                   1963 ; genCall
      0086AB CD 85 32         [ 4] 1964 	call	_lcd_bus_read
                                   1965 ; genOr
      0086AE 1A 01            [ 1] 1966 	or	a, (0x01, sp)
                                   1967 ; genAssign
      0086B0 6B 01            [ 1] 1968 	ld	(0x01, sp), a
                           000440  1969 	Sstm8_hd44780$lcd_read$531 ==.
                                   1970 ;	./src/stm8_hd44780.c: 220: LCD_E_L;
                                   1971 ; genIPush
      0086B2 4B 20            [ 1] 1972 	push	#0x20
                           000442  1973 	Sstm8_hd44780$lcd_read$532 ==.
                                   1974 ; genIPush
      0086B4 4B 19            [ 1] 1975 	push	#0x19
                           000444  1976 	Sstm8_hd44780$lcd_read$533 ==.
      0086B6 4B 50            [ 1] 1977 	push	#0x50
                           000446  1978 	Sstm8_hd44780$lcd_read$534 ==.
                                   1979 ; genCall
      0086B8 CD 90 0C         [ 4] 1980 	call	_GPIO_WriteLow
      0086BB 5B 03            [ 2] 1981 	addw	sp, #3
                           00044B  1982 	Sstm8_hd44780$lcd_read$535 ==.
                           00044B  1983 	Sstm8_hd44780$lcd_read$536 ==.
                                   1984 ;	inc/delay.h: 42: _delay_cycl( (unsigned short)( T_COUNT(__us) ));
                                   1985 ; genAssign
      0086BD AE 00 03         [ 2] 1986 	ldw	x, #0x0003
                           00044E  1987 	Sstm8_hd44780$lcd_read$537 ==.
                                   1988 ;	inc/delay.h: 25: __asm__("nop\n nop\n"); 
                                   1989 ;	genInline
      0086C0 9D               [ 1] 1990 	nop
      0086C1 9D               [ 1] 1991 	nop
                           000450  1992 	Sstm8_hd44780$lcd_read$538 ==.
                           000450  1993 	Sstm8_hd44780$lcd_read$539 ==.
                                   1994 ;	inc/delay.h: 26: do { 		// ASM: ldw X, #tick; lab$: decw X; tnzw X; jrne lab$
                                   1995 ; genAssign
                                   1996 ; genLabel
      0086C2                       1997 00121$:
                           000450  1998 	Sstm8_hd44780$lcd_read$540 ==.
                                   1999 ;	inc/delay.h: 27: __ticks--;//      2c;                 1c;     2c    ; 1/2c   
                                   2000 ; genMinus
      0086C2 5A               [ 2] 2001 	decw	x
                           000451  2002 	Sstm8_hd44780$lcd_read$541 ==.
                                   2003 ;	inc/delay.h: 28: } while ( __ticks );
                                   2004 ; genIfx
      0086C3 5D               [ 2] 2005 	tnzw	x
      0086C4 27 03            [ 1] 2006 	jreq	00187$
      0086C6 CC 86 C2         [ 2] 2007 	jp	00121$
      0086C9                       2008 00187$:
                                   2009 ;	inc/delay.h: 29: __asm__("nop\n");
                                   2010 ;	genInline
      0086C9 9D               [ 1] 2011 	nop
                           000458  2012 	Sstm8_hd44780$lcd_read$542 ==.
                           000458  2013 	Sstm8_hd44780$lcd_read$543 ==.
                                   2014 ;	./src/stm8_hd44780.c: 222: LCD_RW_L;
                                   2015 ; genIPush
      0086CA 4B 40            [ 1] 2016 	push	#0x40
                           00045A  2017 	Sstm8_hd44780$lcd_read$544 ==.
                                   2018 ; genIPush
      0086CC 4B 19            [ 1] 2019 	push	#0x19
                           00045C  2020 	Sstm8_hd44780$lcd_read$545 ==.
      0086CE 4B 50            [ 1] 2021 	push	#0x50
                           00045E  2022 	Sstm8_hd44780$lcd_read$546 ==.
                                   2023 ; genCall
      0086D0 CD 90 0C         [ 4] 2024 	call	_GPIO_WriteLow
      0086D3 5B 03            [ 2] 2025 	addw	sp, #3
                           000463  2026 	Sstm8_hd44780$lcd_read$547 ==.
                           000463  2027 	Sstm8_hd44780$lcd_read$548 ==.
                                   2028 ;	./src/stm8_hd44780.c: 223: lcd_bus_outputs();
                                   2029 ; genCall
      0086D5 CD 83 E4         [ 4] 2030 	call	_lcd_bus_outputs
                           000466  2031 	Sstm8_hd44780$lcd_read$549 ==.
                                   2032 ;	./src/stm8_hd44780.c: 224: return tmp;
                                   2033 ; genReturn
      0086D8 7B 01            [ 1] 2034 	ld	a, (0x01, sp)
                                   2035 ; genLabel
      0086DA                       2036 00126$:
                           000468  2037 	Sstm8_hd44780$lcd_read$550 ==.
                                   2038 ;	./src/stm8_hd44780.c: 225: }
                                   2039 ; genEndFunction
      0086DA 5B 01            [ 2] 2040 	addw	sp, #1
                           00046A  2041 	Sstm8_hd44780$lcd_read$551 ==.
                           00046A  2042 	Sstm8_hd44780$lcd_read$552 ==.
                           00046A  2043 	XG$lcd_read$0$0 ==.
      0086DC 81               [ 4] 2044 	ret
                           00046B  2045 	Sstm8_hd44780$lcd_read$553 ==.
                           00046B  2046 	Sstm8_hd44780$lcd_bus_sleep$554 ==.
                                   2047 ;	./src/stm8_hd44780.c: 229: void lcd_bus_sleep(void){
                                   2048 ; genLabel
                                   2049 ;	-----------------------------------------
                                   2050 ;	 function lcd_bus_sleep
                                   2051 ;	-----------------------------------------
                                   2052 ;	Register assignment is optimal.
                                   2053 ;	Stack space usage: 0 bytes.
      0086DD                       2054 _lcd_bus_sleep:
                           00046B  2055 	Sstm8_hd44780$lcd_bus_sleep$555 ==.
                           00046B  2056 	Sstm8_hd44780$lcd_bus_sleep$556 ==.
                                   2057 ;	./src/stm8_hd44780.c: 230: LCD_RS_H;
                                   2058 ; genIPush
      0086DD 4B 80            [ 1] 2059 	push	#0x80
                           00046D  2060 	Sstm8_hd44780$lcd_bus_sleep$557 ==.
                                   2061 ; genIPush
      0086DF 4B 19            [ 1] 2062 	push	#0x19
                           00046F  2063 	Sstm8_hd44780$lcd_bus_sleep$558 ==.
      0086E1 4B 50            [ 1] 2064 	push	#0x50
                           000471  2065 	Sstm8_hd44780$lcd_bus_sleep$559 ==.
                                   2066 ; genCall
      0086E3 CD 90 05         [ 4] 2067 	call	_GPIO_WriteHigh
      0086E6 5B 03            [ 2] 2068 	addw	sp, #3
                           000476  2069 	Sstm8_hd44780$lcd_bus_sleep$560 ==.
                           000476  2070 	Sstm8_hd44780$lcd_bus_sleep$561 ==.
                                   2071 ;	./src/stm8_hd44780.c: 231: LCD_RW_H;
                                   2072 ; genIPush
      0086E8 4B 40            [ 1] 2073 	push	#0x40
                           000478  2074 	Sstm8_hd44780$lcd_bus_sleep$562 ==.
                                   2075 ; genIPush
      0086EA 4B 19            [ 1] 2076 	push	#0x19
                           00047A  2077 	Sstm8_hd44780$lcd_bus_sleep$563 ==.
      0086EC 4B 50            [ 1] 2078 	push	#0x50
                           00047C  2079 	Sstm8_hd44780$lcd_bus_sleep$564 ==.
                                   2080 ; genCall
      0086EE CD 90 05         [ 4] 2081 	call	_GPIO_WriteHigh
      0086F1 5B 03            [ 2] 2082 	addw	sp, #3
                           000481  2083 	Sstm8_hd44780$lcd_bus_sleep$565 ==.
                           000481  2084 	Sstm8_hd44780$lcd_bus_sleep$566 ==.
                                   2085 ;	./src/stm8_hd44780.c: 232: lcd_bus_inputs();
                                   2086 ; genCall
      0086F3 CC 84 19         [ 2] 2087 	jp	_lcd_bus_inputs
                                   2088 ; genLabel
      0086F6                       2089 00101$:
                           000484  2090 	Sstm8_hd44780$lcd_bus_sleep$567 ==.
                                   2091 ;	./src/stm8_hd44780.c: 233: }
                                   2092 ; genEndFunction
                           000484  2093 	Sstm8_hd44780$lcd_bus_sleep$568 ==.
                           000484  2094 	XG$lcd_bus_sleep$0$0 ==.
      0086F6 81               [ 4] 2095 	ret
                           000485  2096 	Sstm8_hd44780$lcd_bus_sleep$569 ==.
                           000485  2097 	Sstm8_hd44780$lcd_bus_wakeup$570 ==.
                                   2098 ;	./src/stm8_hd44780.c: 236: void lcd_bus_wakeup(void){
                                   2099 ; genLabel
                                   2100 ;	-----------------------------------------
                                   2101 ;	 function lcd_bus_wakeup
                                   2102 ;	-----------------------------------------
                                   2103 ;	Register assignment is optimal.
                                   2104 ;	Stack space usage: 0 bytes.
      0086F7                       2105 _lcd_bus_wakeup:
                           000485  2106 	Sstm8_hd44780$lcd_bus_wakeup$571 ==.
                           000485  2107 	Sstm8_hd44780$lcd_bus_wakeup$572 ==.
                                   2108 ;	./src/stm8_hd44780.c: 237: LCD_RW_L;
                                   2109 ; genIPush
      0086F7 4B 40            [ 1] 2110 	push	#0x40
                           000487  2111 	Sstm8_hd44780$lcd_bus_wakeup$573 ==.
                                   2112 ; genIPush
      0086F9 4B 19            [ 1] 2113 	push	#0x19
                           000489  2114 	Sstm8_hd44780$lcd_bus_wakeup$574 ==.
      0086FB 4B 50            [ 1] 2115 	push	#0x50
                           00048B  2116 	Sstm8_hd44780$lcd_bus_wakeup$575 ==.
                                   2117 ; genCall
      0086FD CD 90 0C         [ 4] 2118 	call	_GPIO_WriteLow
      008700 5B 03            [ 2] 2119 	addw	sp, #3
                           000490  2120 	Sstm8_hd44780$lcd_bus_wakeup$576 ==.
                           000490  2121 	Sstm8_hd44780$lcd_bus_wakeup$577 ==.
                                   2122 ;	./src/stm8_hd44780.c: 238: LCD_D4_H;
                                   2123 ; genIPush
      008702 4B 01            [ 1] 2124 	push	#0x01
                           000492  2125 	Sstm8_hd44780$lcd_bus_wakeup$578 ==.
                                   2126 ; genIPush
      008704 4B 1E            [ 1] 2127 	push	#0x1e
                           000494  2128 	Sstm8_hd44780$lcd_bus_wakeup$579 ==.
      008706 4B 50            [ 1] 2129 	push	#0x50
                           000496  2130 	Sstm8_hd44780$lcd_bus_wakeup$580 ==.
                                   2131 ; genCall
      008708 CD 90 05         [ 4] 2132 	call	_GPIO_WriteHigh
      00870B 5B 03            [ 2] 2133 	addw	sp, #3
                           00049B  2134 	Sstm8_hd44780$lcd_bus_wakeup$581 ==.
                           00049B  2135 	Sstm8_hd44780$lcd_bus_wakeup$582 ==.
                                   2136 ;	./src/stm8_hd44780.c: 239: LCD_D5_H;
                                   2137 ; genIPush
      00870D 4B 02            [ 1] 2138 	push	#0x02
                           00049D  2139 	Sstm8_hd44780$lcd_bus_wakeup$583 ==.
                                   2140 ; genIPush
      00870F 4B 1E            [ 1] 2141 	push	#0x1e
                           00049F  2142 	Sstm8_hd44780$lcd_bus_wakeup$584 ==.
      008711 4B 50            [ 1] 2143 	push	#0x50
                           0004A1  2144 	Sstm8_hd44780$lcd_bus_wakeup$585 ==.
                                   2145 ; genCall
      008713 CD 90 05         [ 4] 2146 	call	_GPIO_WriteHigh
      008716 5B 03            [ 2] 2147 	addw	sp, #3
                           0004A6  2148 	Sstm8_hd44780$lcd_bus_wakeup$586 ==.
                           0004A6  2149 	Sstm8_hd44780$lcd_bus_wakeup$587 ==.
                                   2150 ;	./src/stm8_hd44780.c: 240: LCD_D6_H;
                                   2151 ; genIPush
      008718 4B 04            [ 1] 2152 	push	#0x04
                           0004A8  2153 	Sstm8_hd44780$lcd_bus_wakeup$588 ==.
                                   2154 ; genIPush
      00871A 4B 1E            [ 1] 2155 	push	#0x1e
                           0004AA  2156 	Sstm8_hd44780$lcd_bus_wakeup$589 ==.
      00871C 4B 50            [ 1] 2157 	push	#0x50
                           0004AC  2158 	Sstm8_hd44780$lcd_bus_wakeup$590 ==.
                                   2159 ; genCall
      00871E CD 90 05         [ 4] 2160 	call	_GPIO_WriteHigh
      008721 5B 03            [ 2] 2161 	addw	sp, #3
                           0004B1  2162 	Sstm8_hd44780$lcd_bus_wakeup$591 ==.
                           0004B1  2163 	Sstm8_hd44780$lcd_bus_wakeup$592 ==.
                                   2164 ;	./src/stm8_hd44780.c: 241: LCD_D7_H;
                                   2165 ; genIPush
      008723 4B 08            [ 1] 2166 	push	#0x08
                           0004B3  2167 	Sstm8_hd44780$lcd_bus_wakeup$593 ==.
                                   2168 ; genIPush
      008725 4B 1E            [ 1] 2169 	push	#0x1e
                           0004B5  2170 	Sstm8_hd44780$lcd_bus_wakeup$594 ==.
      008727 4B 50            [ 1] 2171 	push	#0x50
                           0004B7  2172 	Sstm8_hd44780$lcd_bus_wakeup$595 ==.
                                   2173 ; genCall
      008729 CD 90 05         [ 4] 2174 	call	_GPIO_WriteHigh
      00872C 5B 03            [ 2] 2175 	addw	sp, #3
                           0004BC  2176 	Sstm8_hd44780$lcd_bus_wakeup$596 ==.
                           0004BC  2177 	Sstm8_hd44780$lcd_bus_wakeup$597 ==.
                                   2178 ;	./src/stm8_hd44780.c: 242: lcd_bus_outputs();
                                   2179 ; genCall
      00872E CC 83 E4         [ 2] 2180 	jp	_lcd_bus_outputs
                                   2181 ; genLabel
      008731                       2182 00101$:
                           0004BF  2183 	Sstm8_hd44780$lcd_bus_wakeup$598 ==.
                                   2184 ;	./src/stm8_hd44780.c: 243: }	
                                   2185 ; genEndFunction
                           0004BF  2186 	Sstm8_hd44780$lcd_bus_wakeup$599 ==.
                           0004BF  2187 	XG$lcd_bus_wakeup$0$0 ==.
      008731 81               [ 4] 2188 	ret
                           0004C0  2189 	Sstm8_hd44780$lcd_bus_wakeup$600 ==.
                           0004C0  2190 	Sstm8_hd44780$lcd_busy_wait$601 ==.
                                   2191 ;	./src/stm8_hd44780.c: 246: uint8_t lcd_busy_wait(void){
                                   2192 ; genLabel
                                   2193 ;	-----------------------------------------
                                   2194 ;	 function lcd_busy_wait
                                   2195 ;	-----------------------------------------
                                   2196 ;	Register assignment is optimal.
                                   2197 ;	Stack space usage: 0 bytes.
      008732                       2198 _lcd_busy_wait:
                           0004C0  2199 	Sstm8_hd44780$lcd_busy_wait$602 ==.
                           0004C0  2200 	Sstm8_hd44780$lcd_busy_wait$603 ==.
                                   2201 ;	./src/stm8_hd44780.c: 247: uint16_t timeout=LCD_BUSY_TIMEOUT;
                                   2202 ; genAssign
      008732 AE 01 F4         [ 2] 2203 	ldw	x, #0x01f4
                           0004C3  2204 	Sstm8_hd44780$lcd_busy_wait$604 ==.
                                   2205 ;	./src/stm8_hd44780.c: 248: while(timeout && lcd_busy()){
                                   2206 ; genAssign
                                   2207 ; genLabel
      008735                       2208 00102$:
                                   2209 ; genIfx
      008735 5D               [ 2] 2210 	tnzw	x
      008736 26 03            [ 1] 2211 	jrne	00131$
      008738 CC 87 4A         [ 2] 2212 	jp	00114$
      00873B                       2213 00131$:
                                   2214 ; genCall
      00873B 89               [ 2] 2215 	pushw	x
                           0004CA  2216 	Sstm8_hd44780$lcd_busy_wait$605 ==.
      00873C CD 86 34         [ 4] 2217 	call	_lcd_read
      00873F 85               [ 2] 2218 	popw	x
                           0004CE  2219 	Sstm8_hd44780$lcd_busy_wait$606 ==.
                                   2220 ; genAnd
      008740 4D               [ 1] 2221 	tnz	a
      008741 2B 03            [ 1] 2222 	jrmi	00132$
      008743 CC 87 4A         [ 2] 2223 	jp	00114$
      008746                       2224 00132$:
                                   2225 ; skipping generated iCode
                           0004D4  2226 	Sstm8_hd44780$lcd_busy_wait$607 ==.
                           0004D4  2227 	Sstm8_hd44780$lcd_busy_wait$608 ==.
                                   2228 ;	./src/stm8_hd44780.c: 249: timeout--;
                                   2229 ; genMinus
      008746 5A               [ 2] 2230 	decw	x
                           0004D5  2231 	Sstm8_hd44780$lcd_busy_wait$609 ==.
                                   2232 ; genGoto
      008747 CC 87 35         [ 2] 2233 	jp	00102$
                                   2234 ; genLabel
      00874A                       2235 00114$:
                                   2236 ; genAssign
                           0004D8  2237 	Sstm8_hd44780$lcd_busy_wait$610 ==.
                                   2238 ;	./src/stm8_hd44780.c: 251: if(timeout==0){return 1;} // error, busy still ==1
                                   2239 ; genIfx
      00874A 5D               [ 2] 2240 	tnzw	x
      00874B 27 03            [ 1] 2241 	jreq	00133$
      00874D CC 87 55         [ 2] 2242 	jp	00106$
      008750                       2243 00133$:
                           0004DE  2244 	Sstm8_hd44780$lcd_busy_wait$611 ==.
                                   2245 ; genReturn
      008750 A6 01            [ 1] 2246 	ld	a, #0x01
      008752 CC 87 56         [ 2] 2247 	jp	00108$
                           0004E3  2248 	Sstm8_hd44780$lcd_busy_wait$612 ==.
                                   2249 ; genLabel
      008755                       2250 00106$:
                           0004E3  2251 	Sstm8_hd44780$lcd_busy_wait$613 ==.
                           0004E3  2252 	Sstm8_hd44780$lcd_busy_wait$614 ==.
                                   2253 ;	./src/stm8_hd44780.c: 252: else{return 0;}
                                   2254 ; genReturn
      008755 4F               [ 1] 2255 	clr	a
                           0004E4  2256 	Sstm8_hd44780$lcd_busy_wait$615 ==.
                                   2257 ; genLabel
      008756                       2258 00108$:
                           0004E4  2259 	Sstm8_hd44780$lcd_busy_wait$616 ==.
                                   2260 ;	./src/stm8_hd44780.c: 253: }
                                   2261 ; genEndFunction
                           0004E4  2262 	Sstm8_hd44780$lcd_busy_wait$617 ==.
                           0004E4  2263 	XG$lcd_busy_wait$0$0 ==.
      008756 81               [ 4] 2264 	ret
                           0004E5  2265 	Sstm8_hd44780$lcd_busy_wait$618 ==.
                                   2266 	.area CODE
                                   2267 	.area CONST
                                   2268 	.area INITIALIZER
                                   2269 	.area CABS (ABS)
                                   2270 
                                   2271 	.area .debug_line (NOLOAD)
      0003B6 00 00 05 77           2272 	.dw	0,Ldebug_line_end-Ldebug_line_start
      0003BA                       2273 Ldebug_line_start:
      0003BA 00 02                 2274 	.dw	2
      0003BC 00 00 00 84           2275 	.dw	0,Ldebug_line_stmt-6-Ldebug_line_start
      0003C0 01                    2276 	.db	1
      0003C1 01                    2277 	.db	1
      0003C2 FB                    2278 	.db	-5
      0003C3 0F                    2279 	.db	15
      0003C4 0A                    2280 	.db	10
      0003C5 00                    2281 	.db	0
      0003C6 01                    2282 	.db	1
      0003C7 01                    2283 	.db	1
      0003C8 01                    2284 	.db	1
      0003C9 01                    2285 	.db	1
      0003CA 00                    2286 	.db	0
      0003CB 00                    2287 	.db	0
      0003CC 00                    2288 	.db	0
      0003CD 01                    2289 	.db	1
      0003CE 43 3A 5C 50 72 6F 67  2290 	.ascii "C:\Program Files\SDCC\bin\..\include\stm8"
             72 61 6D 20 46 69 6C
             65 73 5C 53 44 43 43
             08 69 6E 5C 2E 2E 5C
             69 6E 63 6C 75 64 65
             5C 73 74 6D 38
      0003F6 00                    2291 	.db	0
      0003F7 43 3A 5C 50 72 6F 67  2292 	.ascii "C:\Program Files\SDCC\bin\..\include"
             72 61 6D 20 46 69 6C
             65 73 5C 53 44 43 43
             08 69 6E 5C 2E 2E 5C
             69 6E 63 6C 75 64 65
      00041A 00                    2293 	.db	0
      00041B 00                    2294 	.db	0
      00041C 69 6E 63 2F 64 65 6C  2295 	.ascii "inc/delay.h"
             61 79 2E 68
      000427 00                    2296 	.db	0
      000428 00                    2297 	.uleb128	0
      000429 00                    2298 	.uleb128	0
      00042A 00                    2299 	.uleb128	0
      00042B 2E 2F 73 72 63 2F 73  2300 	.ascii "./src/stm8_hd44780.c"
             74 6D 38 5F 68 64 34
             34 37 38 30 2E 63
      00043F 00                    2301 	.db	0
      000440 00                    2302 	.uleb128	0
      000441 00                    2303 	.uleb128	0
      000442 00                    2304 	.uleb128	0
      000443 00                    2305 	.db	0
      000444                       2306 Ldebug_line_stmt:
      000444 00                    2307 	.db	0
      000445 05                    2308 	.uleb128	5
      000446 02                    2309 	.db	2
      000447 00 00 82 72           2310 	.dw	0,(Sstm8_hd44780$_delay_cycl$0)
      00044B 03                    2311 	.db	3
      00044C 0D                    2312 	.sleb128	13
      00044D 01                    2313 	.db	1
      00044E 09                    2314 	.db	9
      00044F 00 00                 2315 	.dw	Sstm8_hd44780$_delay_cycl$2-Sstm8_hd44780$_delay_cycl$0
      000451 03                    2316 	.db	3
      000452 0B                    2317 	.sleb128	11
      000453 01                    2318 	.db	1
      000454 09                    2319 	.db	9
      000455 00 02                 2320 	.dw	Sstm8_hd44780$_delay_cycl$3-Sstm8_hd44780$_delay_cycl$2
      000457 03                    2321 	.db	3
      000458 01                    2322 	.sleb128	1
      000459 01                    2323 	.db	1
      00045A 09                    2324 	.db	9
      00045B 00 02                 2325 	.dw	Sstm8_hd44780$_delay_cycl$5-Sstm8_hd44780$_delay_cycl$3
      00045D 03                    2326 	.db	3
      00045E 01                    2327 	.sleb128	1
      00045F 01                    2328 	.db	1
      000460 09                    2329 	.db	9
      000461 00 01                 2330 	.dw	Sstm8_hd44780$_delay_cycl$7-Sstm8_hd44780$_delay_cycl$5
      000463 03                    2331 	.db	3
      000464 01                    2332 	.sleb128	1
      000465 01                    2333 	.db	1
      000466 09                    2334 	.db	9
      000467 00 06                 2335 	.dw	Sstm8_hd44780$_delay_cycl$8-Sstm8_hd44780$_delay_cycl$7
      000469 03                    2336 	.db	3
      00046A 01                    2337 	.sleb128	1
      00046B 01                    2338 	.db	1
      00046C 09                    2339 	.db	9
      00046D 00 01                 2340 	.dw	Sstm8_hd44780$_delay_cycl$9-Sstm8_hd44780$_delay_cycl$8
      00046F 03                    2341 	.db	3
      000470 0A                    2342 	.sleb128	10
      000471 01                    2343 	.db	1
      000472 09                    2344 	.db	9
      000473 00 01                 2345 	.dw	1+Sstm8_hd44780$_delay_cycl$10-Sstm8_hd44780$_delay_cycl$9
      000475 00                    2346 	.db	0
      000476 01                    2347 	.uleb128	1
      000477 01                    2348 	.db	1
      000478 00                    2349 	.db	0
      000479 05                    2350 	.uleb128	5
      00047A 02                    2351 	.db	2
      00047B 00 00 82 7F           2352 	.dw	0,(Sstm8_hd44780$_delay_us$12)
      00047F 03                    2353 	.db	3
      000480 28                    2354 	.sleb128	40
      000481 01                    2355 	.db	1
      000482 09                    2356 	.db	9
      000483 00 2F                 2357 	.dw	Sstm8_hd44780$_delay_us$35-Sstm8_hd44780$_delay_us$12
      000485 03                    2358 	.db	3
      000486 71                    2359 	.sleb128	-15
      000487 01                    2360 	.db	1
      000488 09                    2361 	.db	9
      000489 00 08                 2362 	.dw	Sstm8_hd44780$_delay_us$39-Sstm8_hd44780$_delay_us$35
      00048B 03                    2363 	.db	3
      00048C 10                    2364 	.sleb128	16
      00048D 01                    2365 	.db	1
      00048E 09                    2366 	.db	9
      00048F 00 00                 2367 	.dw	Sstm8_hd44780$_delay_us$40-Sstm8_hd44780$_delay_us$39
      000491 03                    2368 	.db	3
      000492 01                    2369 	.sleb128	1
      000493 01                    2370 	.db	1
      000494 09                    2371 	.db	9
      000495 00 01                 2372 	.dw	1+Sstm8_hd44780$_delay_us$41-Sstm8_hd44780$_delay_us$40
      000497 00                    2373 	.db	0
      000498 01                    2374 	.uleb128	1
      000499 01                    2375 	.db	1
      00049A 04                    2376 	.db	4
      00049B 02                    2377 	.uleb128	2
      00049C 00                    2378 	.db	0
      00049D 05                    2379 	.uleb128	5
      00049E 02                    2380 	.db	2
      00049F 00 00 82 B7           2381 	.dw	0,(Sstm8_hd44780$lcd_store_symbol$43)
      0004A3 03                    2382 	.db	3
      0004A4 0C                    2383 	.sleb128	12
      0004A5 01                    2384 	.db	1
      0004A6 09                    2385 	.db	9
      0004A7 00 01                 2386 	.dw	Sstm8_hd44780$lcd_store_symbol$46-Sstm8_hd44780$lcd_store_symbol$43
      0004A9 03                    2387 	.db	3
      0004AA 02                    2388 	.sleb128	2
      0004AB 01                    2389 	.db	1
      0004AC 09                    2390 	.db	9
      0004AD 00 0C                 2391 	.dw	Sstm8_hd44780$lcd_store_symbol$47-Sstm8_hd44780$lcd_store_symbol$46
      0004AF 03                    2392 	.db	3
      0004B0 01                    2393 	.sleb128	1
      0004B1 01                    2394 	.db	1
      0004B2 09                    2395 	.db	9
      0004B3 00 09                 2396 	.dw	Sstm8_hd44780$lcd_store_symbol$50-Sstm8_hd44780$lcd_store_symbol$47
      0004B5 03                    2397 	.db	3
      0004B6 01                    2398 	.sleb128	1
      0004B7 01                    2399 	.db	1
      0004B8 09                    2400 	.db	9
      0004B9 00 02                 2401 	.dw	Sstm8_hd44780$lcd_store_symbol$52-Sstm8_hd44780$lcd_store_symbol$50
      0004BB 03                    2402 	.db	3
      0004BC 01                    2403 	.sleb128	1
      0004BD 01                    2404 	.db	1
      0004BE 09                    2405 	.db	9
      0004BF 00 0D                 2406 	.dw	Sstm8_hd44780$lcd_store_symbol$56-Sstm8_hd44780$lcd_store_symbol$52
      0004C1 03                    2407 	.db	3
      0004C2 7F                    2408 	.sleb128	-1
      0004C3 01                    2409 	.db	1
      0004C4 09                    2410 	.db	9
      0004C5 00 0B                 2411 	.dw	Sstm8_hd44780$lcd_store_symbol$57-Sstm8_hd44780$lcd_store_symbol$56
      0004C7 03                    2412 	.db	3
      0004C8 03                    2413 	.sleb128	3
      0004C9 01                    2414 	.db	1
      0004CA 09                    2415 	.db	9
      0004CB 00 06                 2416 	.dw	Sstm8_hd44780$lcd_store_symbol$60-Sstm8_hd44780$lcd_store_symbol$57
      0004CD 03                    2417 	.db	3
      0004CE 01                    2418 	.sleb128	1
      0004CF 01                    2419 	.db	1
      0004D0 09                    2420 	.db	9
      0004D1 00 02                 2421 	.dw	1+Sstm8_hd44780$lcd_store_symbol$62-Sstm8_hd44780$lcd_store_symbol$60
      0004D3 00                    2422 	.db	0
      0004D4 01                    2423 	.uleb128	1
      0004D5 01                    2424 	.db	1
      0004D6 04                    2425 	.db	4
      0004D7 02                    2426 	.uleb128	2
      0004D8 00                    2427 	.db	0
      0004D9 05                    2428 	.uleb128	5
      0004DA 02                    2429 	.db	2
      0004DB 00 00 82 EF           2430 	.dw	0,(Sstm8_hd44780$lcd_puts$64)
      0004DF 03                    2431 	.db	3
      0004E0 18                    2432 	.sleb128	24
      0004E1 01                    2433 	.db	1
      0004E2 09                    2434 	.db	9
      0004E3 00 00                 2435 	.dw	Sstm8_hd44780$lcd_puts$66-Sstm8_hd44780$lcd_puts$64
      0004E5 03                    2436 	.db	3
      0004E6 01                    2437 	.sleb128	1
      0004E7 01                    2438 	.db	1
      0004E8 09                    2439 	.db	9
      0004E9 00 09                 2440 	.dw	Sstm8_hd44780$lcd_puts$68-Sstm8_hd44780$lcd_puts$66
      0004EB 03                    2441 	.db	3
      0004EC 01                    2442 	.sleb128	1
      0004ED 01                    2443 	.db	1
      0004EE 09                    2444 	.db	9
      0004EF 00 07                 2445 	.dw	Sstm8_hd44780$lcd_puts$73-Sstm8_hd44780$lcd_puts$68
      0004F1 03                    2446 	.db	3
      0004F2 01                    2447 	.sleb128	1
      0004F3 01                    2448 	.db	1
      0004F4 09                    2449 	.db	9
      0004F5 00 04                 2450 	.dw	Sstm8_hd44780$lcd_puts$75-Sstm8_hd44780$lcd_puts$73
      0004F7 03                    2451 	.db	3
      0004F8 02                    2452 	.sleb128	2
      0004F9 01                    2453 	.db	1
      0004FA 09                    2454 	.db	9
      0004FB 00 01                 2455 	.dw	1+Sstm8_hd44780$lcd_puts$76-Sstm8_hd44780$lcd_puts$75
      0004FD 00                    2456 	.db	0
      0004FE 01                    2457 	.uleb128	1
      0004FF 01                    2458 	.db	1
      000500 04                    2459 	.db	4
      000501 02                    2460 	.uleb128	2
      000502 00                    2461 	.db	0
      000503 05                    2462 	.uleb128	5
      000504 02                    2463 	.db	2
      000505 00 00 83 04           2464 	.dw	0,(Sstm8_hd44780$lcd_init$78)
      000509 03                    2465 	.db	3
      00050A 1F                    2466 	.sleb128	31
      00050B 01                    2467 	.db	1
      00050C 09                    2468 	.db	9
      00050D 00 00                 2469 	.dw	Sstm8_hd44780$lcd_init$80-Sstm8_hd44780$lcd_init$78
      00050F 03                    2470 	.db	3
      000510 01                    2471 	.sleb128	1
      000511 01                    2472 	.db	1
      000512 09                    2473 	.db	9
      000513 00 03                 2474 	.dw	Sstm8_hd44780$lcd_init$81-Sstm8_hd44780$lcd_init$80
      000515 03                    2475 	.db	3
      000516 02                    2476 	.sleb128	2
      000517 01                    2477 	.db	1
      000518 04                    2478 	.db	4
      000519 01                    2479 	.uleb128	1
      00051A 09                    2480 	.db	9
      00051B 00 08                 2481 	.dw	Sstm8_hd44780$lcd_init$85-Sstm8_hd44780$lcd_init$81
      00051D 03                    2482 	.db	3
      00051E 77                    2483 	.sleb128	-9
      00051F 01                    2484 	.db	1
      000520 04                    2485 	.db	4
      000521 02                    2486 	.uleb128	2
      000522 09                    2487 	.db	9
      000523 00 08                 2488 	.dw	Sstm8_hd44780$lcd_init$89-Sstm8_hd44780$lcd_init$85
      000525 03                    2489 	.db	3
      000526 0C                    2490 	.sleb128	12
      000527 01                    2491 	.db	1
      000528 09                    2492 	.db	9
      000529 00 06                 2493 	.dw	Sstm8_hd44780$lcd_init$92-Sstm8_hd44780$lcd_init$89
      00052B 03                    2494 	.db	3
      00052C 01                    2495 	.sleb128	1
      00052D 01                    2496 	.db	1
      00052E 04                    2497 	.db	4
      00052F 01                    2498 	.uleb128	1
      000530 09                    2499 	.db	9
      000531 00 08                 2500 	.dw	Sstm8_hd44780$lcd_init$96-Sstm8_hd44780$lcd_init$92
      000533 03                    2501 	.db	3
      000534 73                    2502 	.sleb128	-13
      000535 01                    2503 	.db	1
      000536 04                    2504 	.db	4
      000537 02                    2505 	.uleb128	2
      000538 09                    2506 	.db	9
      000539 00 08                 2507 	.dw	Sstm8_hd44780$lcd_init$100-Sstm8_hd44780$lcd_init$96
      00053B 03                    2508 	.db	3
      00053C 10                    2509 	.sleb128	16
      00053D 01                    2510 	.db	1
      00053E 09                    2511 	.db	9
      00053F 00 06                 2512 	.dw	Sstm8_hd44780$lcd_init$103-Sstm8_hd44780$lcd_init$100
      000541 03                    2513 	.db	3
      000542 01                    2514 	.sleb128	1
      000543 01                    2515 	.db	1
      000544 04                    2516 	.db	4
      000545 01                    2517 	.uleb128	1
      000546 09                    2518 	.db	9
      000547 00 08                 2519 	.dw	Sstm8_hd44780$lcd_init$107-Sstm8_hd44780$lcd_init$103
      000549 03                    2520 	.db	3
      00054A 6F                    2521 	.sleb128	-17
      00054B 01                    2522 	.db	1
      00054C 04                    2523 	.db	4
      00054D 02                    2524 	.uleb128	2
      00054E 09                    2525 	.db	9
      00054F 00 08                 2526 	.dw	Sstm8_hd44780$lcd_init$111-Sstm8_hd44780$lcd_init$107
      000551 03                    2527 	.db	3
      000552 14                    2528 	.sleb128	20
      000553 01                    2529 	.db	1
      000554 09                    2530 	.db	9
      000555 00 06                 2531 	.dw	Sstm8_hd44780$lcd_init$114-Sstm8_hd44780$lcd_init$111
      000557 03                    2532 	.db	3
      000558 01                    2533 	.sleb128	1
      000559 01                    2534 	.db	1
      00055A 09                    2535 	.db	9
      00055B 00 03                 2536 	.dw	Sstm8_hd44780$lcd_init$115-Sstm8_hd44780$lcd_init$114
      00055D 03                    2537 	.db	3
      00055E 01                    2538 	.sleb128	1
      00055F 01                    2539 	.db	1
      000560 09                    2540 	.db	9
      000561 00 06                 2541 	.dw	Sstm8_hd44780$lcd_init$118-Sstm8_hd44780$lcd_init$115
      000563 03                    2542 	.db	3
      000564 01                    2543 	.sleb128	1
      000565 01                    2544 	.db	1
      000566 04                    2545 	.db	4
      000567 01                    2546 	.uleb128	1
      000568 09                    2547 	.db	9
      000569 00 08                 2548 	.dw	Sstm8_hd44780$lcd_init$122-Sstm8_hd44780$lcd_init$118
      00056B 03                    2549 	.db	3
      00056C 69                    2550 	.sleb128	-23
      00056D 01                    2551 	.db	1
      00056E 04                    2552 	.db	4
      00056F 02                    2553 	.uleb128	2
      000570 09                    2554 	.db	9
      000571 00 08                 2555 	.dw	Sstm8_hd44780$lcd_init$126-Sstm8_hd44780$lcd_init$122
      000573 03                    2556 	.db	3
      000574 1D                    2557 	.sleb128	29
      000575 01                    2558 	.db	1
      000576 09                    2559 	.db	9
      000577 00 06                 2560 	.dw	Sstm8_hd44780$lcd_init$129-Sstm8_hd44780$lcd_init$126
      000579 03                    2561 	.db	3
      00057A 02                    2562 	.sleb128	2
      00057B 01                    2563 	.db	1
      00057C 09                    2564 	.db	9
      00057D 00 06                 2565 	.dw	Sstm8_hd44780$lcd_init$132-Sstm8_hd44780$lcd_init$129
      00057F 03                    2566 	.db	3
      000580 01                    2567 	.sleb128	1
      000581 01                    2568 	.db	1
      000582 09                    2569 	.db	9
      000583 00 06                 2570 	.dw	Sstm8_hd44780$lcd_init$135-Sstm8_hd44780$lcd_init$132
      000585 03                    2571 	.db	3
      000586 01                    2572 	.sleb128	1
      000587 01                    2573 	.db	1
      000588 09                    2574 	.db	9
      000589 00 06                 2575 	.dw	Sstm8_hd44780$lcd_init$138-Sstm8_hd44780$lcd_init$135
      00058B 03                    2576 	.db	3
      00058C 01                    2577 	.sleb128	1
      00058D 01                    2578 	.db	1
      00058E 09                    2579 	.db	9
      00058F 00 06                 2580 	.dw	Sstm8_hd44780$lcd_init$141-Sstm8_hd44780$lcd_init$138
      000591 03                    2581 	.db	3
      000592 01                    2582 	.sleb128	1
      000593 01                    2583 	.db	1
      000594 09                    2584 	.db	9
      000595 00 06                 2585 	.dw	Sstm8_hd44780$lcd_init$144-Sstm8_hd44780$lcd_init$141
      000597 03                    2586 	.db	3
      000598 01                    2587 	.sleb128	1
      000599 01                    2588 	.db	1
      00059A 09                    2589 	.db	9
      00059B 00 01                 2590 	.dw	1+Sstm8_hd44780$lcd_init$145-Sstm8_hd44780$lcd_init$144
      00059D 00                    2591 	.db	0
      00059E 01                    2592 	.uleb128	1
      00059F 01                    2593 	.db	1
      0005A0 04                    2594 	.db	4
      0005A1 02                    2595 	.uleb128	2
      0005A2 00                    2596 	.db	0
      0005A3 05                    2597 	.uleb128	5
      0005A4 02                    2598 	.db	2
      0005A5 00 00 83 87           2599 	.dw	0,(Sstm8_hd44780$lcd_gotoxy$147)
      0005A9 03                    2600 	.db	3
      0005AA 3F                    2601 	.sleb128	63
      0005AB 01                    2602 	.db	1
      0005AC 09                    2603 	.db	9
      0005AD 00 00                 2604 	.dw	Sstm8_hd44780$lcd_gotoxy$149-Sstm8_hd44780$lcd_gotoxy$147
      0005AF 03                    2605 	.db	3
      0005B0 01                    2606 	.sleb128	1
      0005B1 01                    2607 	.db	1
      0005B2 09                    2608 	.db	9
      0005B3 00 01                 2609 	.dw	Sstm8_hd44780$lcd_gotoxy$150-Sstm8_hd44780$lcd_gotoxy$149
      0005B5 03                    2610 	.db	3
      0005B6 0C                    2611 	.sleb128	12
      0005B7 01                    2612 	.db	1
      0005B8 09                    2613 	.db	9
      0005B9 00 0D                 2614 	.dw	Sstm8_hd44780$lcd_gotoxy$153-Sstm8_hd44780$lcd_gotoxy$150
      0005BB 03                    2615 	.db	3
      0005BC 01                    2616 	.sleb128	1
      0005BD 01                    2617 	.db	1
      0005BE 09                    2618 	.db	9
      0005BF 00 0B                 2619 	.dw	Sstm8_hd44780$lcd_gotoxy$156-Sstm8_hd44780$lcd_gotoxy$153
      0005C1 03                    2620 	.db	3
      0005C2 01                    2621 	.sleb128	1
      0005C3 01                    2622 	.db	1
      0005C4 09                    2623 	.db	9
      0005C5 00 0E                 2624 	.dw	Sstm8_hd44780$lcd_gotoxy$160-Sstm8_hd44780$lcd_gotoxy$156
      0005C7 03                    2625 	.db	3
      0005C8 01                    2626 	.sleb128	1
      0005C9 01                    2627 	.db	1
      0005CA 09                    2628 	.db	9
      0005CB 00 03                 2629 	.dw	Sstm8_hd44780$lcd_gotoxy$161-Sstm8_hd44780$lcd_gotoxy$160
      0005CD 03                    2630 	.db	3
      0005CE 07                    2631 	.sleb128	7
      0005CF 01                    2632 	.db	1
      0005D0 09                    2633 	.db	9
      0005D1 00 07                 2634 	.dw	Sstm8_hd44780$lcd_gotoxy$164-Sstm8_hd44780$lcd_gotoxy$161
      0005D3 03                    2635 	.db	3
      0005D4 01                    2636 	.sleb128	1
      0005D5 01                    2637 	.db	1
      0005D6 09                    2638 	.db	9
      0005D7 00 01                 2639 	.dw	1+Sstm8_hd44780$lcd_gotoxy$165-Sstm8_hd44780$lcd_gotoxy$164
      0005D9 00                    2640 	.db	0
      0005DA 01                    2641 	.uleb128	1
      0005DB 01                    2642 	.db	1
      0005DC 04                    2643 	.db	4
      0005DD 02                    2644 	.uleb128	2
      0005DE 00                    2645 	.db	0
      0005DF 05                    2646 	.uleb128	5
      0005E0 02                    2647 	.db	2
      0005E1 00 00 83 B9           2648 	.dw	0,(Sstm8_hd44780$lcd_init_hw$167)
      0005E5 03                    2649 	.db	3
      0005E6 DA 00                 2650 	.sleb128	90
      0005E8 01                    2651 	.db	1
      0005E9 09                    2652 	.db	9
      0005EA 00 00                 2653 	.dw	Sstm8_hd44780$lcd_init_hw$169-Sstm8_hd44780$lcd_init_hw$167
      0005EC 03                    2654 	.db	3
      0005ED 13                    2655 	.sleb128	19
      0005EE 01                    2656 	.db	1
      0005EF 09                    2657 	.db	9
      0005F0 00 0D                 2658 	.dw	Sstm8_hd44780$lcd_init_hw$175-Sstm8_hd44780$lcd_init_hw$169
      0005F2 03                    2659 	.db	3
      0005F3 01                    2660 	.sleb128	1
      0005F4 01                    2661 	.db	1
      0005F5 09                    2662 	.db	9
      0005F6 00 0D                 2663 	.dw	Sstm8_hd44780$lcd_init_hw$181-Sstm8_hd44780$lcd_init_hw$175
      0005F8 03                    2664 	.db	3
      0005F9 01                    2665 	.sleb128	1
      0005FA 01                    2666 	.db	1
      0005FB 09                    2667 	.db	9
      0005FC 00 0D                 2668 	.dw	Sstm8_hd44780$lcd_init_hw$187-Sstm8_hd44780$lcd_init_hw$181
      0005FE 03                    2669 	.db	3
      0005FF 03                    2670 	.sleb128	3
      000600 01                    2671 	.db	1
      000601 09                    2672 	.db	9
      000602 00 03                 2673 	.dw	Sstm8_hd44780$lcd_init_hw$188-Sstm8_hd44780$lcd_init_hw$187
      000604 03                    2674 	.db	3
      000605 01                    2675 	.sleb128	1
      000606 01                    2676 	.db	1
      000607 09                    2677 	.db	9
      000608 00 01                 2678 	.dw	1+Sstm8_hd44780$lcd_init_hw$189-Sstm8_hd44780$lcd_init_hw$188
      00060A 00                    2679 	.db	0
      00060B 01                    2680 	.uleb128	1
      00060C 01                    2681 	.db	1
      00060D 04                    2682 	.db	4
      00060E 02                    2683 	.uleb128	2
      00060F 00                    2684 	.db	0
      000610 05                    2685 	.uleb128	5
      000611 02                    2686 	.db	2
      000612 00 00 83 E4           2687 	.dw	0,(Sstm8_hd44780$lcd_bus_outputs$191)
      000616 03                    2688 	.db	3
      000617 F6 00                 2689 	.sleb128	118
      000619 01                    2690 	.db	1
      00061A 09                    2691 	.db	9
      00061B 00 00                 2692 	.dw	Sstm8_hd44780$lcd_bus_outputs$193-Sstm8_hd44780$lcd_bus_outputs$191
      00061D 03                    2693 	.db	3
      00061E 04                    2694 	.sleb128	4
      00061F 01                    2695 	.db	1
      000620 09                    2696 	.db	9
      000621 00 0D                 2697 	.dw	Sstm8_hd44780$lcd_bus_outputs$199-Sstm8_hd44780$lcd_bus_outputs$193
      000623 03                    2698 	.db	3
      000624 01                    2699 	.sleb128	1
      000625 01                    2700 	.db	1
      000626 09                    2701 	.db	9
      000627 00 0D                 2702 	.dw	Sstm8_hd44780$lcd_bus_outputs$205-Sstm8_hd44780$lcd_bus_outputs$199
      000629 03                    2703 	.db	3
      00062A 01                    2704 	.sleb128	1
      00062B 01                    2705 	.db	1
      00062C 09                    2706 	.db	9
      00062D 00 0D                 2707 	.dw	Sstm8_hd44780$lcd_bus_outputs$211-Sstm8_hd44780$lcd_bus_outputs$205
      00062F 03                    2708 	.db	3
      000630 01                    2709 	.sleb128	1
      000631 01                    2710 	.db	1
      000632 09                    2711 	.db	9
      000633 00 0D                 2712 	.dw	Sstm8_hd44780$lcd_bus_outputs$217-Sstm8_hd44780$lcd_bus_outputs$211
      000635 03                    2713 	.db	3
      000636 02                    2714 	.sleb128	2
      000637 01                    2715 	.db	1
      000638 09                    2716 	.db	9
      000639 00 01                 2717 	.dw	1+Sstm8_hd44780$lcd_bus_outputs$218-Sstm8_hd44780$lcd_bus_outputs$217
      00063B 00                    2718 	.db	0
      00063C 01                    2719 	.uleb128	1
      00063D 01                    2720 	.db	1
      00063E 04                    2721 	.db	4
      00063F 02                    2722 	.uleb128	2
      000640 00                    2723 	.db	0
      000641 05                    2724 	.uleb128	5
      000642 02                    2725 	.db	2
      000643 00 00 84 19           2726 	.dw	0,(Sstm8_hd44780$lcd_bus_inputs$220)
      000647 03                    2727 	.db	3
      000648 82 01                 2728 	.sleb128	130
      00064A 01                    2729 	.db	1
      00064B 09                    2730 	.db	9
      00064C 00 00                 2731 	.dw	Sstm8_hd44780$lcd_bus_inputs$222-Sstm8_hd44780$lcd_bus_inputs$220
      00064E 03                    2732 	.db	3
      00064F 08                    2733 	.sleb128	8
      000650 01                    2734 	.db	1
      000651 09                    2735 	.db	9
      000652 00 0D                 2736 	.dw	Sstm8_hd44780$lcd_bus_inputs$228-Sstm8_hd44780$lcd_bus_inputs$222
      000654 03                    2737 	.db	3
      000655 01                    2738 	.sleb128	1
      000656 01                    2739 	.db	1
      000657 09                    2740 	.db	9
      000658 00 0D                 2741 	.dw	Sstm8_hd44780$lcd_bus_inputs$234-Sstm8_hd44780$lcd_bus_inputs$228
      00065A 03                    2742 	.db	3
      00065B 01                    2743 	.sleb128	1
      00065C 01                    2744 	.db	1
      00065D 09                    2745 	.db	9
      00065E 00 0D                 2746 	.dw	Sstm8_hd44780$lcd_bus_inputs$240-Sstm8_hd44780$lcd_bus_inputs$234
      000660 03                    2747 	.db	3
      000661 01                    2748 	.sleb128	1
      000662 01                    2749 	.db	1
      000663 09                    2750 	.db	9
      000664 00 0D                 2751 	.dw	Sstm8_hd44780$lcd_bus_inputs$246-Sstm8_hd44780$lcd_bus_inputs$240
      000666 03                    2752 	.db	3
      000667 02                    2753 	.sleb128	2
      000668 01                    2754 	.db	1
      000669 09                    2755 	.db	9
      00066A 00 01                 2756 	.dw	1+Sstm8_hd44780$lcd_bus_inputs$247-Sstm8_hd44780$lcd_bus_inputs$246
      00066C 00                    2757 	.db	0
      00066D 01                    2758 	.uleb128	1
      00066E 01                    2759 	.db	1
      00066F 04                    2760 	.db	4
      000670 02                    2761 	.uleb128	2
      000671 00                    2762 	.db	0
      000672 05                    2763 	.uleb128	5
      000673 02                    2764 	.db	2
      000674 00 00 84 4E           2765 	.dw	0,(Sstm8_hd44780$lcd_deinit_hw$249)
      000678 03                    2766 	.db	3
      000679 92 01                 2767 	.sleb128	146
      00067B 01                    2768 	.db	1
      00067C 09                    2769 	.db	9
      00067D 00 00                 2770 	.dw	Sstm8_hd44780$lcd_deinit_hw$251-Sstm8_hd44780$lcd_deinit_hw$249
      00067F 03                    2771 	.db	3
      000680 01                    2772 	.sleb128	1
      000681 01                    2773 	.db	1
      000682 09                    2774 	.db	9
      000683 00 0D                 2775 	.dw	Sstm8_hd44780$lcd_deinit_hw$257-Sstm8_hd44780$lcd_deinit_hw$251
      000685 03                    2776 	.db	3
      000686 01                    2777 	.sleb128	1
      000687 01                    2778 	.db	1
      000688 09                    2779 	.db	9
      000689 00 0D                 2780 	.dw	Sstm8_hd44780$lcd_deinit_hw$263-Sstm8_hd44780$lcd_deinit_hw$257
      00068B 03                    2781 	.db	3
      00068C 01                    2782 	.sleb128	1
      00068D 01                    2783 	.db	1
      00068E 09                    2784 	.db	9
      00068F 00 0D                 2785 	.dw	Sstm8_hd44780$lcd_deinit_hw$269-Sstm8_hd44780$lcd_deinit_hw$263
      000691 03                    2786 	.db	3
      000692 01                    2787 	.sleb128	1
      000693 01                    2788 	.db	1
      000694 09                    2789 	.db	9
      000695 00 0D                 2790 	.dw	Sstm8_hd44780$lcd_deinit_hw$275-Sstm8_hd44780$lcd_deinit_hw$269
      000697 03                    2791 	.db	3
      000698 01                    2792 	.sleb128	1
      000699 01                    2793 	.db	1
      00069A 09                    2794 	.db	9
      00069B 00 0D                 2795 	.dw	Sstm8_hd44780$lcd_deinit_hw$281-Sstm8_hd44780$lcd_deinit_hw$275
      00069D 03                    2796 	.db	3
      00069E 01                    2797 	.sleb128	1
      00069F 01                    2798 	.db	1
      0006A0 09                    2799 	.db	9
      0006A1 00 0D                 2800 	.dw	Sstm8_hd44780$lcd_deinit_hw$287-Sstm8_hd44780$lcd_deinit_hw$281
      0006A3 03                    2801 	.db	3
      0006A4 01                    2802 	.sleb128	1
      0006A5 01                    2803 	.db	1
      0006A6 09                    2804 	.db	9
      0006A7 00 0D                 2805 	.dw	Sstm8_hd44780$lcd_deinit_hw$293-Sstm8_hd44780$lcd_deinit_hw$287
      0006A9 03                    2806 	.db	3
      0006AA 01                    2807 	.sleb128	1
      0006AB 01                    2808 	.db	1
      0006AC 09                    2809 	.db	9
      0006AD 00 01                 2810 	.dw	1+Sstm8_hd44780$lcd_deinit_hw$294-Sstm8_hd44780$lcd_deinit_hw$293
      0006AF 00                    2811 	.db	0
      0006B0 01                    2812 	.uleb128	1
      0006B1 01                    2813 	.db	1
      0006B2 04                    2814 	.db	4
      0006B3 02                    2815 	.uleb128	2
      0006B4 00                    2816 	.db	0
      0006B5 05                    2817 	.uleb128	5
      0006B6 02                    2818 	.db	2
      0006B7 00 00 84 AA           2819 	.dw	0,(Sstm8_hd44780$lcd_bus_set$296)
      0006BB 03                    2820 	.db	3
      0006BC 9D 01                 2821 	.sleb128	157
      0006BE 01                    2822 	.db	1
      0006BF 09                    2823 	.db	9
      0006C0 00 00                 2824 	.dw	Sstm8_hd44780$lcd_bus_set$298-Sstm8_hd44780$lcd_bus_set$296
      0006C2 03                    2825 	.db	3
      0006C3 01                    2826 	.sleb128	1
      0006C4 01                    2827 	.db	1
      0006C5 09                    2828 	.db	9
      0006C6 00 21                 2829 	.dw	Sstm8_hd44780$lcd_bus_set$311-Sstm8_hd44780$lcd_bus_set$298
      0006C8 03                    2830 	.db	3
      0006C9 01                    2831 	.sleb128	1
      0006CA 01                    2832 	.db	1
      0006CB 09                    2833 	.db	9
      0006CC 00 22                 2834 	.dw	Sstm8_hd44780$lcd_bus_set$324-Sstm8_hd44780$lcd_bus_set$311
      0006CE 03                    2835 	.db	3
      0006CF 01                    2836 	.sleb128	1
      0006D0 01                    2837 	.db	1
      0006D1 09                    2838 	.db	9
      0006D2 00 22                 2839 	.dw	Sstm8_hd44780$lcd_bus_set$337-Sstm8_hd44780$lcd_bus_set$324
      0006D4 03                    2840 	.db	3
      0006D5 01                    2841 	.sleb128	1
      0006D6 01                    2842 	.db	1
      0006D7 09                    2843 	.db	9
      0006D8 00 22                 2844 	.dw	Sstm8_hd44780$lcd_bus_set$350-Sstm8_hd44780$lcd_bus_set$337
      0006DA 03                    2845 	.db	3
      0006DB 01                    2846 	.sleb128	1
      0006DC 01                    2847 	.db	1
      0006DD 09                    2848 	.db	9
      0006DE 00 01                 2849 	.dw	1+Sstm8_hd44780$lcd_bus_set$351-Sstm8_hd44780$lcd_bus_set$350
      0006E0 00                    2850 	.db	0
      0006E1 01                    2851 	.uleb128	1
      0006E2 01                    2852 	.db	1
      0006E3 04                    2853 	.db	4
      0006E4 02                    2854 	.uleb128	2
      0006E5 00                    2855 	.db	0
      0006E6 05                    2856 	.uleb128	5
      0006E7 02                    2857 	.db	2
      0006E8 00 00 85 32           2858 	.dw	0,(Sstm8_hd44780$lcd_bus_read$353)
      0006EC 03                    2859 	.db	3
      0006ED A5 01                 2860 	.sleb128	165
      0006EF 01                    2861 	.db	1
      0006F0 09                    2862 	.db	9
      0006F1 00 01                 2863 	.dw	Sstm8_hd44780$lcd_bus_read$356-Sstm8_hd44780$lcd_bus_read$353
      0006F3 03                    2864 	.db	3
      0006F4 01                    2865 	.sleb128	1
      0006F5 01                    2866 	.db	1
      0006F6 09                    2867 	.db	9
      0006F7 00 02                 2868 	.dw	Sstm8_hd44780$lcd_bus_read$357-Sstm8_hd44780$lcd_bus_read$356
      0006F9 03                    2869 	.db	3
      0006FA 01                    2870 	.sleb128	1
      0006FB 01                    2871 	.db	1
      0006FC 09                    2872 	.db	9
      0006FD 00 16                 2873 	.dw	Sstm8_hd44780$lcd_bus_read$364-Sstm8_hd44780$lcd_bus_read$357
      0006FF 03                    2874 	.db	3
      000700 01                    2875 	.sleb128	1
      000701 01                    2876 	.db	1
      000702 09                    2877 	.db	9
      000703 00 17                 2878 	.dw	Sstm8_hd44780$lcd_bus_read$371-Sstm8_hd44780$lcd_bus_read$364
      000705 03                    2879 	.db	3
      000706 01                    2880 	.sleb128	1
      000707 01                    2881 	.db	1
      000708 09                    2882 	.db	9
      000709 00 17                 2883 	.dw	Sstm8_hd44780$lcd_bus_read$378-Sstm8_hd44780$lcd_bus_read$371
      00070B 03                    2884 	.db	3
      00070C 01                    2885 	.sleb128	1
      00070D 01                    2886 	.db	1
      00070E 09                    2887 	.db	9
      00070F 00 17                 2888 	.dw	Sstm8_hd44780$lcd_bus_read$385-Sstm8_hd44780$lcd_bus_read$378
      000711 03                    2889 	.db	3
      000712 01                    2890 	.sleb128	1
      000713 01                    2891 	.db	1
      000714 09                    2892 	.db	9
      000715 00 02                 2893 	.dw	Sstm8_hd44780$lcd_bus_read$386-Sstm8_hd44780$lcd_bus_read$385
      000717 03                    2894 	.db	3
      000718 01                    2895 	.sleb128	1
      000719 01                    2896 	.db	1
      00071A 09                    2897 	.db	9
      00071B 00 03                 2898 	.dw	1+Sstm8_hd44780$lcd_bus_read$388-Sstm8_hd44780$lcd_bus_read$386
      00071D 00                    2899 	.db	0
      00071E 01                    2900 	.uleb128	1
      00071F 01                    2901 	.db	1
      000720 04                    2902 	.db	4
      000721 02                    2903 	.uleb128	2
      000722 00                    2904 	.db	0
      000723 05                    2905 	.uleb128	5
      000724 02                    2906 	.db	2
      000725 00 00 85 95           2907 	.dw	0,(Sstm8_hd44780$lcd_e_tick$390)
      000729 03                    2908 	.db	3
      00072A AF 01                 2909 	.sleb128	175
      00072C 01                    2910 	.db	1
      00072D 09                    2911 	.db	9
      00072E 00 00                 2912 	.dw	Sstm8_hd44780$lcd_e_tick$392-Sstm8_hd44780$lcd_e_tick$390
      000730 03                    2913 	.db	3
      000731 01                    2914 	.sleb128	1
      000732 01                    2915 	.db	1
      000733 04                    2916 	.db	4
      000734 01                    2917 	.uleb128	1
      000735 09                    2918 	.db	9
      000736 00 10                 2919 	.dw	Sstm8_hd44780$lcd_e_tick$400-Sstm8_hd44780$lcd_e_tick$392
      000738 03                    2920 	.db	3
      000739 E9 7E                 2921 	.sleb128	-151
      00073B 01                    2922 	.db	1
      00073C 04                    2923 	.db	4
      00073D 02                    2924 	.uleb128	2
      00073E 09                    2925 	.db	9
      00073F 00 08                 2926 	.dw	Sstm8_hd44780$lcd_e_tick$404-Sstm8_hd44780$lcd_e_tick$400
      000741 03                    2927 	.db	3
      000742 99 01                 2928 	.sleb128	153
      000744 01                    2929 	.db	1
      000745 04                    2930 	.db	4
      000746 01                    2931 	.uleb128	1
      000747 09                    2932 	.db	9
      000748 00 10                 2933 	.dw	Sstm8_hd44780$lcd_e_tick$412-Sstm8_hd44780$lcd_e_tick$404
      00074A 03                    2934 	.db	3
      00074B E7 7E                 2935 	.sleb128	-153
      00074D 01                    2936 	.db	1
      00074E 04                    2937 	.db	4
      00074F 02                    2938 	.uleb128	2
      000750 09                    2939 	.db	9
      000751 00 08                 2940 	.dw	Sstm8_hd44780$lcd_e_tick$416-Sstm8_hd44780$lcd_e_tick$412
      000753 03                    2941 	.db	3
      000754 9A 01                 2942 	.sleb128	154
      000756 01                    2943 	.db	1
      000757 09                    2944 	.db	9
      000758 00 00                 2945 	.dw	Sstm8_hd44780$lcd_e_tick$417-Sstm8_hd44780$lcd_e_tick$416
      00075A 03                    2946 	.db	3
      00075B 01                    2947 	.sleb128	1
      00075C 01                    2948 	.db	1
      00075D 09                    2949 	.db	9
      00075E 00 01                 2950 	.dw	1+Sstm8_hd44780$lcd_e_tick$418-Sstm8_hd44780$lcd_e_tick$417
      000760 00                    2951 	.db	0
      000761 01                    2952 	.uleb128	1
      000762 01                    2953 	.db	1
      000763 04                    2954 	.db	4
      000764 02                    2955 	.uleb128	2
      000765 00                    2956 	.db	0
      000766 05                    2957 	.uleb128	5
      000767 02                    2958 	.db	2
      000768 00 00 85 C6           2959 	.dw	0,(Sstm8_hd44780$lcd_command$420)
      00076C 03                    2960 	.db	3
      00076D B7 01                 2961 	.sleb128	183
      00076F 01                    2962 	.db	1
      000770 09                    2963 	.db	9
      000771 00 00                 2964 	.dw	Sstm8_hd44780$lcd_command$422-Sstm8_hd44780$lcd_command$420
      000773 03                    2965 	.db	3
      000774 01                    2966 	.sleb128	1
      000775 01                    2967 	.db	1
      000776 04                    2968 	.db	4
      000777 01                    2969 	.uleb128	1
      000778 09                    2970 	.db	9
      000779 00 10                 2971 	.dw	Sstm8_hd44780$lcd_command$430-Sstm8_hd44780$lcd_command$422
      00077B 03                    2972 	.db	3
      00077C E1 7E                 2973 	.sleb128	-159
      00077E 01                    2974 	.db	1
      00077F 04                    2975 	.db	4
      000780 02                    2976 	.uleb128	2
      000781 09                    2977 	.db	9
      000782 00 08                 2978 	.dw	Sstm8_hd44780$lcd_command$434-Sstm8_hd44780$lcd_command$430
      000784 03                    2979 	.db	3
      000785 A1 01                 2980 	.sleb128	161
      000787 01                    2981 	.db	1
      000788 09                    2982 	.db	9
      000789 00 0C                 2983 	.dw	Sstm8_hd44780$lcd_command$437-Sstm8_hd44780$lcd_command$434
      00078B 03                    2984 	.db	3
      00078C 01                    2985 	.sleb128	1
      00078D 01                    2986 	.db	1
      00078E 09                    2987 	.db	9
      00078F 00 03                 2988 	.dw	Sstm8_hd44780$lcd_command$438-Sstm8_hd44780$lcd_command$437
      000791 03                    2989 	.db	3
      000792 01                    2990 	.sleb128	1
      000793 01                    2991 	.db	1
      000794 09                    2992 	.db	9
      000795 00 09                 2993 	.dw	Sstm8_hd44780$lcd_command$441-Sstm8_hd44780$lcd_command$438
      000797 03                    2994 	.db	3
      000798 01                    2995 	.sleb128	1
      000799 01                    2996 	.db	1
      00079A 09                    2997 	.db	9
      00079B 00 03                 2998 	.dw	Sstm8_hd44780$lcd_command$442-Sstm8_hd44780$lcd_command$441
      00079D 03                    2999 	.db	3
      00079E 01                    3000 	.sleb128	1
      00079F 01                    3001 	.db	1
      0007A0 09                    3002 	.db	9
      0007A1 00 03                 3003 	.dw	Sstm8_hd44780$lcd_command$443-Sstm8_hd44780$lcd_command$442
      0007A3 03                    3004 	.db	3
      0007A4 01                    3005 	.sleb128	1
      0007A5 01                    3006 	.db	1
      0007A6 09                    3007 	.db	9
      0007A7 00 01                 3008 	.dw	1+Sstm8_hd44780$lcd_command$444-Sstm8_hd44780$lcd_command$443
      0007A9 00                    3009 	.db	0
      0007AA 01                    3010 	.uleb128	1
      0007AB 01                    3011 	.db	1
      0007AC 04                    3012 	.db	4
      0007AD 02                    3013 	.uleb128	2
      0007AE 00                    3014 	.db	0
      0007AF 05                    3015 	.uleb128	5
      0007B0 02                    3016 	.db	2
      0007B1 00 00 85 FD           3017 	.dw	0,(Sstm8_hd44780$lcd_data$446)
      0007B5 03                    3018 	.db	3
      0007B6 C2 01                 3019 	.sleb128	194
      0007B8 01                    3020 	.db	1
      0007B9 09                    3021 	.db	9
      0007BA 00 00                 3022 	.dw	Sstm8_hd44780$lcd_data$448-Sstm8_hd44780$lcd_data$446
      0007BC 03                    3023 	.db	3
      0007BD 01                    3024 	.sleb128	1
      0007BE 01                    3025 	.db	1
      0007BF 04                    3026 	.db	4
      0007C0 01                    3027 	.uleb128	1
      0007C1 09                    3028 	.db	9
      0007C2 00 10                 3029 	.dw	Sstm8_hd44780$lcd_data$456-Sstm8_hd44780$lcd_data$448
      0007C4 03                    3030 	.db	3
      0007C5 D6 7E                 3031 	.sleb128	-170
      0007C7 01                    3032 	.db	1
      0007C8 04                    3033 	.db	4
      0007C9 02                    3034 	.uleb128	2
      0007CA 09                    3035 	.db	9
      0007CB 00 08                 3036 	.dw	Sstm8_hd44780$lcd_data$460-Sstm8_hd44780$lcd_data$456
      0007CD 03                    3037 	.db	3
      0007CE AC 01                 3038 	.sleb128	172
      0007D0 01                    3039 	.db	1
      0007D1 09                    3040 	.db	9
      0007D2 00 0C                 3041 	.dw	Sstm8_hd44780$lcd_data$463-Sstm8_hd44780$lcd_data$460
      0007D4 03                    3042 	.db	3
      0007D5 01                    3043 	.sleb128	1
      0007D6 01                    3044 	.db	1
      0007D7 09                    3045 	.db	9
      0007D8 00 03                 3046 	.dw	Sstm8_hd44780$lcd_data$464-Sstm8_hd44780$lcd_data$463
      0007DA 03                    3047 	.db	3
      0007DB 01                    3048 	.sleb128	1
      0007DC 01                    3049 	.db	1
      0007DD 09                    3050 	.db	9
      0007DE 00 09                 3051 	.dw	Sstm8_hd44780$lcd_data$467-Sstm8_hd44780$lcd_data$464
      0007E0 03                    3052 	.db	3
      0007E1 01                    3053 	.sleb128	1
      0007E2 01                    3054 	.db	1
      0007E3 09                    3055 	.db	9
      0007E4 00 03                 3056 	.dw	Sstm8_hd44780$lcd_data$468-Sstm8_hd44780$lcd_data$467
      0007E6 03                    3057 	.db	3
      0007E7 01                    3058 	.sleb128	1
      0007E8 01                    3059 	.db	1
      0007E9 09                    3060 	.db	9
      0007EA 00 03                 3061 	.dw	Sstm8_hd44780$lcd_data$469-Sstm8_hd44780$lcd_data$468
      0007EC 03                    3062 	.db	3
      0007ED 01                    3063 	.sleb128	1
      0007EE 01                    3064 	.db	1
      0007EF 09                    3065 	.db	9
      0007F0 00 01                 3066 	.dw	1+Sstm8_hd44780$lcd_data$470-Sstm8_hd44780$lcd_data$469
      0007F2 00                    3067 	.db	0
      0007F3 01                    3068 	.uleb128	1
      0007F4 01                    3069 	.db	1
      0007F5 04                    3070 	.db	4
      0007F6 02                    3071 	.uleb128	2
      0007F7 00                    3072 	.db	0
      0007F8 05                    3073 	.uleb128	5
      0007F9 02                    3074 	.db	2
      0007FA 00 00 86 34           3075 	.dw	0,(Sstm8_hd44780$lcd_read$472)
      0007FE 03                    3076 	.db	3
      0007FF CD 01                 3077 	.sleb128	205
      000801 01                    3078 	.db	1
      000802 09                    3079 	.db	9
      000803 00 01                 3080 	.dw	Sstm8_hd44780$lcd_read$475-Sstm8_hd44780$lcd_read$472
      000805 03                    3081 	.db	3
      000806 02                    3082 	.sleb128	2
      000807 01                    3083 	.db	1
      000808 09                    3084 	.db	9
      000809 00 0B                 3085 	.dw	Sstm8_hd44780$lcd_read$480-Sstm8_hd44780$lcd_read$475
      00080B 03                    3086 	.db	3
      00080C 01                    3087 	.sleb128	1
      00080D 01                    3088 	.db	1
      00080E 09                    3089 	.db	9
      00080F 00 03                 3090 	.dw	Sstm8_hd44780$lcd_read$481-Sstm8_hd44780$lcd_read$480
      000811 03                    3091 	.db	3
      000812 01                    3092 	.sleb128	1
      000813 01                    3093 	.db	1
      000814 04                    3094 	.db	4
      000815 01                    3095 	.uleb128	1
      000816 09                    3096 	.db	9
      000817 00 10                 3097 	.dw	Sstm8_hd44780$lcd_read$489-Sstm8_hd44780$lcd_read$481
      000819 03                    3098 	.db	3
      00081A C8 7E                 3099 	.sleb128	-184
      00081C 01                    3100 	.db	1
      00081D 04                    3101 	.db	4
      00081E 02                    3102 	.uleb128	2
      00081F 09                    3103 	.db	9
      000820 00 08                 3104 	.dw	Sstm8_hd44780$lcd_read$493-Sstm8_hd44780$lcd_read$489
      000822 03                    3105 	.db	3
      000823 BA 01                 3106 	.sleb128	186
      000825 01                    3107 	.db	1
      000826 04                    3108 	.db	4
      000827 01                    3109 	.uleb128	1
      000828 09                    3110 	.db	9
      000829 00 10                 3111 	.dw	Sstm8_hd44780$lcd_read$501-Sstm8_hd44780$lcd_read$493
      00082B 03                    3112 	.db	3
      00082C C6 7E                 3113 	.sleb128	-186
      00082E 01                    3114 	.db	1
      00082F 04                    3115 	.db	4
      000830 02                    3116 	.uleb128	2
      000831 09                    3117 	.db	9
      000832 00 08                 3118 	.dw	Sstm8_hd44780$lcd_read$505-Sstm8_hd44780$lcd_read$501
      000834 03                    3119 	.db	3
      000835 BC 01                 3120 	.sleb128	188
      000837 01                    3121 	.db	1
      000838 09                    3122 	.db	9
      000839 00 08                 3123 	.dw	Sstm8_hd44780$lcd_read$506-Sstm8_hd44780$lcd_read$505
      00083B 03                    3124 	.db	3
      00083C 01                    3125 	.sleb128	1
      00083D 01                    3126 	.db	1
      00083E 04                    3127 	.db	4
      00083F 01                    3128 	.uleb128	1
      000840 09                    3129 	.db	9
      000841 00 10                 3130 	.dw	Sstm8_hd44780$lcd_read$514-Sstm8_hd44780$lcd_read$506
      000843 03                    3131 	.db	3
      000844 C3 7E                 3132 	.sleb128	-189
      000846 01                    3133 	.db	1
      000847 04                    3134 	.db	4
      000848 02                    3135 	.uleb128	2
      000849 09                    3136 	.db	9
      00084A 00 08                 3137 	.dw	Sstm8_hd44780$lcd_read$518-Sstm8_hd44780$lcd_read$514
      00084C 03                    3138 	.db	3
      00084D BF 01                 3139 	.sleb128	191
      00084F 01                    3140 	.db	1
      000850 04                    3141 	.db	4
      000851 01                    3142 	.uleb128	1
      000852 09                    3143 	.db	9
      000853 00 10                 3144 	.dw	Sstm8_hd44780$lcd_read$526-Sstm8_hd44780$lcd_read$518
      000855 03                    3145 	.db	3
      000856 C1 7E                 3146 	.sleb128	-191
      000858 01                    3147 	.db	1
      000859 04                    3148 	.db	4
      00085A 02                    3149 	.uleb128	2
      00085B 09                    3150 	.db	9
      00085C 00 08                 3151 	.dw	Sstm8_hd44780$lcd_read$530-Sstm8_hd44780$lcd_read$526
      00085E 03                    3152 	.db	3
      00085F C1 01                 3153 	.sleb128	193
      000861 01                    3154 	.db	1
      000862 09                    3155 	.db	9
      000863 00 07                 3156 	.dw	Sstm8_hd44780$lcd_read$531-Sstm8_hd44780$lcd_read$530
      000865 03                    3157 	.db	3
      000866 01                    3158 	.sleb128	1
      000867 01                    3159 	.db	1
      000868 04                    3160 	.db	4
      000869 01                    3161 	.uleb128	1
      00086A 09                    3162 	.db	9
      00086B 00 10                 3163 	.dw	Sstm8_hd44780$lcd_read$539-Sstm8_hd44780$lcd_read$531
      00086D 03                    3164 	.db	3
      00086E BE 7E                 3165 	.sleb128	-194
      000870 01                    3166 	.db	1
      000871 04                    3167 	.db	4
      000872 02                    3168 	.uleb128	2
      000873 09                    3169 	.db	9
      000874 00 08                 3170 	.dw	Sstm8_hd44780$lcd_read$543-Sstm8_hd44780$lcd_read$539
      000876 03                    3171 	.db	3
      000877 C4 01                 3172 	.sleb128	196
      000879 01                    3173 	.db	1
      00087A 09                    3174 	.db	9
      00087B 00 0B                 3175 	.dw	Sstm8_hd44780$lcd_read$548-Sstm8_hd44780$lcd_read$543
      00087D 03                    3176 	.db	3
      00087E 01                    3177 	.sleb128	1
      00087F 01                    3178 	.db	1
      000880 09                    3179 	.db	9
      000881 00 03                 3180 	.dw	Sstm8_hd44780$lcd_read$549-Sstm8_hd44780$lcd_read$548
      000883 03                    3181 	.db	3
      000884 01                    3182 	.sleb128	1
      000885 01                    3183 	.db	1
      000886 09                    3184 	.db	9
      000887 00 02                 3185 	.dw	Sstm8_hd44780$lcd_read$550-Sstm8_hd44780$lcd_read$549
      000889 03                    3186 	.db	3
      00088A 01                    3187 	.sleb128	1
      00088B 01                    3188 	.db	1
      00088C 09                    3189 	.db	9
      00088D 00 03                 3190 	.dw	1+Sstm8_hd44780$lcd_read$552-Sstm8_hd44780$lcd_read$550
      00088F 00                    3191 	.db	0
      000890 01                    3192 	.uleb128	1
      000891 01                    3193 	.db	1
      000892 04                    3194 	.db	4
      000893 02                    3195 	.uleb128	2
      000894 00                    3196 	.db	0
      000895 05                    3197 	.uleb128	5
      000896 02                    3198 	.db	2
      000897 00 00 86 DD           3199 	.dw	0,(Sstm8_hd44780$lcd_bus_sleep$554)
      00089B 03                    3200 	.db	3
      00089C E4 01                 3201 	.sleb128	228
      00089E 01                    3202 	.db	1
      00089F 09                    3203 	.db	9
      0008A0 00 00                 3204 	.dw	Sstm8_hd44780$lcd_bus_sleep$556-Sstm8_hd44780$lcd_bus_sleep$554
      0008A2 03                    3205 	.db	3
      0008A3 01                    3206 	.sleb128	1
      0008A4 01                    3207 	.db	1
      0008A5 09                    3208 	.db	9
      0008A6 00 0B                 3209 	.dw	Sstm8_hd44780$lcd_bus_sleep$561-Sstm8_hd44780$lcd_bus_sleep$556
      0008A8 03                    3210 	.db	3
      0008A9 01                    3211 	.sleb128	1
      0008AA 01                    3212 	.db	1
      0008AB 09                    3213 	.db	9
      0008AC 00 0B                 3214 	.dw	Sstm8_hd44780$lcd_bus_sleep$566-Sstm8_hd44780$lcd_bus_sleep$561
      0008AE 03                    3215 	.db	3
      0008AF 01                    3216 	.sleb128	1
      0008B0 01                    3217 	.db	1
      0008B1 09                    3218 	.db	9
      0008B2 00 03                 3219 	.dw	Sstm8_hd44780$lcd_bus_sleep$567-Sstm8_hd44780$lcd_bus_sleep$566
      0008B4 03                    3220 	.db	3
      0008B5 01                    3221 	.sleb128	1
      0008B6 01                    3222 	.db	1
      0008B7 09                    3223 	.db	9
      0008B8 00 01                 3224 	.dw	1+Sstm8_hd44780$lcd_bus_sleep$568-Sstm8_hd44780$lcd_bus_sleep$567
      0008BA 00                    3225 	.db	0
      0008BB 01                    3226 	.uleb128	1
      0008BC 01                    3227 	.db	1
      0008BD 04                    3228 	.db	4
      0008BE 02                    3229 	.uleb128	2
      0008BF 00                    3230 	.db	0
      0008C0 05                    3231 	.uleb128	5
      0008C1 02                    3232 	.db	2
      0008C2 00 00 86 F7           3233 	.dw	0,(Sstm8_hd44780$lcd_bus_wakeup$570)
      0008C6 03                    3234 	.db	3
      0008C7 EB 01                 3235 	.sleb128	235
      0008C9 01                    3236 	.db	1
      0008CA 09                    3237 	.db	9
      0008CB 00 00                 3238 	.dw	Sstm8_hd44780$lcd_bus_wakeup$572-Sstm8_hd44780$lcd_bus_wakeup$570
      0008CD 03                    3239 	.db	3
      0008CE 01                    3240 	.sleb128	1
      0008CF 01                    3241 	.db	1
      0008D0 09                    3242 	.db	9
      0008D1 00 0B                 3243 	.dw	Sstm8_hd44780$lcd_bus_wakeup$577-Sstm8_hd44780$lcd_bus_wakeup$572
      0008D3 03                    3244 	.db	3
      0008D4 01                    3245 	.sleb128	1
      0008D5 01                    3246 	.db	1
      0008D6 09                    3247 	.db	9
      0008D7 00 0B                 3248 	.dw	Sstm8_hd44780$lcd_bus_wakeup$582-Sstm8_hd44780$lcd_bus_wakeup$577
      0008D9 03                    3249 	.db	3
      0008DA 01                    3250 	.sleb128	1
      0008DB 01                    3251 	.db	1
      0008DC 09                    3252 	.db	9
      0008DD 00 0B                 3253 	.dw	Sstm8_hd44780$lcd_bus_wakeup$587-Sstm8_hd44780$lcd_bus_wakeup$582
      0008DF 03                    3254 	.db	3
      0008E0 01                    3255 	.sleb128	1
      0008E1 01                    3256 	.db	1
      0008E2 09                    3257 	.db	9
      0008E3 00 0B                 3258 	.dw	Sstm8_hd44780$lcd_bus_wakeup$592-Sstm8_hd44780$lcd_bus_wakeup$587
      0008E5 03                    3259 	.db	3
      0008E6 01                    3260 	.sleb128	1
      0008E7 01                    3261 	.db	1
      0008E8 09                    3262 	.db	9
      0008E9 00 0B                 3263 	.dw	Sstm8_hd44780$lcd_bus_wakeup$597-Sstm8_hd44780$lcd_bus_wakeup$592
      0008EB 03                    3264 	.db	3
      0008EC 01                    3265 	.sleb128	1
      0008ED 01                    3266 	.db	1
      0008EE 09                    3267 	.db	9
      0008EF 00 03                 3268 	.dw	Sstm8_hd44780$lcd_bus_wakeup$598-Sstm8_hd44780$lcd_bus_wakeup$597
      0008F1 03                    3269 	.db	3
      0008F2 01                    3270 	.sleb128	1
      0008F3 01                    3271 	.db	1
      0008F4 09                    3272 	.db	9
      0008F5 00 01                 3273 	.dw	1+Sstm8_hd44780$lcd_bus_wakeup$599-Sstm8_hd44780$lcd_bus_wakeup$598
      0008F7 00                    3274 	.db	0
      0008F8 01                    3275 	.uleb128	1
      0008F9 01                    3276 	.db	1
      0008FA 04                    3277 	.db	4
      0008FB 02                    3278 	.uleb128	2
      0008FC 00                    3279 	.db	0
      0008FD 05                    3280 	.uleb128	5
      0008FE 02                    3281 	.db	2
      0008FF 00 00 87 32           3282 	.dw	0,(Sstm8_hd44780$lcd_busy_wait$601)
      000903 03                    3283 	.db	3
      000904 F5 01                 3284 	.sleb128	245
      000906 01                    3285 	.db	1
      000907 09                    3286 	.db	9
      000908 00 00                 3287 	.dw	Sstm8_hd44780$lcd_busy_wait$603-Sstm8_hd44780$lcd_busy_wait$601
      00090A 03                    3288 	.db	3
      00090B 01                    3289 	.sleb128	1
      00090C 01                    3290 	.db	1
      00090D 09                    3291 	.db	9
      00090E 00 03                 3292 	.dw	Sstm8_hd44780$lcd_busy_wait$604-Sstm8_hd44780$lcd_busy_wait$603
      000910 03                    3293 	.db	3
      000911 01                    3294 	.sleb128	1
      000912 01                    3295 	.db	1
      000913 09                    3296 	.db	9
      000914 00 11                 3297 	.dw	Sstm8_hd44780$lcd_busy_wait$608-Sstm8_hd44780$lcd_busy_wait$604
      000916 03                    3298 	.db	3
      000917 01                    3299 	.sleb128	1
      000918 01                    3300 	.db	1
      000919 09                    3301 	.db	9
      00091A 00 04                 3302 	.dw	Sstm8_hd44780$lcd_busy_wait$610-Sstm8_hd44780$lcd_busy_wait$608
      00091C 03                    3303 	.db	3
      00091D 02                    3304 	.sleb128	2
      00091E 01                    3305 	.db	1
      00091F 09                    3306 	.db	9
      000920 00 0B                 3307 	.dw	Sstm8_hd44780$lcd_busy_wait$614-Sstm8_hd44780$lcd_busy_wait$610
      000922 03                    3308 	.db	3
      000923 01                    3309 	.sleb128	1
      000924 01                    3310 	.db	1
      000925 09                    3311 	.db	9
      000926 00 01                 3312 	.dw	Sstm8_hd44780$lcd_busy_wait$616-Sstm8_hd44780$lcd_busy_wait$614
      000928 03                    3313 	.db	3
      000929 01                    3314 	.sleb128	1
      00092A 01                    3315 	.db	1
      00092B 09                    3316 	.db	9
      00092C 00 01                 3317 	.dw	1+Sstm8_hd44780$lcd_busy_wait$617-Sstm8_hd44780$lcd_busy_wait$616
      00092E 00                    3318 	.db	0
      00092F 01                    3319 	.uleb128	1
      000930 01                    3320 	.db	1
      000931                       3321 Ldebug_line_end:
                                   3322 
                                   3323 	.area .debug_loc (NOLOAD)
      0004C0                       3324 Ldebug_loc_start:
      0004C0 00 00 87 40           3325 	.dw	0,(Sstm8_hd44780$lcd_busy_wait$606)
      0004C4 00 00 87 57           3326 	.dw	0,(Sstm8_hd44780$lcd_busy_wait$618)
      0004C8 00 02                 3327 	.dw	2
      0004CA 78                    3328 	.db	120
      0004CB 01                    3329 	.sleb128	1
      0004CC 00 00 87 3C           3330 	.dw	0,(Sstm8_hd44780$lcd_busy_wait$605)
      0004D0 00 00 87 40           3331 	.dw	0,(Sstm8_hd44780$lcd_busy_wait$606)
      0004D4 00 02                 3332 	.dw	2
      0004D6 78                    3333 	.db	120
      0004D7 03                    3334 	.sleb128	3
      0004D8 00 00 87 32           3335 	.dw	0,(Sstm8_hd44780$lcd_busy_wait$602)
      0004DC 00 00 87 3C           3336 	.dw	0,(Sstm8_hd44780$lcd_busy_wait$605)
      0004E0 00 02                 3337 	.dw	2
      0004E2 78                    3338 	.db	120
      0004E3 01                    3339 	.sleb128	1
      0004E4 00 00 00 00           3340 	.dw	0,0
      0004E8 00 00 00 00           3341 	.dw	0,0
      0004EC 00 00 87 2E           3342 	.dw	0,(Sstm8_hd44780$lcd_bus_wakeup$596)
      0004F0 00 00 87 32           3343 	.dw	0,(Sstm8_hd44780$lcd_bus_wakeup$600)
      0004F4 00 02                 3344 	.dw	2
      0004F6 78                    3345 	.db	120
      0004F7 01                    3346 	.sleb128	1
      0004F8 00 00 87 29           3347 	.dw	0,(Sstm8_hd44780$lcd_bus_wakeup$595)
      0004FC 00 00 87 2E           3348 	.dw	0,(Sstm8_hd44780$lcd_bus_wakeup$596)
      000500 00 02                 3349 	.dw	2
      000502 78                    3350 	.db	120
      000503 04                    3351 	.sleb128	4
      000504 00 00 87 27           3352 	.dw	0,(Sstm8_hd44780$lcd_bus_wakeup$594)
      000508 00 00 87 29           3353 	.dw	0,(Sstm8_hd44780$lcd_bus_wakeup$595)
      00050C 00 02                 3354 	.dw	2
      00050E 78                    3355 	.db	120
      00050F 03                    3356 	.sleb128	3
      000510 00 00 87 25           3357 	.dw	0,(Sstm8_hd44780$lcd_bus_wakeup$593)
      000514 00 00 87 27           3358 	.dw	0,(Sstm8_hd44780$lcd_bus_wakeup$594)
      000518 00 02                 3359 	.dw	2
      00051A 78                    3360 	.db	120
      00051B 02                    3361 	.sleb128	2
      00051C 00 00 87 23           3362 	.dw	0,(Sstm8_hd44780$lcd_bus_wakeup$591)
      000520 00 00 87 25           3363 	.dw	0,(Sstm8_hd44780$lcd_bus_wakeup$593)
      000524 00 02                 3364 	.dw	2
      000526 78                    3365 	.db	120
      000527 01                    3366 	.sleb128	1
      000528 00 00 87 1E           3367 	.dw	0,(Sstm8_hd44780$lcd_bus_wakeup$590)
      00052C 00 00 87 23           3368 	.dw	0,(Sstm8_hd44780$lcd_bus_wakeup$591)
      000530 00 02                 3369 	.dw	2
      000532 78                    3370 	.db	120
      000533 04                    3371 	.sleb128	4
      000534 00 00 87 1C           3372 	.dw	0,(Sstm8_hd44780$lcd_bus_wakeup$589)
      000538 00 00 87 1E           3373 	.dw	0,(Sstm8_hd44780$lcd_bus_wakeup$590)
      00053C 00 02                 3374 	.dw	2
      00053E 78                    3375 	.db	120
      00053F 03                    3376 	.sleb128	3
      000540 00 00 87 1A           3377 	.dw	0,(Sstm8_hd44780$lcd_bus_wakeup$588)
      000544 00 00 87 1C           3378 	.dw	0,(Sstm8_hd44780$lcd_bus_wakeup$589)
      000548 00 02                 3379 	.dw	2
      00054A 78                    3380 	.db	120
      00054B 02                    3381 	.sleb128	2
      00054C 00 00 87 18           3382 	.dw	0,(Sstm8_hd44780$lcd_bus_wakeup$586)
      000550 00 00 87 1A           3383 	.dw	0,(Sstm8_hd44780$lcd_bus_wakeup$588)
      000554 00 02                 3384 	.dw	2
      000556 78                    3385 	.db	120
      000557 01                    3386 	.sleb128	1
      000558 00 00 87 13           3387 	.dw	0,(Sstm8_hd44780$lcd_bus_wakeup$585)
      00055C 00 00 87 18           3388 	.dw	0,(Sstm8_hd44780$lcd_bus_wakeup$586)
      000560 00 02                 3389 	.dw	2
      000562 78                    3390 	.db	120
      000563 04                    3391 	.sleb128	4
      000564 00 00 87 11           3392 	.dw	0,(Sstm8_hd44780$lcd_bus_wakeup$584)
      000568 00 00 87 13           3393 	.dw	0,(Sstm8_hd44780$lcd_bus_wakeup$585)
      00056C 00 02                 3394 	.dw	2
      00056E 78                    3395 	.db	120
      00056F 03                    3396 	.sleb128	3
      000570 00 00 87 0F           3397 	.dw	0,(Sstm8_hd44780$lcd_bus_wakeup$583)
      000574 00 00 87 11           3398 	.dw	0,(Sstm8_hd44780$lcd_bus_wakeup$584)
      000578 00 02                 3399 	.dw	2
      00057A 78                    3400 	.db	120
      00057B 02                    3401 	.sleb128	2
      00057C 00 00 87 0D           3402 	.dw	0,(Sstm8_hd44780$lcd_bus_wakeup$581)
      000580 00 00 87 0F           3403 	.dw	0,(Sstm8_hd44780$lcd_bus_wakeup$583)
      000584 00 02                 3404 	.dw	2
      000586 78                    3405 	.db	120
      000587 01                    3406 	.sleb128	1
      000588 00 00 87 08           3407 	.dw	0,(Sstm8_hd44780$lcd_bus_wakeup$580)
      00058C 00 00 87 0D           3408 	.dw	0,(Sstm8_hd44780$lcd_bus_wakeup$581)
      000590 00 02                 3409 	.dw	2
      000592 78                    3410 	.db	120
      000593 04                    3411 	.sleb128	4
      000594 00 00 87 06           3412 	.dw	0,(Sstm8_hd44780$lcd_bus_wakeup$579)
      000598 00 00 87 08           3413 	.dw	0,(Sstm8_hd44780$lcd_bus_wakeup$580)
      00059C 00 02                 3414 	.dw	2
      00059E 78                    3415 	.db	120
      00059F 03                    3416 	.sleb128	3
      0005A0 00 00 87 04           3417 	.dw	0,(Sstm8_hd44780$lcd_bus_wakeup$578)
      0005A4 00 00 87 06           3418 	.dw	0,(Sstm8_hd44780$lcd_bus_wakeup$579)
      0005A8 00 02                 3419 	.dw	2
      0005AA 78                    3420 	.db	120
      0005AB 02                    3421 	.sleb128	2
      0005AC 00 00 87 02           3422 	.dw	0,(Sstm8_hd44780$lcd_bus_wakeup$576)
      0005B0 00 00 87 04           3423 	.dw	0,(Sstm8_hd44780$lcd_bus_wakeup$578)
      0005B4 00 02                 3424 	.dw	2
      0005B6 78                    3425 	.db	120
      0005B7 01                    3426 	.sleb128	1
      0005B8 00 00 86 FD           3427 	.dw	0,(Sstm8_hd44780$lcd_bus_wakeup$575)
      0005BC 00 00 87 02           3428 	.dw	0,(Sstm8_hd44780$lcd_bus_wakeup$576)
      0005C0 00 02                 3429 	.dw	2
      0005C2 78                    3430 	.db	120
      0005C3 04                    3431 	.sleb128	4
      0005C4 00 00 86 FB           3432 	.dw	0,(Sstm8_hd44780$lcd_bus_wakeup$574)
      0005C8 00 00 86 FD           3433 	.dw	0,(Sstm8_hd44780$lcd_bus_wakeup$575)
      0005CC 00 02                 3434 	.dw	2
      0005CE 78                    3435 	.db	120
      0005CF 03                    3436 	.sleb128	3
      0005D0 00 00 86 F9           3437 	.dw	0,(Sstm8_hd44780$lcd_bus_wakeup$573)
      0005D4 00 00 86 FB           3438 	.dw	0,(Sstm8_hd44780$lcd_bus_wakeup$574)
      0005D8 00 02                 3439 	.dw	2
      0005DA 78                    3440 	.db	120
      0005DB 02                    3441 	.sleb128	2
      0005DC 00 00 86 F7           3442 	.dw	0,(Sstm8_hd44780$lcd_bus_wakeup$571)
      0005E0 00 00 86 F9           3443 	.dw	0,(Sstm8_hd44780$lcd_bus_wakeup$573)
      0005E4 00 02                 3444 	.dw	2
      0005E6 78                    3445 	.db	120
      0005E7 01                    3446 	.sleb128	1
      0005E8 00 00 00 00           3447 	.dw	0,0
      0005EC 00 00 00 00           3448 	.dw	0,0
      0005F0 00 00 86 F3           3449 	.dw	0,(Sstm8_hd44780$lcd_bus_sleep$565)
      0005F4 00 00 86 F7           3450 	.dw	0,(Sstm8_hd44780$lcd_bus_sleep$569)
      0005F8 00 02                 3451 	.dw	2
      0005FA 78                    3452 	.db	120
      0005FB 01                    3453 	.sleb128	1
      0005FC 00 00 86 EE           3454 	.dw	0,(Sstm8_hd44780$lcd_bus_sleep$564)
      000600 00 00 86 F3           3455 	.dw	0,(Sstm8_hd44780$lcd_bus_sleep$565)
      000604 00 02                 3456 	.dw	2
      000606 78                    3457 	.db	120
      000607 04                    3458 	.sleb128	4
      000608 00 00 86 EC           3459 	.dw	0,(Sstm8_hd44780$lcd_bus_sleep$563)
      00060C 00 00 86 EE           3460 	.dw	0,(Sstm8_hd44780$lcd_bus_sleep$564)
      000610 00 02                 3461 	.dw	2
      000612 78                    3462 	.db	120
      000613 03                    3463 	.sleb128	3
      000614 00 00 86 EA           3464 	.dw	0,(Sstm8_hd44780$lcd_bus_sleep$562)
      000618 00 00 86 EC           3465 	.dw	0,(Sstm8_hd44780$lcd_bus_sleep$563)
      00061C 00 02                 3466 	.dw	2
      00061E 78                    3467 	.db	120
      00061F 02                    3468 	.sleb128	2
      000620 00 00 86 E8           3469 	.dw	0,(Sstm8_hd44780$lcd_bus_sleep$560)
      000624 00 00 86 EA           3470 	.dw	0,(Sstm8_hd44780$lcd_bus_sleep$562)
      000628 00 02                 3471 	.dw	2
      00062A 78                    3472 	.db	120
      00062B 01                    3473 	.sleb128	1
      00062C 00 00 86 E3           3474 	.dw	0,(Sstm8_hd44780$lcd_bus_sleep$559)
      000630 00 00 86 E8           3475 	.dw	0,(Sstm8_hd44780$lcd_bus_sleep$560)
      000634 00 02                 3476 	.dw	2
      000636 78                    3477 	.db	120
      000637 04                    3478 	.sleb128	4
      000638 00 00 86 E1           3479 	.dw	0,(Sstm8_hd44780$lcd_bus_sleep$558)
      00063C 00 00 86 E3           3480 	.dw	0,(Sstm8_hd44780$lcd_bus_sleep$559)
      000640 00 02                 3481 	.dw	2
      000642 78                    3482 	.db	120
      000643 03                    3483 	.sleb128	3
      000644 00 00 86 DF           3484 	.dw	0,(Sstm8_hd44780$lcd_bus_sleep$557)
      000648 00 00 86 E1           3485 	.dw	0,(Sstm8_hd44780$lcd_bus_sleep$558)
      00064C 00 02                 3486 	.dw	2
      00064E 78                    3487 	.db	120
      00064F 02                    3488 	.sleb128	2
      000650 00 00 86 DD           3489 	.dw	0,(Sstm8_hd44780$lcd_bus_sleep$555)
      000654 00 00 86 DF           3490 	.dw	0,(Sstm8_hd44780$lcd_bus_sleep$557)
      000658 00 02                 3491 	.dw	2
      00065A 78                    3492 	.db	120
      00065B 01                    3493 	.sleb128	1
      00065C 00 00 00 00           3494 	.dw	0,0
      000660 00 00 00 00           3495 	.dw	0,0
      000664 00 00 86 DC           3496 	.dw	0,(Sstm8_hd44780$lcd_read$551)
      000668 00 00 86 DD           3497 	.dw	0,(Sstm8_hd44780$lcd_read$553)
      00066C 00 02                 3498 	.dw	2
      00066E 78                    3499 	.db	120
      00066F 01                    3500 	.sleb128	1
      000670 00 00 86 D5           3501 	.dw	0,(Sstm8_hd44780$lcd_read$547)
      000674 00 00 86 DC           3502 	.dw	0,(Sstm8_hd44780$lcd_read$551)
      000678 00 02                 3503 	.dw	2
      00067A 78                    3504 	.db	120
      00067B 02                    3505 	.sleb128	2
      00067C 00 00 86 D0           3506 	.dw	0,(Sstm8_hd44780$lcd_read$546)
      000680 00 00 86 D5           3507 	.dw	0,(Sstm8_hd44780$lcd_read$547)
      000684 00 02                 3508 	.dw	2
      000686 78                    3509 	.db	120
      000687 05                    3510 	.sleb128	5
      000688 00 00 86 CE           3511 	.dw	0,(Sstm8_hd44780$lcd_read$545)
      00068C 00 00 86 D0           3512 	.dw	0,(Sstm8_hd44780$lcd_read$546)
      000690 00 02                 3513 	.dw	2
      000692 78                    3514 	.db	120
      000693 04                    3515 	.sleb128	4
      000694 00 00 86 CC           3516 	.dw	0,(Sstm8_hd44780$lcd_read$544)
      000698 00 00 86 CE           3517 	.dw	0,(Sstm8_hd44780$lcd_read$545)
      00069C 00 02                 3518 	.dw	2
      00069E 78                    3519 	.db	120
      00069F 03                    3520 	.sleb128	3
      0006A0 00 00 86 BD           3521 	.dw	0,(Sstm8_hd44780$lcd_read$535)
      0006A4 00 00 86 CC           3522 	.dw	0,(Sstm8_hd44780$lcd_read$544)
      0006A8 00 02                 3523 	.dw	2
      0006AA 78                    3524 	.db	120
      0006AB 02                    3525 	.sleb128	2
      0006AC 00 00 86 B8           3526 	.dw	0,(Sstm8_hd44780$lcd_read$534)
      0006B0 00 00 86 BD           3527 	.dw	0,(Sstm8_hd44780$lcd_read$535)
      0006B4 00 02                 3528 	.dw	2
      0006B6 78                    3529 	.db	120
      0006B7 05                    3530 	.sleb128	5
      0006B8 00 00 86 B6           3531 	.dw	0,(Sstm8_hd44780$lcd_read$533)
      0006BC 00 00 86 B8           3532 	.dw	0,(Sstm8_hd44780$lcd_read$534)
      0006C0 00 02                 3533 	.dw	2
      0006C2 78                    3534 	.db	120
      0006C3 04                    3535 	.sleb128	4
      0006C4 00 00 86 B4           3536 	.dw	0,(Sstm8_hd44780$lcd_read$532)
      0006C8 00 00 86 B6           3537 	.dw	0,(Sstm8_hd44780$lcd_read$533)
      0006CC 00 02                 3538 	.dw	2
      0006CE 78                    3539 	.db	120
      0006CF 03                    3540 	.sleb128	3
      0006D0 00 00 86 9E           3541 	.dw	0,(Sstm8_hd44780$lcd_read$522)
      0006D4 00 00 86 B4           3542 	.dw	0,(Sstm8_hd44780$lcd_read$532)
      0006D8 00 02                 3543 	.dw	2
      0006DA 78                    3544 	.db	120
      0006DB 02                    3545 	.sleb128	2
      0006DC 00 00 86 99           3546 	.dw	0,(Sstm8_hd44780$lcd_read$521)
      0006E0 00 00 86 9E           3547 	.dw	0,(Sstm8_hd44780$lcd_read$522)
      0006E4 00 02                 3548 	.dw	2
      0006E6 78                    3549 	.db	120
      0006E7 05                    3550 	.sleb128	5
      0006E8 00 00 86 97           3551 	.dw	0,(Sstm8_hd44780$lcd_read$520)
      0006EC 00 00 86 99           3552 	.dw	0,(Sstm8_hd44780$lcd_read$521)
      0006F0 00 02                 3553 	.dw	2
      0006F2 78                    3554 	.db	120
      0006F3 04                    3555 	.sleb128	4
      0006F4 00 00 86 95           3556 	.dw	0,(Sstm8_hd44780$lcd_read$519)
      0006F8 00 00 86 97           3557 	.dw	0,(Sstm8_hd44780$lcd_read$520)
      0006FC 00 02                 3558 	.dw	2
      0006FE 78                    3559 	.db	120
      0006FF 03                    3560 	.sleb128	3
      000700 00 00 86 86           3561 	.dw	0,(Sstm8_hd44780$lcd_read$510)
      000704 00 00 86 95           3562 	.dw	0,(Sstm8_hd44780$lcd_read$519)
      000708 00 02                 3563 	.dw	2
      00070A 78                    3564 	.db	120
      00070B 02                    3565 	.sleb128	2
      00070C 00 00 86 81           3566 	.dw	0,(Sstm8_hd44780$lcd_read$509)
      000710 00 00 86 86           3567 	.dw	0,(Sstm8_hd44780$lcd_read$510)
      000714 00 02                 3568 	.dw	2
      000716 78                    3569 	.db	120
      000717 05                    3570 	.sleb128	5
      000718 00 00 86 7F           3571 	.dw	0,(Sstm8_hd44780$lcd_read$508)
      00071C 00 00 86 81           3572 	.dw	0,(Sstm8_hd44780$lcd_read$509)
      000720 00 02                 3573 	.dw	2
      000722 78                    3574 	.db	120
      000723 04                    3575 	.sleb128	4
      000724 00 00 86 7D           3576 	.dw	0,(Sstm8_hd44780$lcd_read$507)
      000728 00 00 86 7F           3577 	.dw	0,(Sstm8_hd44780$lcd_read$508)
      00072C 00 02                 3578 	.dw	2
      00072E 78                    3579 	.db	120
      00072F 03                    3580 	.sleb128	3
      000730 00 00 86 66           3581 	.dw	0,(Sstm8_hd44780$lcd_read$497)
      000734 00 00 86 7D           3582 	.dw	0,(Sstm8_hd44780$lcd_read$507)
      000738 00 02                 3583 	.dw	2
      00073A 78                    3584 	.db	120
      00073B 02                    3585 	.sleb128	2
      00073C 00 00 86 61           3586 	.dw	0,(Sstm8_hd44780$lcd_read$496)
      000740 00 00 86 66           3587 	.dw	0,(Sstm8_hd44780$lcd_read$497)
      000744 00 02                 3588 	.dw	2
      000746 78                    3589 	.db	120
      000747 05                    3590 	.sleb128	5
      000748 00 00 86 5F           3591 	.dw	0,(Sstm8_hd44780$lcd_read$495)
      00074C 00 00 86 61           3592 	.dw	0,(Sstm8_hd44780$lcd_read$496)
      000750 00 02                 3593 	.dw	2
      000752 78                    3594 	.db	120
      000753 04                    3595 	.sleb128	4
      000754 00 00 86 5D           3596 	.dw	0,(Sstm8_hd44780$lcd_read$494)
      000758 00 00 86 5F           3597 	.dw	0,(Sstm8_hd44780$lcd_read$495)
      00075C 00 02                 3598 	.dw	2
      00075E 78                    3599 	.db	120
      00075F 03                    3600 	.sleb128	3
      000760 00 00 86 4E           3601 	.dw	0,(Sstm8_hd44780$lcd_read$485)
      000764 00 00 86 5D           3602 	.dw	0,(Sstm8_hd44780$lcd_read$494)
      000768 00 02                 3603 	.dw	2
      00076A 78                    3604 	.db	120
      00076B 02                    3605 	.sleb128	2
      00076C 00 00 86 49           3606 	.dw	0,(Sstm8_hd44780$lcd_read$484)
      000770 00 00 86 4E           3607 	.dw	0,(Sstm8_hd44780$lcd_read$485)
      000774 00 02                 3608 	.dw	2
      000776 78                    3609 	.db	120
      000777 05                    3610 	.sleb128	5
      000778 00 00 86 47           3611 	.dw	0,(Sstm8_hd44780$lcd_read$483)
      00077C 00 00 86 49           3612 	.dw	0,(Sstm8_hd44780$lcd_read$484)
      000780 00 02                 3613 	.dw	2
      000782 78                    3614 	.db	120
      000783 04                    3615 	.sleb128	4
      000784 00 00 86 45           3616 	.dw	0,(Sstm8_hd44780$lcd_read$482)
      000788 00 00 86 47           3617 	.dw	0,(Sstm8_hd44780$lcd_read$483)
      00078C 00 02                 3618 	.dw	2
      00078E 78                    3619 	.db	120
      00078F 03                    3620 	.sleb128	3
      000790 00 00 86 40           3621 	.dw	0,(Sstm8_hd44780$lcd_read$479)
      000794 00 00 86 45           3622 	.dw	0,(Sstm8_hd44780$lcd_read$482)
      000798 00 02                 3623 	.dw	2
      00079A 78                    3624 	.db	120
      00079B 02                    3625 	.sleb128	2
      00079C 00 00 86 3B           3626 	.dw	0,(Sstm8_hd44780$lcd_read$478)
      0007A0 00 00 86 40           3627 	.dw	0,(Sstm8_hd44780$lcd_read$479)
      0007A4 00 02                 3628 	.dw	2
      0007A6 78                    3629 	.db	120
      0007A7 05                    3630 	.sleb128	5
      0007A8 00 00 86 39           3631 	.dw	0,(Sstm8_hd44780$lcd_read$477)
      0007AC 00 00 86 3B           3632 	.dw	0,(Sstm8_hd44780$lcd_read$478)
      0007B0 00 02                 3633 	.dw	2
      0007B2 78                    3634 	.db	120
      0007B3 04                    3635 	.sleb128	4
      0007B4 00 00 86 37           3636 	.dw	0,(Sstm8_hd44780$lcd_read$476)
      0007B8 00 00 86 39           3637 	.dw	0,(Sstm8_hd44780$lcd_read$477)
      0007BC 00 02                 3638 	.dw	2
      0007BE 78                    3639 	.db	120
      0007BF 03                    3640 	.sleb128	3
      0007C0 00 00 86 35           3641 	.dw	0,(Sstm8_hd44780$lcd_read$474)
      0007C4 00 00 86 37           3642 	.dw	0,(Sstm8_hd44780$lcd_read$476)
      0007C8 00 02                 3643 	.dw	2
      0007CA 78                    3644 	.db	120
      0007CB 02                    3645 	.sleb128	2
      0007CC 00 00 86 34           3646 	.dw	0,(Sstm8_hd44780$lcd_read$473)
      0007D0 00 00 86 35           3647 	.dw	0,(Sstm8_hd44780$lcd_read$474)
      0007D4 00 02                 3648 	.dw	2
      0007D6 78                    3649 	.db	120
      0007D7 01                    3650 	.sleb128	1
      0007D8 00 00 00 00           3651 	.dw	0,0
      0007DC 00 00 00 00           3652 	.dw	0,0
      0007E0 00 00 86 2D           3653 	.dw	0,(Sstm8_hd44780$lcd_data$466)
      0007E4 00 00 86 34           3654 	.dw	0,(Sstm8_hd44780$lcd_data$471)
      0007E8 00 02                 3655 	.dw	2
      0007EA 78                    3656 	.db	120
      0007EB 01                    3657 	.sleb128	1
      0007EC 00 00 86 29           3658 	.dw	0,(Sstm8_hd44780$lcd_data$465)
      0007F0 00 00 86 2D           3659 	.dw	0,(Sstm8_hd44780$lcd_data$466)
      0007F4 00 02                 3660 	.dw	2
      0007F6 78                    3661 	.db	120
      0007F7 02                    3662 	.sleb128	2
      0007F8 00 00 86 21           3663 	.dw	0,(Sstm8_hd44780$lcd_data$462)
      0007FC 00 00 86 29           3664 	.dw	0,(Sstm8_hd44780$lcd_data$465)
      000800 00 02                 3665 	.dw	2
      000802 78                    3666 	.db	120
      000803 01                    3667 	.sleb128	1
      000804 00 00 86 1D           3668 	.dw	0,(Sstm8_hd44780$lcd_data$461)
      000808 00 00 86 21           3669 	.dw	0,(Sstm8_hd44780$lcd_data$462)
      00080C 00 02                 3670 	.dw	2
      00080E 78                    3671 	.db	120
      00080F 02                    3672 	.sleb128	2
      000810 00 00 86 08           3673 	.dw	0,(Sstm8_hd44780$lcd_data$452)
      000814 00 00 86 1D           3674 	.dw	0,(Sstm8_hd44780$lcd_data$461)
      000818 00 02                 3675 	.dw	2
      00081A 78                    3676 	.db	120
      00081B 01                    3677 	.sleb128	1
      00081C 00 00 86 03           3678 	.dw	0,(Sstm8_hd44780$lcd_data$451)
      000820 00 00 86 08           3679 	.dw	0,(Sstm8_hd44780$lcd_data$452)
      000824 00 02                 3680 	.dw	2
      000826 78                    3681 	.db	120
      000827 04                    3682 	.sleb128	4
      000828 00 00 86 01           3683 	.dw	0,(Sstm8_hd44780$lcd_data$450)
      00082C 00 00 86 03           3684 	.dw	0,(Sstm8_hd44780$lcd_data$451)
      000830 00 02                 3685 	.dw	2
      000832 78                    3686 	.db	120
      000833 03                    3687 	.sleb128	3
      000834 00 00 85 FF           3688 	.dw	0,(Sstm8_hd44780$lcd_data$449)
      000838 00 00 86 01           3689 	.dw	0,(Sstm8_hd44780$lcd_data$450)
      00083C 00 02                 3690 	.dw	2
      00083E 78                    3691 	.db	120
      00083F 02                    3692 	.sleb128	2
      000840 00 00 85 FD           3693 	.dw	0,(Sstm8_hd44780$lcd_data$447)
      000844 00 00 85 FF           3694 	.dw	0,(Sstm8_hd44780$lcd_data$449)
      000848 00 02                 3695 	.dw	2
      00084A 78                    3696 	.db	120
      00084B 01                    3697 	.sleb128	1
      00084C 00 00 00 00           3698 	.dw	0,0
      000850 00 00 00 00           3699 	.dw	0,0
      000854 00 00 85 F6           3700 	.dw	0,(Sstm8_hd44780$lcd_command$440)
      000858 00 00 85 FD           3701 	.dw	0,(Sstm8_hd44780$lcd_command$445)
      00085C 00 02                 3702 	.dw	2
      00085E 78                    3703 	.db	120
      00085F 01                    3704 	.sleb128	1
      000860 00 00 85 F2           3705 	.dw	0,(Sstm8_hd44780$lcd_command$439)
      000864 00 00 85 F6           3706 	.dw	0,(Sstm8_hd44780$lcd_command$440)
      000868 00 02                 3707 	.dw	2
      00086A 78                    3708 	.db	120
      00086B 02                    3709 	.sleb128	2
      00086C 00 00 85 EA           3710 	.dw	0,(Sstm8_hd44780$lcd_command$436)
      000870 00 00 85 F2           3711 	.dw	0,(Sstm8_hd44780$lcd_command$439)
      000874 00 02                 3712 	.dw	2
      000876 78                    3713 	.db	120
      000877 01                    3714 	.sleb128	1
      000878 00 00 85 E6           3715 	.dw	0,(Sstm8_hd44780$lcd_command$435)
      00087C 00 00 85 EA           3716 	.dw	0,(Sstm8_hd44780$lcd_command$436)
      000880 00 02                 3717 	.dw	2
      000882 78                    3718 	.db	120
      000883 02                    3719 	.sleb128	2
      000884 00 00 85 D1           3720 	.dw	0,(Sstm8_hd44780$lcd_command$426)
      000888 00 00 85 E6           3721 	.dw	0,(Sstm8_hd44780$lcd_command$435)
      00088C 00 02                 3722 	.dw	2
      00088E 78                    3723 	.db	120
      00088F 01                    3724 	.sleb128	1
      000890 00 00 85 CC           3725 	.dw	0,(Sstm8_hd44780$lcd_command$425)
      000894 00 00 85 D1           3726 	.dw	0,(Sstm8_hd44780$lcd_command$426)
      000898 00 02                 3727 	.dw	2
      00089A 78                    3728 	.db	120
      00089B 04                    3729 	.sleb128	4
      00089C 00 00 85 CA           3730 	.dw	0,(Sstm8_hd44780$lcd_command$424)
      0008A0 00 00 85 CC           3731 	.dw	0,(Sstm8_hd44780$lcd_command$425)
      0008A4 00 02                 3732 	.dw	2
      0008A6 78                    3733 	.db	120
      0008A7 03                    3734 	.sleb128	3
      0008A8 00 00 85 C8           3735 	.dw	0,(Sstm8_hd44780$lcd_command$423)
      0008AC 00 00 85 CA           3736 	.dw	0,(Sstm8_hd44780$lcd_command$424)
      0008B0 00 02                 3737 	.dw	2
      0008B2 78                    3738 	.db	120
      0008B3 02                    3739 	.sleb128	2
      0008B4 00 00 85 C6           3740 	.dw	0,(Sstm8_hd44780$lcd_command$421)
      0008B8 00 00 85 C8           3741 	.dw	0,(Sstm8_hd44780$lcd_command$423)
      0008BC 00 02                 3742 	.dw	2
      0008BE 78                    3743 	.db	120
      0008BF 01                    3744 	.sleb128	1
      0008C0 00 00 00 00           3745 	.dw	0,0
      0008C4 00 00 00 00           3746 	.dw	0,0
      0008C8 00 00 85 B8           3747 	.dw	0,(Sstm8_hd44780$lcd_e_tick$408)
      0008CC 00 00 85 C6           3748 	.dw	0,(Sstm8_hd44780$lcd_e_tick$419)
      0008D0 00 02                 3749 	.dw	2
      0008D2 78                    3750 	.db	120
      0008D3 01                    3751 	.sleb128	1
      0008D4 00 00 85 B3           3752 	.dw	0,(Sstm8_hd44780$lcd_e_tick$407)
      0008D8 00 00 85 B8           3753 	.dw	0,(Sstm8_hd44780$lcd_e_tick$408)
      0008DC 00 02                 3754 	.dw	2
      0008DE 78                    3755 	.db	120
      0008DF 04                    3756 	.sleb128	4
      0008E0 00 00 85 B1           3757 	.dw	0,(Sstm8_hd44780$lcd_e_tick$406)
      0008E4 00 00 85 B3           3758 	.dw	0,(Sstm8_hd44780$lcd_e_tick$407)
      0008E8 00 02                 3759 	.dw	2
      0008EA 78                    3760 	.db	120
      0008EB 03                    3761 	.sleb128	3
      0008EC 00 00 85 AF           3762 	.dw	0,(Sstm8_hd44780$lcd_e_tick$405)
      0008F0 00 00 85 B1           3763 	.dw	0,(Sstm8_hd44780$lcd_e_tick$406)
      0008F4 00 02                 3764 	.dw	2
      0008F6 78                    3765 	.db	120
      0008F7 02                    3766 	.sleb128	2
      0008F8 00 00 85 A0           3767 	.dw	0,(Sstm8_hd44780$lcd_e_tick$396)
      0008FC 00 00 85 AF           3768 	.dw	0,(Sstm8_hd44780$lcd_e_tick$405)
      000900 00 02                 3769 	.dw	2
      000902 78                    3770 	.db	120
      000903 01                    3771 	.sleb128	1
      000904 00 00 85 9B           3772 	.dw	0,(Sstm8_hd44780$lcd_e_tick$395)
      000908 00 00 85 A0           3773 	.dw	0,(Sstm8_hd44780$lcd_e_tick$396)
      00090C 00 02                 3774 	.dw	2
      00090E 78                    3775 	.db	120
      00090F 04                    3776 	.sleb128	4
      000910 00 00 85 99           3777 	.dw	0,(Sstm8_hd44780$lcd_e_tick$394)
      000914 00 00 85 9B           3778 	.dw	0,(Sstm8_hd44780$lcd_e_tick$395)
      000918 00 02                 3779 	.dw	2
      00091A 78                    3780 	.db	120
      00091B 03                    3781 	.sleb128	3
      00091C 00 00 85 97           3782 	.dw	0,(Sstm8_hd44780$lcd_e_tick$393)
      000920 00 00 85 99           3783 	.dw	0,(Sstm8_hd44780$lcd_e_tick$394)
      000924 00 02                 3784 	.dw	2
      000926 78                    3785 	.db	120
      000927 02                    3786 	.sleb128	2
      000928 00 00 85 95           3787 	.dw	0,(Sstm8_hd44780$lcd_e_tick$391)
      00092C 00 00 85 97           3788 	.dw	0,(Sstm8_hd44780$lcd_e_tick$393)
      000930 00 02                 3789 	.dw	2
      000932 78                    3790 	.db	120
      000933 01                    3791 	.sleb128	1
      000934 00 00 00 00           3792 	.dw	0,0
      000938 00 00 00 00           3793 	.dw	0,0
      00093C 00 00 85 94           3794 	.dw	0,(Sstm8_hd44780$lcd_bus_read$387)
      000940 00 00 85 95           3795 	.dw	0,(Sstm8_hd44780$lcd_bus_read$389)
      000944 00 02                 3796 	.dw	2
      000946 78                    3797 	.db	120
      000947 01                    3798 	.sleb128	1
      000948 00 00 85 84           3799 	.dw	0,(Sstm8_hd44780$lcd_bus_read$382)
      00094C 00 00 85 94           3800 	.dw	0,(Sstm8_hd44780$lcd_bus_read$387)
      000950 00 02                 3801 	.dw	2
      000952 78                    3802 	.db	120
      000953 02                    3803 	.sleb128	2
      000954 00 00 85 7F           3804 	.dw	0,(Sstm8_hd44780$lcd_bus_read$381)
      000958 00 00 85 84           3805 	.dw	0,(Sstm8_hd44780$lcd_bus_read$382)
      00095C 00 02                 3806 	.dw	2
      00095E 78                    3807 	.db	120
      00095F 05                    3808 	.sleb128	5
      000960 00 00 85 7D           3809 	.dw	0,(Sstm8_hd44780$lcd_bus_read$380)
      000964 00 00 85 7F           3810 	.dw	0,(Sstm8_hd44780$lcd_bus_read$381)
      000968 00 02                 3811 	.dw	2
      00096A 78                    3812 	.db	120
      00096B 04                    3813 	.sleb128	4
      00096C 00 00 85 7B           3814 	.dw	0,(Sstm8_hd44780$lcd_bus_read$379)
      000970 00 00 85 7D           3815 	.dw	0,(Sstm8_hd44780$lcd_bus_read$380)
      000974 00 02                 3816 	.dw	2
      000976 78                    3817 	.db	120
      000977 03                    3818 	.sleb128	3
      000978 00 00 85 6D           3819 	.dw	0,(Sstm8_hd44780$lcd_bus_read$375)
      00097C 00 00 85 7B           3820 	.dw	0,(Sstm8_hd44780$lcd_bus_read$379)
      000980 00 02                 3821 	.dw	2
      000982 78                    3822 	.db	120
      000983 02                    3823 	.sleb128	2
      000984 00 00 85 68           3824 	.dw	0,(Sstm8_hd44780$lcd_bus_read$374)
      000988 00 00 85 6D           3825 	.dw	0,(Sstm8_hd44780$lcd_bus_read$375)
      00098C 00 02                 3826 	.dw	2
      00098E 78                    3827 	.db	120
      00098F 05                    3828 	.sleb128	5
      000990 00 00 85 66           3829 	.dw	0,(Sstm8_hd44780$lcd_bus_read$373)
      000994 00 00 85 68           3830 	.dw	0,(Sstm8_hd44780$lcd_bus_read$374)
      000998 00 02                 3831 	.dw	2
      00099A 78                    3832 	.db	120
      00099B 04                    3833 	.sleb128	4
      00099C 00 00 85 64           3834 	.dw	0,(Sstm8_hd44780$lcd_bus_read$372)
      0009A0 00 00 85 66           3835 	.dw	0,(Sstm8_hd44780$lcd_bus_read$373)
      0009A4 00 02                 3836 	.dw	2
      0009A6 78                    3837 	.db	120
      0009A7 03                    3838 	.sleb128	3
      0009A8 00 00 85 56           3839 	.dw	0,(Sstm8_hd44780$lcd_bus_read$368)
      0009AC 00 00 85 64           3840 	.dw	0,(Sstm8_hd44780$lcd_bus_read$372)
      0009B0 00 02                 3841 	.dw	2
      0009B2 78                    3842 	.db	120
      0009B3 02                    3843 	.sleb128	2
      0009B4 00 00 85 51           3844 	.dw	0,(Sstm8_hd44780$lcd_bus_read$367)
      0009B8 00 00 85 56           3845 	.dw	0,(Sstm8_hd44780$lcd_bus_read$368)
      0009BC 00 02                 3846 	.dw	2
      0009BE 78                    3847 	.db	120
      0009BF 05                    3848 	.sleb128	5
      0009C0 00 00 85 4F           3849 	.dw	0,(Sstm8_hd44780$lcd_bus_read$366)
      0009C4 00 00 85 51           3850 	.dw	0,(Sstm8_hd44780$lcd_bus_read$367)
      0009C8 00 02                 3851 	.dw	2
      0009CA 78                    3852 	.db	120
      0009CB 04                    3853 	.sleb128	4
      0009CC 00 00 85 4D           3854 	.dw	0,(Sstm8_hd44780$lcd_bus_read$365)
      0009D0 00 00 85 4F           3855 	.dw	0,(Sstm8_hd44780$lcd_bus_read$366)
      0009D4 00 02                 3856 	.dw	2
      0009D6 78                    3857 	.db	120
      0009D7 03                    3858 	.sleb128	3
      0009D8 00 00 85 40           3859 	.dw	0,(Sstm8_hd44780$lcd_bus_read$361)
      0009DC 00 00 85 4D           3860 	.dw	0,(Sstm8_hd44780$lcd_bus_read$365)
      0009E0 00 02                 3861 	.dw	2
      0009E2 78                    3862 	.db	120
      0009E3 02                    3863 	.sleb128	2
      0009E4 00 00 85 3B           3864 	.dw	0,(Sstm8_hd44780$lcd_bus_read$360)
      0009E8 00 00 85 40           3865 	.dw	0,(Sstm8_hd44780$lcd_bus_read$361)
      0009EC 00 02                 3866 	.dw	2
      0009EE 78                    3867 	.db	120
      0009EF 05                    3868 	.sleb128	5
      0009F0 00 00 85 39           3869 	.dw	0,(Sstm8_hd44780$lcd_bus_read$359)
      0009F4 00 00 85 3B           3870 	.dw	0,(Sstm8_hd44780$lcd_bus_read$360)
      0009F8 00 02                 3871 	.dw	2
      0009FA 78                    3872 	.db	120
      0009FB 04                    3873 	.sleb128	4
      0009FC 00 00 85 37           3874 	.dw	0,(Sstm8_hd44780$lcd_bus_read$358)
      000A00 00 00 85 39           3875 	.dw	0,(Sstm8_hd44780$lcd_bus_read$359)
      000A04 00 02                 3876 	.dw	2
      000A06 78                    3877 	.db	120
      000A07 03                    3878 	.sleb128	3
      000A08 00 00 85 33           3879 	.dw	0,(Sstm8_hd44780$lcd_bus_read$355)
      000A0C 00 00 85 37           3880 	.dw	0,(Sstm8_hd44780$lcd_bus_read$358)
      000A10 00 02                 3881 	.dw	2
      000A12 78                    3882 	.db	120
      000A13 02                    3883 	.sleb128	2
      000A14 00 00 85 32           3884 	.dw	0,(Sstm8_hd44780$lcd_bus_read$354)
      000A18 00 00 85 33           3885 	.dw	0,(Sstm8_hd44780$lcd_bus_read$355)
      000A1C 00 02                 3886 	.dw	2
      000A1E 78                    3887 	.db	120
      000A1F 01                    3888 	.sleb128	1
      000A20 00 00 00 00           3889 	.dw	0,0
      000A24 00 00 00 00           3890 	.dw	0,0
      000A28 00 00 85 31           3891 	.dw	0,(Sstm8_hd44780$lcd_bus_set$348)
      000A2C 00 00 85 32           3892 	.dw	0,(Sstm8_hd44780$lcd_bus_set$352)
      000A30 00 02                 3893 	.dw	2
      000A32 78                    3894 	.db	120
      000A33 01                    3895 	.sleb128	1
      000A34 00 00 85 2C           3896 	.dw	0,(Sstm8_hd44780$lcd_bus_set$347)
      000A38 00 00 85 31           3897 	.dw	0,(Sstm8_hd44780$lcd_bus_set$348)
      000A3C 00 02                 3898 	.dw	2
      000A3E 78                    3899 	.db	120
      000A3F 04                    3900 	.sleb128	4
      000A40 00 00 85 2A           3901 	.dw	0,(Sstm8_hd44780$lcd_bus_set$346)
      000A44 00 00 85 2C           3902 	.dw	0,(Sstm8_hd44780$lcd_bus_set$347)
      000A48 00 02                 3903 	.dw	2
      000A4A 78                    3904 	.db	120
      000A4B 03                    3905 	.sleb128	3
      000A4C 00 00 85 28           3906 	.dw	0,(Sstm8_hd44780$lcd_bus_set$345)
      000A50 00 00 85 2A           3907 	.dw	0,(Sstm8_hd44780$lcd_bus_set$346)
      000A54 00 02                 3908 	.dw	2
      000A56 78                    3909 	.db	120
      000A57 02                    3910 	.sleb128	2
      000A58 00 00 85 23           3911 	.dw	0,(Sstm8_hd44780$lcd_bus_set$342)
      000A5C 00 00 85 28           3912 	.dw	0,(Sstm8_hd44780$lcd_bus_set$345)
      000A60 00 02                 3913 	.dw	2
      000A62 78                    3914 	.db	120
      000A63 01                    3915 	.sleb128	1
      000A64 00 00 85 1E           3916 	.dw	0,(Sstm8_hd44780$lcd_bus_set$341)
      000A68 00 00 85 23           3917 	.dw	0,(Sstm8_hd44780$lcd_bus_set$342)
      000A6C 00 02                 3918 	.dw	2
      000A6E 78                    3919 	.db	120
      000A6F 04                    3920 	.sleb128	4
      000A70 00 00 85 1C           3921 	.dw	0,(Sstm8_hd44780$lcd_bus_set$340)
      000A74 00 00 85 1E           3922 	.dw	0,(Sstm8_hd44780$lcd_bus_set$341)
      000A78 00 02                 3923 	.dw	2
      000A7A 78                    3924 	.db	120
      000A7B 03                    3925 	.sleb128	3
      000A7C 00 00 85 1A           3926 	.dw	0,(Sstm8_hd44780$lcd_bus_set$339)
      000A80 00 00 85 1C           3927 	.dw	0,(Sstm8_hd44780$lcd_bus_set$340)
      000A84 00 02                 3928 	.dw	2
      000A86 78                    3929 	.db	120
      000A87 02                    3930 	.sleb128	2
      000A88 00 00 85 0F           3931 	.dw	0,(Sstm8_hd44780$lcd_bus_set$335)
      000A8C 00 00 85 1A           3932 	.dw	0,(Sstm8_hd44780$lcd_bus_set$339)
      000A90 00 02                 3933 	.dw	2
      000A92 78                    3934 	.db	120
      000A93 01                    3935 	.sleb128	1
      000A94 00 00 85 0A           3936 	.dw	0,(Sstm8_hd44780$lcd_bus_set$334)
      000A98 00 00 85 0F           3937 	.dw	0,(Sstm8_hd44780$lcd_bus_set$335)
      000A9C 00 02                 3938 	.dw	2
      000A9E 78                    3939 	.db	120
      000A9F 04                    3940 	.sleb128	4
      000AA0 00 00 85 08           3941 	.dw	0,(Sstm8_hd44780$lcd_bus_set$333)
      000AA4 00 00 85 0A           3942 	.dw	0,(Sstm8_hd44780$lcd_bus_set$334)
      000AA8 00 02                 3943 	.dw	2
      000AAA 78                    3944 	.db	120
      000AAB 03                    3945 	.sleb128	3
      000AAC 00 00 85 06           3946 	.dw	0,(Sstm8_hd44780$lcd_bus_set$332)
      000AB0 00 00 85 08           3947 	.dw	0,(Sstm8_hd44780$lcd_bus_set$333)
      000AB4 00 02                 3948 	.dw	2
      000AB6 78                    3949 	.db	120
      000AB7 02                    3950 	.sleb128	2
      000AB8 00 00 85 01           3951 	.dw	0,(Sstm8_hd44780$lcd_bus_set$329)
      000ABC 00 00 85 06           3952 	.dw	0,(Sstm8_hd44780$lcd_bus_set$332)
      000AC0 00 02                 3953 	.dw	2
      000AC2 78                    3954 	.db	120
      000AC3 01                    3955 	.sleb128	1
      000AC4 00 00 84 FC           3956 	.dw	0,(Sstm8_hd44780$lcd_bus_set$328)
      000AC8 00 00 85 01           3957 	.dw	0,(Sstm8_hd44780$lcd_bus_set$329)
      000ACC 00 02                 3958 	.dw	2
      000ACE 78                    3959 	.db	120
      000ACF 04                    3960 	.sleb128	4
      000AD0 00 00 84 FA           3961 	.dw	0,(Sstm8_hd44780$lcd_bus_set$327)
      000AD4 00 00 84 FC           3962 	.dw	0,(Sstm8_hd44780$lcd_bus_set$328)
      000AD8 00 02                 3963 	.dw	2
      000ADA 78                    3964 	.db	120
      000ADB 03                    3965 	.sleb128	3
      000ADC 00 00 84 F8           3966 	.dw	0,(Sstm8_hd44780$lcd_bus_set$326)
      000AE0 00 00 84 FA           3967 	.dw	0,(Sstm8_hd44780$lcd_bus_set$327)
      000AE4 00 02                 3968 	.dw	2
      000AE6 78                    3969 	.db	120
      000AE7 02                    3970 	.sleb128	2
      000AE8 00 00 84 ED           3971 	.dw	0,(Sstm8_hd44780$lcd_bus_set$322)
      000AEC 00 00 84 F8           3972 	.dw	0,(Sstm8_hd44780$lcd_bus_set$326)
      000AF0 00 02                 3973 	.dw	2
      000AF2 78                    3974 	.db	120
      000AF3 01                    3975 	.sleb128	1
      000AF4 00 00 84 E8           3976 	.dw	0,(Sstm8_hd44780$lcd_bus_set$321)
      000AF8 00 00 84 ED           3977 	.dw	0,(Sstm8_hd44780$lcd_bus_set$322)
      000AFC 00 02                 3978 	.dw	2
      000AFE 78                    3979 	.db	120
      000AFF 04                    3980 	.sleb128	4
      000B00 00 00 84 E6           3981 	.dw	0,(Sstm8_hd44780$lcd_bus_set$320)
      000B04 00 00 84 E8           3982 	.dw	0,(Sstm8_hd44780$lcd_bus_set$321)
      000B08 00 02                 3983 	.dw	2
      000B0A 78                    3984 	.db	120
      000B0B 03                    3985 	.sleb128	3
      000B0C 00 00 84 E4           3986 	.dw	0,(Sstm8_hd44780$lcd_bus_set$319)
      000B10 00 00 84 E6           3987 	.dw	0,(Sstm8_hd44780$lcd_bus_set$320)
      000B14 00 02                 3988 	.dw	2
      000B16 78                    3989 	.db	120
      000B17 02                    3990 	.sleb128	2
      000B18 00 00 84 DF           3991 	.dw	0,(Sstm8_hd44780$lcd_bus_set$316)
      000B1C 00 00 84 E4           3992 	.dw	0,(Sstm8_hd44780$lcd_bus_set$319)
      000B20 00 02                 3993 	.dw	2
      000B22 78                    3994 	.db	120
      000B23 01                    3995 	.sleb128	1
      000B24 00 00 84 DA           3996 	.dw	0,(Sstm8_hd44780$lcd_bus_set$315)
      000B28 00 00 84 DF           3997 	.dw	0,(Sstm8_hd44780$lcd_bus_set$316)
      000B2C 00 02                 3998 	.dw	2
      000B2E 78                    3999 	.db	120
      000B2F 04                    4000 	.sleb128	4
      000B30 00 00 84 D8           4001 	.dw	0,(Sstm8_hd44780$lcd_bus_set$314)
      000B34 00 00 84 DA           4002 	.dw	0,(Sstm8_hd44780$lcd_bus_set$315)
      000B38 00 02                 4003 	.dw	2
      000B3A 78                    4004 	.db	120
      000B3B 03                    4005 	.sleb128	3
      000B3C 00 00 84 D6           4006 	.dw	0,(Sstm8_hd44780$lcd_bus_set$313)
      000B40 00 00 84 D8           4007 	.dw	0,(Sstm8_hd44780$lcd_bus_set$314)
      000B44 00 02                 4008 	.dw	2
      000B46 78                    4009 	.db	120
      000B47 02                    4010 	.sleb128	2
      000B48 00 00 84 CB           4011 	.dw	0,(Sstm8_hd44780$lcd_bus_set$309)
      000B4C 00 00 84 D6           4012 	.dw	0,(Sstm8_hd44780$lcd_bus_set$313)
      000B50 00 02                 4013 	.dw	2
      000B52 78                    4014 	.db	120
      000B53 01                    4015 	.sleb128	1
      000B54 00 00 84 C6           4016 	.dw	0,(Sstm8_hd44780$lcd_bus_set$308)
      000B58 00 00 84 CB           4017 	.dw	0,(Sstm8_hd44780$lcd_bus_set$309)
      000B5C 00 02                 4018 	.dw	2
      000B5E 78                    4019 	.db	120
      000B5F 04                    4020 	.sleb128	4
      000B60 00 00 84 C4           4021 	.dw	0,(Sstm8_hd44780$lcd_bus_set$307)
      000B64 00 00 84 C6           4022 	.dw	0,(Sstm8_hd44780$lcd_bus_set$308)
      000B68 00 02                 4023 	.dw	2
      000B6A 78                    4024 	.db	120
      000B6B 03                    4025 	.sleb128	3
      000B6C 00 00 84 C2           4026 	.dw	0,(Sstm8_hd44780$lcd_bus_set$306)
      000B70 00 00 84 C4           4027 	.dw	0,(Sstm8_hd44780$lcd_bus_set$307)
      000B74 00 02                 4028 	.dw	2
      000B76 78                    4029 	.db	120
      000B77 02                    4030 	.sleb128	2
      000B78 00 00 84 BD           4031 	.dw	0,(Sstm8_hd44780$lcd_bus_set$303)
      000B7C 00 00 84 C2           4032 	.dw	0,(Sstm8_hd44780$lcd_bus_set$306)
      000B80 00 02                 4033 	.dw	2
      000B82 78                    4034 	.db	120
      000B83 01                    4035 	.sleb128	1
      000B84 00 00 84 B8           4036 	.dw	0,(Sstm8_hd44780$lcd_bus_set$302)
      000B88 00 00 84 BD           4037 	.dw	0,(Sstm8_hd44780$lcd_bus_set$303)
      000B8C 00 02                 4038 	.dw	2
      000B8E 78                    4039 	.db	120
      000B8F 04                    4040 	.sleb128	4
      000B90 00 00 84 B6           4041 	.dw	0,(Sstm8_hd44780$lcd_bus_set$301)
      000B94 00 00 84 B8           4042 	.dw	0,(Sstm8_hd44780$lcd_bus_set$302)
      000B98 00 02                 4043 	.dw	2
      000B9A 78                    4044 	.db	120
      000B9B 03                    4045 	.sleb128	3
      000B9C 00 00 84 B4           4046 	.dw	0,(Sstm8_hd44780$lcd_bus_set$300)
      000BA0 00 00 84 B6           4047 	.dw	0,(Sstm8_hd44780$lcd_bus_set$301)
      000BA4 00 02                 4048 	.dw	2
      000BA6 78                    4049 	.db	120
      000BA7 02                    4050 	.sleb128	2
      000BA8 00 00 84 AA           4051 	.dw	0,(Sstm8_hd44780$lcd_bus_set$297)
      000BAC 00 00 84 B4           4052 	.dw	0,(Sstm8_hd44780$lcd_bus_set$300)
      000BB0 00 02                 4053 	.dw	2
      000BB2 78                    4054 	.db	120
      000BB3 01                    4055 	.sleb128	1
      000BB4 00 00 00 00           4056 	.dw	0,0
      000BB8 00 00 00 00           4057 	.dw	0,0
      000BBC 00 00 84 A9           4058 	.dw	0,(Sstm8_hd44780$lcd_deinit_hw$292)
      000BC0 00 00 84 AA           4059 	.dw	0,(Sstm8_hd44780$lcd_deinit_hw$295)
      000BC4 00 02                 4060 	.dw	2
      000BC6 78                    4061 	.db	120
      000BC7 01                    4062 	.sleb128	1
      000BC8 00 00 84 A4           4063 	.dw	0,(Sstm8_hd44780$lcd_deinit_hw$291)
      000BCC 00 00 84 A9           4064 	.dw	0,(Sstm8_hd44780$lcd_deinit_hw$292)
      000BD0 00 02                 4065 	.dw	2
      000BD2 78                    4066 	.db	120
      000BD3 05                    4067 	.sleb128	5
      000BD4 00 00 84 A2           4068 	.dw	0,(Sstm8_hd44780$lcd_deinit_hw$290)
      000BD8 00 00 84 A4           4069 	.dw	0,(Sstm8_hd44780$lcd_deinit_hw$291)
      000BDC 00 02                 4070 	.dw	2
      000BDE 78                    4071 	.db	120
      000BDF 04                    4072 	.sleb128	4
      000BE0 00 00 84 A0           4073 	.dw	0,(Sstm8_hd44780$lcd_deinit_hw$289)
      000BE4 00 00 84 A2           4074 	.dw	0,(Sstm8_hd44780$lcd_deinit_hw$290)
      000BE8 00 02                 4075 	.dw	2
      000BEA 78                    4076 	.db	120
      000BEB 03                    4077 	.sleb128	3
      000BEC 00 00 84 9E           4078 	.dw	0,(Sstm8_hd44780$lcd_deinit_hw$288)
      000BF0 00 00 84 A0           4079 	.dw	0,(Sstm8_hd44780$lcd_deinit_hw$289)
      000BF4 00 02                 4080 	.dw	2
      000BF6 78                    4081 	.db	120
      000BF7 02                    4082 	.sleb128	2
      000BF8 00 00 84 9C           4083 	.dw	0,(Sstm8_hd44780$lcd_deinit_hw$286)
      000BFC 00 00 84 9E           4084 	.dw	0,(Sstm8_hd44780$lcd_deinit_hw$288)
      000C00 00 02                 4085 	.dw	2
      000C02 78                    4086 	.db	120
      000C03 01                    4087 	.sleb128	1
      000C04 00 00 84 97           4088 	.dw	0,(Sstm8_hd44780$lcd_deinit_hw$285)
      000C08 00 00 84 9C           4089 	.dw	0,(Sstm8_hd44780$lcd_deinit_hw$286)
      000C0C 00 02                 4090 	.dw	2
      000C0E 78                    4091 	.db	120
      000C0F 05                    4092 	.sleb128	5
      000C10 00 00 84 95           4093 	.dw	0,(Sstm8_hd44780$lcd_deinit_hw$284)
      000C14 00 00 84 97           4094 	.dw	0,(Sstm8_hd44780$lcd_deinit_hw$285)
      000C18 00 02                 4095 	.dw	2
      000C1A 78                    4096 	.db	120
      000C1B 04                    4097 	.sleb128	4
      000C1C 00 00 84 93           4098 	.dw	0,(Sstm8_hd44780$lcd_deinit_hw$283)
      000C20 00 00 84 95           4099 	.dw	0,(Sstm8_hd44780$lcd_deinit_hw$284)
      000C24 00 02                 4100 	.dw	2
      000C26 78                    4101 	.db	120
      000C27 03                    4102 	.sleb128	3
      000C28 00 00 84 91           4103 	.dw	0,(Sstm8_hd44780$lcd_deinit_hw$282)
      000C2C 00 00 84 93           4104 	.dw	0,(Sstm8_hd44780$lcd_deinit_hw$283)
      000C30 00 02                 4105 	.dw	2
      000C32 78                    4106 	.db	120
      000C33 02                    4107 	.sleb128	2
      000C34 00 00 84 8F           4108 	.dw	0,(Sstm8_hd44780$lcd_deinit_hw$280)
      000C38 00 00 84 91           4109 	.dw	0,(Sstm8_hd44780$lcd_deinit_hw$282)
      000C3C 00 02                 4110 	.dw	2
      000C3E 78                    4111 	.db	120
      000C3F 01                    4112 	.sleb128	1
      000C40 00 00 84 8A           4113 	.dw	0,(Sstm8_hd44780$lcd_deinit_hw$279)
      000C44 00 00 84 8F           4114 	.dw	0,(Sstm8_hd44780$lcd_deinit_hw$280)
      000C48 00 02                 4115 	.dw	2
      000C4A 78                    4116 	.db	120
      000C4B 05                    4117 	.sleb128	5
      000C4C 00 00 84 88           4118 	.dw	0,(Sstm8_hd44780$lcd_deinit_hw$278)
      000C50 00 00 84 8A           4119 	.dw	0,(Sstm8_hd44780$lcd_deinit_hw$279)
      000C54 00 02                 4120 	.dw	2
      000C56 78                    4121 	.db	120
      000C57 04                    4122 	.sleb128	4
      000C58 00 00 84 86           4123 	.dw	0,(Sstm8_hd44780$lcd_deinit_hw$277)
      000C5C 00 00 84 88           4124 	.dw	0,(Sstm8_hd44780$lcd_deinit_hw$278)
      000C60 00 02                 4125 	.dw	2
      000C62 78                    4126 	.db	120
      000C63 03                    4127 	.sleb128	3
      000C64 00 00 84 84           4128 	.dw	0,(Sstm8_hd44780$lcd_deinit_hw$276)
      000C68 00 00 84 86           4129 	.dw	0,(Sstm8_hd44780$lcd_deinit_hw$277)
      000C6C 00 02                 4130 	.dw	2
      000C6E 78                    4131 	.db	120
      000C6F 02                    4132 	.sleb128	2
      000C70 00 00 84 82           4133 	.dw	0,(Sstm8_hd44780$lcd_deinit_hw$274)
      000C74 00 00 84 84           4134 	.dw	0,(Sstm8_hd44780$lcd_deinit_hw$276)
      000C78 00 02                 4135 	.dw	2
      000C7A 78                    4136 	.db	120
      000C7B 01                    4137 	.sleb128	1
      000C7C 00 00 84 7D           4138 	.dw	0,(Sstm8_hd44780$lcd_deinit_hw$273)
      000C80 00 00 84 82           4139 	.dw	0,(Sstm8_hd44780$lcd_deinit_hw$274)
      000C84 00 02                 4140 	.dw	2
      000C86 78                    4141 	.db	120
      000C87 05                    4142 	.sleb128	5
      000C88 00 00 84 7B           4143 	.dw	0,(Sstm8_hd44780$lcd_deinit_hw$272)
      000C8C 00 00 84 7D           4144 	.dw	0,(Sstm8_hd44780$lcd_deinit_hw$273)
      000C90 00 02                 4145 	.dw	2
      000C92 78                    4146 	.db	120
      000C93 04                    4147 	.sleb128	4
      000C94 00 00 84 79           4148 	.dw	0,(Sstm8_hd44780$lcd_deinit_hw$271)
      000C98 00 00 84 7B           4149 	.dw	0,(Sstm8_hd44780$lcd_deinit_hw$272)
      000C9C 00 02                 4150 	.dw	2
      000C9E 78                    4151 	.db	120
      000C9F 03                    4152 	.sleb128	3
      000CA0 00 00 84 77           4153 	.dw	0,(Sstm8_hd44780$lcd_deinit_hw$270)
      000CA4 00 00 84 79           4154 	.dw	0,(Sstm8_hd44780$lcd_deinit_hw$271)
      000CA8 00 02                 4155 	.dw	2
      000CAA 78                    4156 	.db	120
      000CAB 02                    4157 	.sleb128	2
      000CAC 00 00 84 75           4158 	.dw	0,(Sstm8_hd44780$lcd_deinit_hw$268)
      000CB0 00 00 84 77           4159 	.dw	0,(Sstm8_hd44780$lcd_deinit_hw$270)
      000CB4 00 02                 4160 	.dw	2
      000CB6 78                    4161 	.db	120
      000CB7 01                    4162 	.sleb128	1
      000CB8 00 00 84 70           4163 	.dw	0,(Sstm8_hd44780$lcd_deinit_hw$267)
      000CBC 00 00 84 75           4164 	.dw	0,(Sstm8_hd44780$lcd_deinit_hw$268)
      000CC0 00 02                 4165 	.dw	2
      000CC2 78                    4166 	.db	120
      000CC3 05                    4167 	.sleb128	5
      000CC4 00 00 84 6E           4168 	.dw	0,(Sstm8_hd44780$lcd_deinit_hw$266)
      000CC8 00 00 84 70           4169 	.dw	0,(Sstm8_hd44780$lcd_deinit_hw$267)
      000CCC 00 02                 4170 	.dw	2
      000CCE 78                    4171 	.db	120
      000CCF 04                    4172 	.sleb128	4
      000CD0 00 00 84 6C           4173 	.dw	0,(Sstm8_hd44780$lcd_deinit_hw$265)
      000CD4 00 00 84 6E           4174 	.dw	0,(Sstm8_hd44780$lcd_deinit_hw$266)
      000CD8 00 02                 4175 	.dw	2
      000CDA 78                    4176 	.db	120
      000CDB 03                    4177 	.sleb128	3
      000CDC 00 00 84 6A           4178 	.dw	0,(Sstm8_hd44780$lcd_deinit_hw$264)
      000CE0 00 00 84 6C           4179 	.dw	0,(Sstm8_hd44780$lcd_deinit_hw$265)
      000CE4 00 02                 4180 	.dw	2
      000CE6 78                    4181 	.db	120
      000CE7 02                    4182 	.sleb128	2
      000CE8 00 00 84 68           4183 	.dw	0,(Sstm8_hd44780$lcd_deinit_hw$262)
      000CEC 00 00 84 6A           4184 	.dw	0,(Sstm8_hd44780$lcd_deinit_hw$264)
      000CF0 00 02                 4185 	.dw	2
      000CF2 78                    4186 	.db	120
      000CF3 01                    4187 	.sleb128	1
      000CF4 00 00 84 63           4188 	.dw	0,(Sstm8_hd44780$lcd_deinit_hw$261)
      000CF8 00 00 84 68           4189 	.dw	0,(Sstm8_hd44780$lcd_deinit_hw$262)
      000CFC 00 02                 4190 	.dw	2
      000CFE 78                    4191 	.db	120
      000CFF 05                    4192 	.sleb128	5
      000D00 00 00 84 61           4193 	.dw	0,(Sstm8_hd44780$lcd_deinit_hw$260)
      000D04 00 00 84 63           4194 	.dw	0,(Sstm8_hd44780$lcd_deinit_hw$261)
      000D08 00 02                 4195 	.dw	2
      000D0A 78                    4196 	.db	120
      000D0B 04                    4197 	.sleb128	4
      000D0C 00 00 84 5F           4198 	.dw	0,(Sstm8_hd44780$lcd_deinit_hw$259)
      000D10 00 00 84 61           4199 	.dw	0,(Sstm8_hd44780$lcd_deinit_hw$260)
      000D14 00 02                 4200 	.dw	2
      000D16 78                    4201 	.db	120
      000D17 03                    4202 	.sleb128	3
      000D18 00 00 84 5D           4203 	.dw	0,(Sstm8_hd44780$lcd_deinit_hw$258)
      000D1C 00 00 84 5F           4204 	.dw	0,(Sstm8_hd44780$lcd_deinit_hw$259)
      000D20 00 02                 4205 	.dw	2
      000D22 78                    4206 	.db	120
      000D23 02                    4207 	.sleb128	2
      000D24 00 00 84 5B           4208 	.dw	0,(Sstm8_hd44780$lcd_deinit_hw$256)
      000D28 00 00 84 5D           4209 	.dw	0,(Sstm8_hd44780$lcd_deinit_hw$258)
      000D2C 00 02                 4210 	.dw	2
      000D2E 78                    4211 	.db	120
      000D2F 01                    4212 	.sleb128	1
      000D30 00 00 84 56           4213 	.dw	0,(Sstm8_hd44780$lcd_deinit_hw$255)
      000D34 00 00 84 5B           4214 	.dw	0,(Sstm8_hd44780$lcd_deinit_hw$256)
      000D38 00 02                 4215 	.dw	2
      000D3A 78                    4216 	.db	120
      000D3B 05                    4217 	.sleb128	5
      000D3C 00 00 84 54           4218 	.dw	0,(Sstm8_hd44780$lcd_deinit_hw$254)
      000D40 00 00 84 56           4219 	.dw	0,(Sstm8_hd44780$lcd_deinit_hw$255)
      000D44 00 02                 4220 	.dw	2
      000D46 78                    4221 	.db	120
      000D47 04                    4222 	.sleb128	4
      000D48 00 00 84 52           4223 	.dw	0,(Sstm8_hd44780$lcd_deinit_hw$253)
      000D4C 00 00 84 54           4224 	.dw	0,(Sstm8_hd44780$lcd_deinit_hw$254)
      000D50 00 02                 4225 	.dw	2
      000D52 78                    4226 	.db	120
      000D53 03                    4227 	.sleb128	3
      000D54 00 00 84 50           4228 	.dw	0,(Sstm8_hd44780$lcd_deinit_hw$252)
      000D58 00 00 84 52           4229 	.dw	0,(Sstm8_hd44780$lcd_deinit_hw$253)
      000D5C 00 02                 4230 	.dw	2
      000D5E 78                    4231 	.db	120
      000D5F 02                    4232 	.sleb128	2
      000D60 00 00 84 4E           4233 	.dw	0,(Sstm8_hd44780$lcd_deinit_hw$250)
      000D64 00 00 84 50           4234 	.dw	0,(Sstm8_hd44780$lcd_deinit_hw$252)
      000D68 00 02                 4235 	.dw	2
      000D6A 78                    4236 	.db	120
      000D6B 01                    4237 	.sleb128	1
      000D6C 00 00 00 00           4238 	.dw	0,0
      000D70 00 00 00 00           4239 	.dw	0,0
      000D74 00 00 84 4D           4240 	.dw	0,(Sstm8_hd44780$lcd_bus_inputs$245)
      000D78 00 00 84 4E           4241 	.dw	0,(Sstm8_hd44780$lcd_bus_inputs$248)
      000D7C 00 02                 4242 	.dw	2
      000D7E 78                    4243 	.db	120
      000D7F 01                    4244 	.sleb128	1
      000D80 00 00 84 48           4245 	.dw	0,(Sstm8_hd44780$lcd_bus_inputs$244)
      000D84 00 00 84 4D           4246 	.dw	0,(Sstm8_hd44780$lcd_bus_inputs$245)
      000D88 00 02                 4247 	.dw	2
      000D8A 78                    4248 	.db	120
      000D8B 05                    4249 	.sleb128	5
      000D8C 00 00 84 46           4250 	.dw	0,(Sstm8_hd44780$lcd_bus_inputs$243)
      000D90 00 00 84 48           4251 	.dw	0,(Sstm8_hd44780$lcd_bus_inputs$244)
      000D94 00 02                 4252 	.dw	2
      000D96 78                    4253 	.db	120
      000D97 04                    4254 	.sleb128	4
      000D98 00 00 84 44           4255 	.dw	0,(Sstm8_hd44780$lcd_bus_inputs$242)
      000D9C 00 00 84 46           4256 	.dw	0,(Sstm8_hd44780$lcd_bus_inputs$243)
      000DA0 00 02                 4257 	.dw	2
      000DA2 78                    4258 	.db	120
      000DA3 03                    4259 	.sleb128	3
      000DA4 00 00 84 42           4260 	.dw	0,(Sstm8_hd44780$lcd_bus_inputs$241)
      000DA8 00 00 84 44           4261 	.dw	0,(Sstm8_hd44780$lcd_bus_inputs$242)
      000DAC 00 02                 4262 	.dw	2
      000DAE 78                    4263 	.db	120
      000DAF 02                    4264 	.sleb128	2
      000DB0 00 00 84 40           4265 	.dw	0,(Sstm8_hd44780$lcd_bus_inputs$239)
      000DB4 00 00 84 42           4266 	.dw	0,(Sstm8_hd44780$lcd_bus_inputs$241)
      000DB8 00 02                 4267 	.dw	2
      000DBA 78                    4268 	.db	120
      000DBB 01                    4269 	.sleb128	1
      000DBC 00 00 84 3B           4270 	.dw	0,(Sstm8_hd44780$lcd_bus_inputs$238)
      000DC0 00 00 84 40           4271 	.dw	0,(Sstm8_hd44780$lcd_bus_inputs$239)
      000DC4 00 02                 4272 	.dw	2
      000DC6 78                    4273 	.db	120
      000DC7 05                    4274 	.sleb128	5
      000DC8 00 00 84 39           4275 	.dw	0,(Sstm8_hd44780$lcd_bus_inputs$237)
      000DCC 00 00 84 3B           4276 	.dw	0,(Sstm8_hd44780$lcd_bus_inputs$238)
      000DD0 00 02                 4277 	.dw	2
      000DD2 78                    4278 	.db	120
      000DD3 04                    4279 	.sleb128	4
      000DD4 00 00 84 37           4280 	.dw	0,(Sstm8_hd44780$lcd_bus_inputs$236)
      000DD8 00 00 84 39           4281 	.dw	0,(Sstm8_hd44780$lcd_bus_inputs$237)
      000DDC 00 02                 4282 	.dw	2
      000DDE 78                    4283 	.db	120
      000DDF 03                    4284 	.sleb128	3
      000DE0 00 00 84 35           4285 	.dw	0,(Sstm8_hd44780$lcd_bus_inputs$235)
      000DE4 00 00 84 37           4286 	.dw	0,(Sstm8_hd44780$lcd_bus_inputs$236)
      000DE8 00 02                 4287 	.dw	2
      000DEA 78                    4288 	.db	120
      000DEB 02                    4289 	.sleb128	2
      000DEC 00 00 84 33           4290 	.dw	0,(Sstm8_hd44780$lcd_bus_inputs$233)
      000DF0 00 00 84 35           4291 	.dw	0,(Sstm8_hd44780$lcd_bus_inputs$235)
      000DF4 00 02                 4292 	.dw	2
      000DF6 78                    4293 	.db	120
      000DF7 01                    4294 	.sleb128	1
      000DF8 00 00 84 2E           4295 	.dw	0,(Sstm8_hd44780$lcd_bus_inputs$232)
      000DFC 00 00 84 33           4296 	.dw	0,(Sstm8_hd44780$lcd_bus_inputs$233)
      000E00 00 02                 4297 	.dw	2
      000E02 78                    4298 	.db	120
      000E03 05                    4299 	.sleb128	5
      000E04 00 00 84 2C           4300 	.dw	0,(Sstm8_hd44780$lcd_bus_inputs$231)
      000E08 00 00 84 2E           4301 	.dw	0,(Sstm8_hd44780$lcd_bus_inputs$232)
      000E0C 00 02                 4302 	.dw	2
      000E0E 78                    4303 	.db	120
      000E0F 04                    4304 	.sleb128	4
      000E10 00 00 84 2A           4305 	.dw	0,(Sstm8_hd44780$lcd_bus_inputs$230)
      000E14 00 00 84 2C           4306 	.dw	0,(Sstm8_hd44780$lcd_bus_inputs$231)
      000E18 00 02                 4307 	.dw	2
      000E1A 78                    4308 	.db	120
      000E1B 03                    4309 	.sleb128	3
      000E1C 00 00 84 28           4310 	.dw	0,(Sstm8_hd44780$lcd_bus_inputs$229)
      000E20 00 00 84 2A           4311 	.dw	0,(Sstm8_hd44780$lcd_bus_inputs$230)
      000E24 00 02                 4312 	.dw	2
      000E26 78                    4313 	.db	120
      000E27 02                    4314 	.sleb128	2
      000E28 00 00 84 26           4315 	.dw	0,(Sstm8_hd44780$lcd_bus_inputs$227)
      000E2C 00 00 84 28           4316 	.dw	0,(Sstm8_hd44780$lcd_bus_inputs$229)
      000E30 00 02                 4317 	.dw	2
      000E32 78                    4318 	.db	120
      000E33 01                    4319 	.sleb128	1
      000E34 00 00 84 21           4320 	.dw	0,(Sstm8_hd44780$lcd_bus_inputs$226)
      000E38 00 00 84 26           4321 	.dw	0,(Sstm8_hd44780$lcd_bus_inputs$227)
      000E3C 00 02                 4322 	.dw	2
      000E3E 78                    4323 	.db	120
      000E3F 05                    4324 	.sleb128	5
      000E40 00 00 84 1F           4325 	.dw	0,(Sstm8_hd44780$lcd_bus_inputs$225)
      000E44 00 00 84 21           4326 	.dw	0,(Sstm8_hd44780$lcd_bus_inputs$226)
      000E48 00 02                 4327 	.dw	2
      000E4A 78                    4328 	.db	120
      000E4B 04                    4329 	.sleb128	4
      000E4C 00 00 84 1D           4330 	.dw	0,(Sstm8_hd44780$lcd_bus_inputs$224)
      000E50 00 00 84 1F           4331 	.dw	0,(Sstm8_hd44780$lcd_bus_inputs$225)
      000E54 00 02                 4332 	.dw	2
      000E56 78                    4333 	.db	120
      000E57 03                    4334 	.sleb128	3
      000E58 00 00 84 1B           4335 	.dw	0,(Sstm8_hd44780$lcd_bus_inputs$223)
      000E5C 00 00 84 1D           4336 	.dw	0,(Sstm8_hd44780$lcd_bus_inputs$224)
      000E60 00 02                 4337 	.dw	2
      000E62 78                    4338 	.db	120
      000E63 02                    4339 	.sleb128	2
      000E64 00 00 84 19           4340 	.dw	0,(Sstm8_hd44780$lcd_bus_inputs$221)
      000E68 00 00 84 1B           4341 	.dw	0,(Sstm8_hd44780$lcd_bus_inputs$223)
      000E6C 00 02                 4342 	.dw	2
      000E6E 78                    4343 	.db	120
      000E6F 01                    4344 	.sleb128	1
      000E70 00 00 00 00           4345 	.dw	0,0
      000E74 00 00 00 00           4346 	.dw	0,0
      000E78 00 00 84 18           4347 	.dw	0,(Sstm8_hd44780$lcd_bus_outputs$216)
      000E7C 00 00 84 19           4348 	.dw	0,(Sstm8_hd44780$lcd_bus_outputs$219)
      000E80 00 02                 4349 	.dw	2
      000E82 78                    4350 	.db	120
      000E83 01                    4351 	.sleb128	1
      000E84 00 00 84 13           4352 	.dw	0,(Sstm8_hd44780$lcd_bus_outputs$215)
      000E88 00 00 84 18           4353 	.dw	0,(Sstm8_hd44780$lcd_bus_outputs$216)
      000E8C 00 02                 4354 	.dw	2
      000E8E 78                    4355 	.db	120
      000E8F 05                    4356 	.sleb128	5
      000E90 00 00 84 11           4357 	.dw	0,(Sstm8_hd44780$lcd_bus_outputs$214)
      000E94 00 00 84 13           4358 	.dw	0,(Sstm8_hd44780$lcd_bus_outputs$215)
      000E98 00 02                 4359 	.dw	2
      000E9A 78                    4360 	.db	120
      000E9B 04                    4361 	.sleb128	4
      000E9C 00 00 84 0F           4362 	.dw	0,(Sstm8_hd44780$lcd_bus_outputs$213)
      000EA0 00 00 84 11           4363 	.dw	0,(Sstm8_hd44780$lcd_bus_outputs$214)
      000EA4 00 02                 4364 	.dw	2
      000EA6 78                    4365 	.db	120
      000EA7 03                    4366 	.sleb128	3
      000EA8 00 00 84 0D           4367 	.dw	0,(Sstm8_hd44780$lcd_bus_outputs$212)
      000EAC 00 00 84 0F           4368 	.dw	0,(Sstm8_hd44780$lcd_bus_outputs$213)
      000EB0 00 02                 4369 	.dw	2
      000EB2 78                    4370 	.db	120
      000EB3 02                    4371 	.sleb128	2
      000EB4 00 00 84 0B           4372 	.dw	0,(Sstm8_hd44780$lcd_bus_outputs$210)
      000EB8 00 00 84 0D           4373 	.dw	0,(Sstm8_hd44780$lcd_bus_outputs$212)
      000EBC 00 02                 4374 	.dw	2
      000EBE 78                    4375 	.db	120
      000EBF 01                    4376 	.sleb128	1
      000EC0 00 00 84 06           4377 	.dw	0,(Sstm8_hd44780$lcd_bus_outputs$209)
      000EC4 00 00 84 0B           4378 	.dw	0,(Sstm8_hd44780$lcd_bus_outputs$210)
      000EC8 00 02                 4379 	.dw	2
      000ECA 78                    4380 	.db	120
      000ECB 05                    4381 	.sleb128	5
      000ECC 00 00 84 04           4382 	.dw	0,(Sstm8_hd44780$lcd_bus_outputs$208)
      000ED0 00 00 84 06           4383 	.dw	0,(Sstm8_hd44780$lcd_bus_outputs$209)
      000ED4 00 02                 4384 	.dw	2
      000ED6 78                    4385 	.db	120
      000ED7 04                    4386 	.sleb128	4
      000ED8 00 00 84 02           4387 	.dw	0,(Sstm8_hd44780$lcd_bus_outputs$207)
      000EDC 00 00 84 04           4388 	.dw	0,(Sstm8_hd44780$lcd_bus_outputs$208)
      000EE0 00 02                 4389 	.dw	2
      000EE2 78                    4390 	.db	120
      000EE3 03                    4391 	.sleb128	3
      000EE4 00 00 84 00           4392 	.dw	0,(Sstm8_hd44780$lcd_bus_outputs$206)
      000EE8 00 00 84 02           4393 	.dw	0,(Sstm8_hd44780$lcd_bus_outputs$207)
      000EEC 00 02                 4394 	.dw	2
      000EEE 78                    4395 	.db	120
      000EEF 02                    4396 	.sleb128	2
      000EF0 00 00 83 FE           4397 	.dw	0,(Sstm8_hd44780$lcd_bus_outputs$204)
      000EF4 00 00 84 00           4398 	.dw	0,(Sstm8_hd44780$lcd_bus_outputs$206)
      000EF8 00 02                 4399 	.dw	2
      000EFA 78                    4400 	.db	120
      000EFB 01                    4401 	.sleb128	1
      000EFC 00 00 83 F9           4402 	.dw	0,(Sstm8_hd44780$lcd_bus_outputs$203)
      000F00 00 00 83 FE           4403 	.dw	0,(Sstm8_hd44780$lcd_bus_outputs$204)
      000F04 00 02                 4404 	.dw	2
      000F06 78                    4405 	.db	120
      000F07 05                    4406 	.sleb128	5
      000F08 00 00 83 F7           4407 	.dw	0,(Sstm8_hd44780$lcd_bus_outputs$202)
      000F0C 00 00 83 F9           4408 	.dw	0,(Sstm8_hd44780$lcd_bus_outputs$203)
      000F10 00 02                 4409 	.dw	2
      000F12 78                    4410 	.db	120
      000F13 04                    4411 	.sleb128	4
      000F14 00 00 83 F5           4412 	.dw	0,(Sstm8_hd44780$lcd_bus_outputs$201)
      000F18 00 00 83 F7           4413 	.dw	0,(Sstm8_hd44780$lcd_bus_outputs$202)
      000F1C 00 02                 4414 	.dw	2
      000F1E 78                    4415 	.db	120
      000F1F 03                    4416 	.sleb128	3
      000F20 00 00 83 F3           4417 	.dw	0,(Sstm8_hd44780$lcd_bus_outputs$200)
      000F24 00 00 83 F5           4418 	.dw	0,(Sstm8_hd44780$lcd_bus_outputs$201)
      000F28 00 02                 4419 	.dw	2
      000F2A 78                    4420 	.db	120
      000F2B 02                    4421 	.sleb128	2
      000F2C 00 00 83 F1           4422 	.dw	0,(Sstm8_hd44780$lcd_bus_outputs$198)
      000F30 00 00 83 F3           4423 	.dw	0,(Sstm8_hd44780$lcd_bus_outputs$200)
      000F34 00 02                 4424 	.dw	2
      000F36 78                    4425 	.db	120
      000F37 01                    4426 	.sleb128	1
      000F38 00 00 83 EC           4427 	.dw	0,(Sstm8_hd44780$lcd_bus_outputs$197)
      000F3C 00 00 83 F1           4428 	.dw	0,(Sstm8_hd44780$lcd_bus_outputs$198)
      000F40 00 02                 4429 	.dw	2
      000F42 78                    4430 	.db	120
      000F43 05                    4431 	.sleb128	5
      000F44 00 00 83 EA           4432 	.dw	0,(Sstm8_hd44780$lcd_bus_outputs$196)
      000F48 00 00 83 EC           4433 	.dw	0,(Sstm8_hd44780$lcd_bus_outputs$197)
      000F4C 00 02                 4434 	.dw	2
      000F4E 78                    4435 	.db	120
      000F4F 04                    4436 	.sleb128	4
      000F50 00 00 83 E8           4437 	.dw	0,(Sstm8_hd44780$lcd_bus_outputs$195)
      000F54 00 00 83 EA           4438 	.dw	0,(Sstm8_hd44780$lcd_bus_outputs$196)
      000F58 00 02                 4439 	.dw	2
      000F5A 78                    4440 	.db	120
      000F5B 03                    4441 	.sleb128	3
      000F5C 00 00 83 E6           4442 	.dw	0,(Sstm8_hd44780$lcd_bus_outputs$194)
      000F60 00 00 83 E8           4443 	.dw	0,(Sstm8_hd44780$lcd_bus_outputs$195)
      000F64 00 02                 4444 	.dw	2
      000F66 78                    4445 	.db	120
      000F67 02                    4446 	.sleb128	2
      000F68 00 00 83 E4           4447 	.dw	0,(Sstm8_hd44780$lcd_bus_outputs$192)
      000F6C 00 00 83 E6           4448 	.dw	0,(Sstm8_hd44780$lcd_bus_outputs$194)
      000F70 00 02                 4449 	.dw	2
      000F72 78                    4450 	.db	120
      000F73 01                    4451 	.sleb128	1
      000F74 00 00 00 00           4452 	.dw	0,0
      000F78 00 00 00 00           4453 	.dw	0,0
      000F7C 00 00 83 E0           4454 	.dw	0,(Sstm8_hd44780$lcd_init_hw$186)
      000F80 00 00 83 E4           4455 	.dw	0,(Sstm8_hd44780$lcd_init_hw$190)
      000F84 00 02                 4456 	.dw	2
      000F86 78                    4457 	.db	120
      000F87 01                    4458 	.sleb128	1
      000F88 00 00 83 DB           4459 	.dw	0,(Sstm8_hd44780$lcd_init_hw$185)
      000F8C 00 00 83 E0           4460 	.dw	0,(Sstm8_hd44780$lcd_init_hw$186)
      000F90 00 02                 4461 	.dw	2
      000F92 78                    4462 	.db	120
      000F93 05                    4463 	.sleb128	5
      000F94 00 00 83 D9           4464 	.dw	0,(Sstm8_hd44780$lcd_init_hw$184)
      000F98 00 00 83 DB           4465 	.dw	0,(Sstm8_hd44780$lcd_init_hw$185)
      000F9C 00 02                 4466 	.dw	2
      000F9E 78                    4467 	.db	120
      000F9F 04                    4468 	.sleb128	4
      000FA0 00 00 83 D7           4469 	.dw	0,(Sstm8_hd44780$lcd_init_hw$183)
      000FA4 00 00 83 D9           4470 	.dw	0,(Sstm8_hd44780$lcd_init_hw$184)
      000FA8 00 02                 4471 	.dw	2
      000FAA 78                    4472 	.db	120
      000FAB 03                    4473 	.sleb128	3
      000FAC 00 00 83 D5           4474 	.dw	0,(Sstm8_hd44780$lcd_init_hw$182)
      000FB0 00 00 83 D7           4475 	.dw	0,(Sstm8_hd44780$lcd_init_hw$183)
      000FB4 00 02                 4476 	.dw	2
      000FB6 78                    4477 	.db	120
      000FB7 02                    4478 	.sleb128	2
      000FB8 00 00 83 D3           4479 	.dw	0,(Sstm8_hd44780$lcd_init_hw$180)
      000FBC 00 00 83 D5           4480 	.dw	0,(Sstm8_hd44780$lcd_init_hw$182)
      000FC0 00 02                 4481 	.dw	2
      000FC2 78                    4482 	.db	120
      000FC3 01                    4483 	.sleb128	1
      000FC4 00 00 83 CE           4484 	.dw	0,(Sstm8_hd44780$lcd_init_hw$179)
      000FC8 00 00 83 D3           4485 	.dw	0,(Sstm8_hd44780$lcd_init_hw$180)
      000FCC 00 02                 4486 	.dw	2
      000FCE 78                    4487 	.db	120
      000FCF 05                    4488 	.sleb128	5
      000FD0 00 00 83 CC           4489 	.dw	0,(Sstm8_hd44780$lcd_init_hw$178)
      000FD4 00 00 83 CE           4490 	.dw	0,(Sstm8_hd44780$lcd_init_hw$179)
      000FD8 00 02                 4491 	.dw	2
      000FDA 78                    4492 	.db	120
      000FDB 04                    4493 	.sleb128	4
      000FDC 00 00 83 CA           4494 	.dw	0,(Sstm8_hd44780$lcd_init_hw$177)
      000FE0 00 00 83 CC           4495 	.dw	0,(Sstm8_hd44780$lcd_init_hw$178)
      000FE4 00 02                 4496 	.dw	2
      000FE6 78                    4497 	.db	120
      000FE7 03                    4498 	.sleb128	3
      000FE8 00 00 83 C8           4499 	.dw	0,(Sstm8_hd44780$lcd_init_hw$176)
      000FEC 00 00 83 CA           4500 	.dw	0,(Sstm8_hd44780$lcd_init_hw$177)
      000FF0 00 02                 4501 	.dw	2
      000FF2 78                    4502 	.db	120
      000FF3 02                    4503 	.sleb128	2
      000FF4 00 00 83 C6           4504 	.dw	0,(Sstm8_hd44780$lcd_init_hw$174)
      000FF8 00 00 83 C8           4505 	.dw	0,(Sstm8_hd44780$lcd_init_hw$176)
      000FFC 00 02                 4506 	.dw	2
      000FFE 78                    4507 	.db	120
      000FFF 01                    4508 	.sleb128	1
      001000 00 00 83 C1           4509 	.dw	0,(Sstm8_hd44780$lcd_init_hw$173)
      001004 00 00 83 C6           4510 	.dw	0,(Sstm8_hd44780$lcd_init_hw$174)
      001008 00 02                 4511 	.dw	2
      00100A 78                    4512 	.db	120
      00100B 05                    4513 	.sleb128	5
      00100C 00 00 83 BF           4514 	.dw	0,(Sstm8_hd44780$lcd_init_hw$172)
      001010 00 00 83 C1           4515 	.dw	0,(Sstm8_hd44780$lcd_init_hw$173)
      001014 00 02                 4516 	.dw	2
      001016 78                    4517 	.db	120
      001017 04                    4518 	.sleb128	4
      001018 00 00 83 BD           4519 	.dw	0,(Sstm8_hd44780$lcd_init_hw$171)
      00101C 00 00 83 BF           4520 	.dw	0,(Sstm8_hd44780$lcd_init_hw$172)
      001020 00 02                 4521 	.dw	2
      001022 78                    4522 	.db	120
      001023 03                    4523 	.sleb128	3
      001024 00 00 83 BB           4524 	.dw	0,(Sstm8_hd44780$lcd_init_hw$170)
      001028 00 00 83 BD           4525 	.dw	0,(Sstm8_hd44780$lcd_init_hw$171)
      00102C 00 02                 4526 	.dw	2
      00102E 78                    4527 	.db	120
      00102F 02                    4528 	.sleb128	2
      001030 00 00 83 B9           4529 	.dw	0,(Sstm8_hd44780$lcd_init_hw$168)
      001034 00 00 83 BB           4530 	.dw	0,(Sstm8_hd44780$lcd_init_hw$170)
      001038 00 02                 4531 	.dw	2
      00103A 78                    4532 	.db	120
      00103B 01                    4533 	.sleb128	1
      00103C 00 00 00 00           4534 	.dw	0,0
      001040 00 00 00 00           4535 	.dw	0,0
      001044 00 00 83 B8           4536 	.dw	0,(Sstm8_hd44780$lcd_gotoxy$163)
      001048 00 00 83 B9           4537 	.dw	0,(Sstm8_hd44780$lcd_gotoxy$166)
      00104C 00 02                 4538 	.dw	2
      00104E 78                    4539 	.db	120
      00104F 01                    4540 	.sleb128	1
      001050 00 00 83 B4           4541 	.dw	0,(Sstm8_hd44780$lcd_gotoxy$162)
      001054 00 00 83 B8           4542 	.dw	0,(Sstm8_hd44780$lcd_gotoxy$163)
      001058 00 02                 4543 	.dw	2
      00105A 78                    4544 	.db	120
      00105B 02                    4545 	.sleb128	2
      00105C 00 00 83 AB           4546 	.dw	0,(Sstm8_hd44780$lcd_gotoxy$157)
      001060 00 00 83 B4           4547 	.dw	0,(Sstm8_hd44780$lcd_gotoxy$162)
      001064 00 02                 4548 	.dw	2
      001066 78                    4549 	.db	120
      001067 01                    4550 	.sleb128	1
      001068 00 00 83 87           4551 	.dw	0,(Sstm8_hd44780$lcd_gotoxy$148)
      00106C 00 00 83 AB           4552 	.dw	0,(Sstm8_hd44780$lcd_gotoxy$157)
      001070 00 02                 4553 	.dw	2
      001072 78                    4554 	.db	120
      001073 01                    4555 	.sleb128	1
      001074 00 00 00 00           4556 	.dw	0,0
      001078 00 00 00 00           4557 	.dw	0,0
      00107C 00 00 83 86           4558 	.dw	0,(Sstm8_hd44780$lcd_init$143)
      001080 00 00 83 87           4559 	.dw	0,(Sstm8_hd44780$lcd_init$146)
      001084 00 02                 4560 	.dw	2
      001086 78                    4561 	.db	120
      001087 01                    4562 	.sleb128	1
      001088 00 00 83 82           4563 	.dw	0,(Sstm8_hd44780$lcd_init$142)
      00108C 00 00 83 86           4564 	.dw	0,(Sstm8_hd44780$lcd_init$143)
      001090 00 02                 4565 	.dw	2
      001092 78                    4566 	.db	120
      001093 02                    4567 	.sleb128	2
      001094 00 00 83 80           4568 	.dw	0,(Sstm8_hd44780$lcd_init$140)
      001098 00 00 83 82           4569 	.dw	0,(Sstm8_hd44780$lcd_init$142)
      00109C 00 02                 4570 	.dw	2
      00109E 78                    4571 	.db	120
      00109F 01                    4572 	.sleb128	1
      0010A0 00 00 83 7C           4573 	.dw	0,(Sstm8_hd44780$lcd_init$139)
      0010A4 00 00 83 80           4574 	.dw	0,(Sstm8_hd44780$lcd_init$140)
      0010A8 00 02                 4575 	.dw	2
      0010AA 78                    4576 	.db	120
      0010AB 02                    4577 	.sleb128	2
      0010AC 00 00 83 7A           4578 	.dw	0,(Sstm8_hd44780$lcd_init$137)
      0010B0 00 00 83 7C           4579 	.dw	0,(Sstm8_hd44780$lcd_init$139)
      0010B4 00 02                 4580 	.dw	2
      0010B6 78                    4581 	.db	120
      0010B7 01                    4582 	.sleb128	1
      0010B8 00 00 83 76           4583 	.dw	0,(Sstm8_hd44780$lcd_init$136)
      0010BC 00 00 83 7A           4584 	.dw	0,(Sstm8_hd44780$lcd_init$137)
      0010C0 00 02                 4585 	.dw	2
      0010C2 78                    4586 	.db	120
      0010C3 02                    4587 	.sleb128	2
      0010C4 00 00 83 74           4588 	.dw	0,(Sstm8_hd44780$lcd_init$134)
      0010C8 00 00 83 76           4589 	.dw	0,(Sstm8_hd44780$lcd_init$136)
      0010CC 00 02                 4590 	.dw	2
      0010CE 78                    4591 	.db	120
      0010CF 01                    4592 	.sleb128	1
      0010D0 00 00 83 70           4593 	.dw	0,(Sstm8_hd44780$lcd_init$133)
      0010D4 00 00 83 74           4594 	.dw	0,(Sstm8_hd44780$lcd_init$134)
      0010D8 00 02                 4595 	.dw	2
      0010DA 78                    4596 	.db	120
      0010DB 02                    4597 	.sleb128	2
      0010DC 00 00 83 6E           4598 	.dw	0,(Sstm8_hd44780$lcd_init$131)
      0010E0 00 00 83 70           4599 	.dw	0,(Sstm8_hd44780$lcd_init$133)
      0010E4 00 02                 4600 	.dw	2
      0010E6 78                    4601 	.db	120
      0010E7 01                    4602 	.sleb128	1
      0010E8 00 00 83 6A           4603 	.dw	0,(Sstm8_hd44780$lcd_init$130)
      0010EC 00 00 83 6E           4604 	.dw	0,(Sstm8_hd44780$lcd_init$131)
      0010F0 00 02                 4605 	.dw	2
      0010F2 78                    4606 	.db	120
      0010F3 02                    4607 	.sleb128	2
      0010F4 00 00 83 68           4608 	.dw	0,(Sstm8_hd44780$lcd_init$128)
      0010F8 00 00 83 6A           4609 	.dw	0,(Sstm8_hd44780$lcd_init$130)
      0010FC 00 02                 4610 	.dw	2
      0010FE 78                    4611 	.db	120
      0010FF 01                    4612 	.sleb128	1
      001100 00 00 83 64           4613 	.dw	0,(Sstm8_hd44780$lcd_init$127)
      001104 00 00 83 68           4614 	.dw	0,(Sstm8_hd44780$lcd_init$128)
      001108 00 02                 4615 	.dw	2
      00110A 78                    4616 	.db	120
      00110B 02                    4617 	.sleb128	2
      00110C 00 00 83 52           4618 	.dw	0,(Sstm8_hd44780$lcd_init$117)
      001110 00 00 83 64           4619 	.dw	0,(Sstm8_hd44780$lcd_init$127)
      001114 00 02                 4620 	.dw	2
      001116 78                    4621 	.db	120
      001117 01                    4622 	.sleb128	1
      001118 00 00 83 4E           4623 	.dw	0,(Sstm8_hd44780$lcd_init$116)
      00111C 00 00 83 52           4624 	.dw	0,(Sstm8_hd44780$lcd_init$117)
      001120 00 02                 4625 	.dw	2
      001122 78                    4626 	.db	120
      001123 02                    4627 	.sleb128	2
      001124 00 00 83 49           4628 	.dw	0,(Sstm8_hd44780$lcd_init$113)
      001128 00 00 83 4E           4629 	.dw	0,(Sstm8_hd44780$lcd_init$116)
      00112C 00 02                 4630 	.dw	2
      00112E 78                    4631 	.db	120
      00112F 01                    4632 	.sleb128	1
      001130 00 00 83 45           4633 	.dw	0,(Sstm8_hd44780$lcd_init$112)
      001134 00 00 83 49           4634 	.dw	0,(Sstm8_hd44780$lcd_init$113)
      001138 00 02                 4635 	.dw	2
      00113A 78                    4636 	.db	120
      00113B 02                    4637 	.sleb128	2
      00113C 00 00 83 33           4638 	.dw	0,(Sstm8_hd44780$lcd_init$102)
      001140 00 00 83 45           4639 	.dw	0,(Sstm8_hd44780$lcd_init$112)
      001144 00 02                 4640 	.dw	2
      001146 78                    4641 	.db	120
      001147 01                    4642 	.sleb128	1
      001148 00 00 83 2F           4643 	.dw	0,(Sstm8_hd44780$lcd_init$101)
      00114C 00 00 83 33           4644 	.dw	0,(Sstm8_hd44780$lcd_init$102)
      001150 00 02                 4645 	.dw	2
      001152 78                    4646 	.db	120
      001153 02                    4647 	.sleb128	2
      001154 00 00 83 1D           4648 	.dw	0,(Sstm8_hd44780$lcd_init$91)
      001158 00 00 83 2F           4649 	.dw	0,(Sstm8_hd44780$lcd_init$101)
      00115C 00 02                 4650 	.dw	2
      00115E 78                    4651 	.db	120
      00115F 01                    4652 	.sleb128	1
      001160 00 00 83 19           4653 	.dw	0,(Sstm8_hd44780$lcd_init$90)
      001164 00 00 83 1D           4654 	.dw	0,(Sstm8_hd44780$lcd_init$91)
      001168 00 02                 4655 	.dw	2
      00116A 78                    4656 	.db	120
      00116B 02                    4657 	.sleb128	2
      00116C 00 00 83 04           4658 	.dw	0,(Sstm8_hd44780$lcd_init$79)
      001170 00 00 83 19           4659 	.dw	0,(Sstm8_hd44780$lcd_init$90)
      001174 00 02                 4660 	.dw	2
      001176 78                    4661 	.db	120
      001177 01                    4662 	.sleb128	1
      001178 00 00 00 00           4663 	.dw	0,0
      00117C 00 00 00 00           4664 	.dw	0,0
      001180 00 00 82 FF           4665 	.dw	0,(Sstm8_hd44780$lcd_puts$72)
      001184 00 00 83 04           4666 	.dw	0,(Sstm8_hd44780$lcd_puts$77)
      001188 00 02                 4667 	.dw	2
      00118A 78                    4668 	.db	120
      00118B 01                    4669 	.sleb128	1
      00118C 00 00 82 FE           4670 	.dw	0,(Sstm8_hd44780$lcd_puts$71)
      001190 00 00 82 FF           4671 	.dw	0,(Sstm8_hd44780$lcd_puts$72)
      001194 00 02                 4672 	.dw	2
      001196 78                    4673 	.db	120
      001197 03                    4674 	.sleb128	3
      001198 00 00 82 FA           4675 	.dw	0,(Sstm8_hd44780$lcd_puts$70)
      00119C 00 00 82 FE           4676 	.dw	0,(Sstm8_hd44780$lcd_puts$71)
      0011A0 00 02                 4677 	.dw	2
      0011A2 78                    4678 	.db	120
      0011A3 04                    4679 	.sleb128	4
      0011A4 00 00 82 F9           4680 	.dw	0,(Sstm8_hd44780$lcd_puts$69)
      0011A8 00 00 82 FA           4681 	.dw	0,(Sstm8_hd44780$lcd_puts$70)
      0011AC 00 02                 4682 	.dw	2
      0011AE 78                    4683 	.db	120
      0011AF 03                    4684 	.sleb128	3
      0011B0 00 00 82 EF           4685 	.dw	0,(Sstm8_hd44780$lcd_puts$65)
      0011B4 00 00 82 F9           4686 	.dw	0,(Sstm8_hd44780$lcd_puts$69)
      0011B8 00 02                 4687 	.dw	2
      0011BA 78                    4688 	.db	120
      0011BB 01                    4689 	.sleb128	1
      0011BC 00 00 00 00           4690 	.dw	0,0
      0011C0 00 00 00 00           4691 	.dw	0,0
      0011C4 00 00 82 EE           4692 	.dw	0,(Sstm8_hd44780$lcd_store_symbol$61)
      0011C8 00 00 82 EF           4693 	.dw	0,(Sstm8_hd44780$lcd_store_symbol$63)
      0011CC 00 02                 4694 	.dw	2
      0011CE 78                    4695 	.db	120
      0011CF 01                    4696 	.sleb128	1
      0011D0 00 00 82 ED           4697 	.dw	0,(Sstm8_hd44780$lcd_store_symbol$59)
      0011D4 00 00 82 EE           4698 	.dw	0,(Sstm8_hd44780$lcd_store_symbol$61)
      0011D8 00 02                 4699 	.dw	2
      0011DA 78                    4700 	.db	120
      0011DB 02                    4701 	.sleb128	2
      0011DC 00 00 82 E9           4702 	.dw	0,(Sstm8_hd44780$lcd_store_symbol$58)
      0011E0 00 00 82 ED           4703 	.dw	0,(Sstm8_hd44780$lcd_store_symbol$59)
      0011E4 00 02                 4704 	.dw	2
      0011E6 78                    4705 	.db	120
      0011E7 03                    4706 	.sleb128	3
      0011E8 00 00 82 DC           4707 	.dw	0,(Sstm8_hd44780$lcd_store_symbol$54)
      0011EC 00 00 82 E9           4708 	.dw	0,(Sstm8_hd44780$lcd_store_symbol$58)
      0011F0 00 02                 4709 	.dw	2
      0011F2 78                    4710 	.db	120
      0011F3 02                    4711 	.sleb128	2
      0011F4 00 00 82 D8           4712 	.dw	0,(Sstm8_hd44780$lcd_store_symbol$53)
      0011F8 00 00 82 DC           4713 	.dw	0,(Sstm8_hd44780$lcd_store_symbol$54)
      0011FC 00 02                 4714 	.dw	2
      0011FE 78                    4715 	.db	120
      0011FF 03                    4716 	.sleb128	3
      001200 00 00 82 CD           4717 	.dw	0,(Sstm8_hd44780$lcd_store_symbol$49)
      001204 00 00 82 D8           4718 	.dw	0,(Sstm8_hd44780$lcd_store_symbol$53)
      001208 00 02                 4719 	.dw	2
      00120A 78                    4720 	.db	120
      00120B 02                    4721 	.sleb128	2
      00120C 00 00 82 C9           4722 	.dw	0,(Sstm8_hd44780$lcd_store_symbol$48)
      001210 00 00 82 CD           4723 	.dw	0,(Sstm8_hd44780$lcd_store_symbol$49)
      001214 00 02                 4724 	.dw	2
      001216 78                    4725 	.db	120
      001217 03                    4726 	.sleb128	3
      001218 00 00 82 B8           4727 	.dw	0,(Sstm8_hd44780$lcd_store_symbol$45)
      00121C 00 00 82 C9           4728 	.dw	0,(Sstm8_hd44780$lcd_store_symbol$48)
      001220 00 02                 4729 	.dw	2
      001222 78                    4730 	.db	120
      001223 02                    4731 	.sleb128	2
      001224 00 00 82 B7           4732 	.dw	0,(Sstm8_hd44780$lcd_store_symbol$44)
      001228 00 00 82 B8           4733 	.dw	0,(Sstm8_hd44780$lcd_store_symbol$45)
      00122C 00 02                 4734 	.dw	2
      00122E 78                    4735 	.db	120
      00122F 01                    4736 	.sleb128	1
      001230 00 00 00 00           4737 	.dw	0,0
      001234 00 00 00 00           4738 	.dw	0,0
      001238 00 00 82 A2           4739 	.dw	0,(Sstm8_hd44780$_delay_us$29)
      00123C 00 00 82 B7           4740 	.dw	0,(Sstm8_hd44780$_delay_us$42)
      001240 00 02                 4741 	.dw	2
      001242 78                    4742 	.db	120
      001243 01                    4743 	.sleb128	1
      001244 00 00 82 9D           4744 	.dw	0,(Sstm8_hd44780$_delay_us$28)
      001248 00 00 82 A2           4745 	.dw	0,(Sstm8_hd44780$_delay_us$29)
      00124C 00 02                 4746 	.dw	2
      00124E 78                    4747 	.db	120
      00124F 09                    4748 	.sleb128	9
      001250 00 00 82 9B           4749 	.dw	0,(Sstm8_hd44780$_delay_us$27)
      001254 00 00 82 9D           4750 	.dw	0,(Sstm8_hd44780$_delay_us$28)
      001258 00 02                 4751 	.dw	2
      00125A 78                    4752 	.db	120
      00125B 07                    4753 	.sleb128	7
      00125C 00 00 82 9A           4754 	.dw	0,(Sstm8_hd44780$_delay_us$26)
      001260 00 00 82 9B           4755 	.dw	0,(Sstm8_hd44780$_delay_us$27)
      001264 00 02                 4756 	.dw	2
      001266 78                    4757 	.db	120
      001267 05                    4758 	.sleb128	5
      001268 00 00 82 98           4759 	.dw	0,(Sstm8_hd44780$_delay_us$25)
      00126C 00 00 82 9A           4760 	.dw	0,(Sstm8_hd44780$_delay_us$26)
      001270 00 02                 4761 	.dw	2
      001272 78                    4762 	.db	120
      001273 04                    4763 	.sleb128	4
      001274 00 00 82 96           4764 	.dw	0,(Sstm8_hd44780$_delay_us$24)
      001278 00 00 82 98           4765 	.dw	0,(Sstm8_hd44780$_delay_us$25)
      00127C 00 02                 4766 	.dw	2
      00127E 78                    4767 	.db	120
      00127F 03                    4768 	.sleb128	3
      001280 00 00 82 94           4769 	.dw	0,(Sstm8_hd44780$_delay_us$23)
      001284 00 00 82 96           4770 	.dw	0,(Sstm8_hd44780$_delay_us$24)
      001288 00 02                 4771 	.dw	2
      00128A 78                    4772 	.db	120
      00128B 02                    4773 	.sleb128	2
      00128C 00 00 82 92           4774 	.dw	0,(Sstm8_hd44780$_delay_us$21)
      001290 00 00 82 94           4775 	.dw	0,(Sstm8_hd44780$_delay_us$23)
      001294 00 02                 4776 	.dw	2
      001296 78                    4777 	.db	120
      001297 01                    4778 	.sleb128	1
      001298 00 00 82 8D           4779 	.dw	0,(Sstm8_hd44780$_delay_us$20)
      00129C 00 00 82 92           4780 	.dw	0,(Sstm8_hd44780$_delay_us$21)
      0012A0 00 02                 4781 	.dw	2
      0012A2 78                    4782 	.db	120
      0012A3 09                    4783 	.sleb128	9
      0012A4 00 00 82 8B           4784 	.dw	0,(Sstm8_hd44780$_delay_us$19)
      0012A8 00 00 82 8D           4785 	.dw	0,(Sstm8_hd44780$_delay_us$20)
      0012AC 00 02                 4786 	.dw	2
      0012AE 78                    4787 	.db	120
      0012AF 08                    4788 	.sleb128	8
      0012B0 00 00 82 89           4789 	.dw	0,(Sstm8_hd44780$_delay_us$18)
      0012B4 00 00 82 8B           4790 	.dw	0,(Sstm8_hd44780$_delay_us$19)
      0012B8 00 02                 4791 	.dw	2
      0012BA 78                    4792 	.db	120
      0012BB 07                    4793 	.sleb128	7
      0012BC 00 00 82 87           4794 	.dw	0,(Sstm8_hd44780$_delay_us$17)
      0012C0 00 00 82 89           4795 	.dw	0,(Sstm8_hd44780$_delay_us$18)
      0012C4 00 02                 4796 	.dw	2
      0012C6 78                    4797 	.db	120
      0012C7 06                    4798 	.sleb128	6
      0012C8 00 00 82 85           4799 	.dw	0,(Sstm8_hd44780$_delay_us$16)
      0012CC 00 00 82 87           4800 	.dw	0,(Sstm8_hd44780$_delay_us$17)
      0012D0 00 02                 4801 	.dw	2
      0012D2 78                    4802 	.db	120
      0012D3 05                    4803 	.sleb128	5
      0012D4 00 00 82 84           4804 	.dw	0,(Sstm8_hd44780$_delay_us$15)
      0012D8 00 00 82 85           4805 	.dw	0,(Sstm8_hd44780$_delay_us$16)
      0012DC 00 02                 4806 	.dw	2
      0012DE 78                    4807 	.db	120
      0012DF 03                    4808 	.sleb128	3
      0012E0 00 00 82 7F           4809 	.dw	0,(Sstm8_hd44780$_delay_us$13)
      0012E4 00 00 82 84           4810 	.dw	0,(Sstm8_hd44780$_delay_us$15)
      0012E8 00 02                 4811 	.dw	2
      0012EA 78                    4812 	.db	120
      0012EB 01                    4813 	.sleb128	1
      0012EC 00 00 00 00           4814 	.dw	0,0
      0012F0 00 00 00 00           4815 	.dw	0,0
      0012F4 00 00 82 72           4816 	.dw	0,(Sstm8_hd44780$_delay_cycl$1)
      0012F8 00 00 82 7F           4817 	.dw	0,(Sstm8_hd44780$_delay_cycl$11)
      0012FC 00 02                 4818 	.dw	2
      0012FE 78                    4819 	.db	120
      0012FF 01                    4820 	.sleb128	1
      001300 00 00 00 00           4821 	.dw	0,0
      001304 00 00 00 00           4822 	.dw	0,0
                                   4823 
                                   4824 	.area .debug_abbrev (NOLOAD)
      000179                       4825 Ldebug_abbrev:
      000179 0B                    4826 	.uleb128	11
      00017A 0F                    4827 	.uleb128	15
      00017B 00                    4828 	.db	0
      00017C 0B                    4829 	.uleb128	11
      00017D 0B                    4830 	.uleb128	11
      00017E 49                    4831 	.uleb128	73
      00017F 13                    4832 	.uleb128	19
      000180 00                    4833 	.uleb128	0
      000181 00                    4834 	.uleb128	0
      000182 0D                    4835 	.uleb128	13
      000183 0B                    4836 	.uleb128	11
      000184 01                    4837 	.db	1
      000185 00                    4838 	.uleb128	0
      000186 00                    4839 	.uleb128	0
      000187 10                    4840 	.uleb128	16
      000188 2E                    4841 	.uleb128	46
      000189 01                    4842 	.db	1
      00018A 03                    4843 	.uleb128	3
      00018B 08                    4844 	.uleb128	8
      00018C 11                    4845 	.uleb128	17
      00018D 01                    4846 	.uleb128	1
      00018E 12                    4847 	.uleb128	18
      00018F 01                    4848 	.uleb128	1
      000190 3F                    4849 	.uleb128	63
      000191 0C                    4850 	.uleb128	12
      000192 40                    4851 	.uleb128	64
      000193 06                    4852 	.uleb128	6
      000194 49                    4853 	.uleb128	73
      000195 13                    4854 	.uleb128	19
      000196 00                    4855 	.uleb128	0
      000197 00                    4856 	.uleb128	0
      000198 03                    4857 	.uleb128	3
      000199 05                    4858 	.uleb128	5
      00019A 00                    4859 	.db	0
      00019B 02                    4860 	.uleb128	2
      00019C 0A                    4861 	.uleb128	10
      00019D 03                    4862 	.uleb128	3
      00019E 08                    4863 	.uleb128	8
      00019F 49                    4864 	.uleb128	73
      0001A0 13                    4865 	.uleb128	19
      0001A1 00                    4866 	.uleb128	0
      0001A2 00                    4867 	.uleb128	0
      0001A3 02                    4868 	.uleb128	2
      0001A4 2E                    4869 	.uleb128	46
      0001A5 01                    4870 	.db	1
      0001A6 01                    4871 	.uleb128	1
      0001A7 13                    4872 	.uleb128	19
      0001A8 03                    4873 	.uleb128	3
      0001A9 08                    4874 	.uleb128	8
      0001AA 11                    4875 	.uleb128	17
      0001AB 01                    4876 	.uleb128	1
      0001AC 12                    4877 	.uleb128	18
      0001AD 01                    4878 	.uleb128	1
      0001AE 3F                    4879 	.uleb128	63
      0001AF 0C                    4880 	.uleb128	12
      0001B0 40                    4881 	.uleb128	64
      0001B1 06                    4882 	.uleb128	6
      0001B2 00                    4883 	.uleb128	0
      0001B3 00                    4884 	.uleb128	0
      0001B4 0A                    4885 	.uleb128	10
      0001B5 34                    4886 	.uleb128	52
      0001B6 00                    4887 	.db	0
      0001B7 02                    4888 	.uleb128	2
      0001B8 0A                    4889 	.uleb128	10
      0001B9 03                    4890 	.uleb128	3
      0001BA 08                    4891 	.uleb128	8
      0001BB 49                    4892 	.uleb128	73
      0001BC 13                    4893 	.uleb128	19
      0001BD 00                    4894 	.uleb128	0
      0001BE 00                    4895 	.uleb128	0
      0001BF 0F                    4896 	.uleb128	15
      0001C0 2E                    4897 	.uleb128	46
      0001C1 01                    4898 	.db	1
      0001C2 01                    4899 	.uleb128	1
      0001C3 13                    4900 	.uleb128	19
      0001C4 03                    4901 	.uleb128	3
      0001C5 08                    4902 	.uleb128	8
      0001C6 11                    4903 	.uleb128	17
      0001C7 01                    4904 	.uleb128	1
      0001C8 12                    4905 	.uleb128	18
      0001C9 01                    4906 	.uleb128	1
      0001CA 3F                    4907 	.uleb128	63
      0001CB 0C                    4908 	.uleb128	12
      0001CC 40                    4909 	.uleb128	64
      0001CD 06                    4910 	.uleb128	6
      0001CE 49                    4911 	.uleb128	73
      0001CF 13                    4912 	.uleb128	19
      0001D0 00                    4913 	.uleb128	0
      0001D1 00                    4914 	.uleb128	0
      0001D2 0C                    4915 	.uleb128	12
      0001D3 0B                    4916 	.uleb128	11
      0001D4 01                    4917 	.db	1
      0001D5 01                    4918 	.uleb128	1
      0001D6 13                    4919 	.uleb128	19
      0001D7 00                    4920 	.uleb128	0
      0001D8 00                    4921 	.uleb128	0
      0001D9 06                    4922 	.uleb128	6
      0001DA 26                    4923 	.uleb128	38
      0001DB 00                    4924 	.db	0
      0001DC 49                    4925 	.uleb128	73
      0001DD 13                    4926 	.uleb128	19
      0001DE 00                    4927 	.uleb128	0
      0001DF 00                    4928 	.uleb128	0
      0001E0 01                    4929 	.uleb128	1
      0001E1 11                    4930 	.uleb128	17
      0001E2 01                    4931 	.db	1
      0001E3 03                    4932 	.uleb128	3
      0001E4 08                    4933 	.uleb128	8
      0001E5 10                    4934 	.uleb128	16
      0001E6 06                    4935 	.uleb128	6
      0001E7 13                    4936 	.uleb128	19
      0001E8 0B                    4937 	.uleb128	11
      0001E9 25                    4938 	.uleb128	37
      0001EA 08                    4939 	.uleb128	8
      0001EB 00                    4940 	.uleb128	0
      0001EC 00                    4941 	.uleb128	0
      0001ED 04                    4942 	.uleb128	4
      0001EE 0B                    4943 	.uleb128	11
      0001EF 00                    4944 	.db	0
      0001F0 11                    4945 	.uleb128	17
      0001F1 01                    4946 	.uleb128	1
      0001F2 12                    4947 	.uleb128	18
      0001F3 01                    4948 	.uleb128	1
      0001F4 00                    4949 	.uleb128	0
      0001F5 00                    4950 	.uleb128	0
      0001F6 07                    4951 	.uleb128	7
      0001F7 0B                    4952 	.uleb128	11
      0001F8 01                    4953 	.db	1
      0001F9 11                    4954 	.uleb128	17
      0001FA 01                    4955 	.uleb128	1
      0001FB 12                    4956 	.uleb128	18
      0001FC 01                    4957 	.uleb128	1
      0001FD 00                    4958 	.uleb128	0
      0001FE 00                    4959 	.uleb128	0
      0001FF 08                    4960 	.uleb128	8
      000200 0B                    4961 	.uleb128	11
      000201 01                    4962 	.db	1
      000202 01                    4963 	.uleb128	1
      000203 13                    4964 	.uleb128	19
      000204 11                    4965 	.uleb128	17
      000205 01                    4966 	.uleb128	1
      000206 00                    4967 	.uleb128	0
      000207 00                    4968 	.uleb128	0
      000208 0E                    4969 	.uleb128	14
      000209 2E                    4970 	.uleb128	46
      00020A 00                    4971 	.db	0
      00020B 03                    4972 	.uleb128	3
      00020C 08                    4973 	.uleb128	8
      00020D 11                    4974 	.uleb128	17
      00020E 01                    4975 	.uleb128	1
      00020F 12                    4976 	.uleb128	18
      000210 01                    4977 	.uleb128	1
      000211 3F                    4978 	.uleb128	63
      000212 0C                    4979 	.uleb128	12
      000213 40                    4980 	.uleb128	64
      000214 06                    4981 	.uleb128	6
      000215 00                    4982 	.uleb128	0
      000216 00                    4983 	.uleb128	0
      000217 09                    4984 	.uleb128	9
      000218 0B                    4985 	.uleb128	11
      000219 01                    4986 	.db	1
      00021A 01                    4987 	.uleb128	1
      00021B 13                    4988 	.uleb128	19
      00021C 11                    4989 	.uleb128	17
      00021D 01                    4990 	.uleb128	1
      00021E 12                    4991 	.uleb128	18
      00021F 01                    4992 	.uleb128	1
      000220 00                    4993 	.uleb128	0
      000221 00                    4994 	.uleb128	0
      000222 05                    4995 	.uleb128	5
      000223 24                    4996 	.uleb128	36
      000224 00                    4997 	.db	0
      000225 03                    4998 	.uleb128	3
      000226 08                    4999 	.uleb128	8
      000227 0B                    5000 	.uleb128	11
      000228 0B                    5001 	.uleb128	11
      000229 3E                    5002 	.uleb128	62
      00022A 0B                    5003 	.uleb128	11
      00022B 00                    5004 	.uleb128	0
      00022C 00                    5005 	.uleb128	0
      00022D 00                    5006 	.uleb128	0
                                   5007 
                                   5008 	.area .debug_info (NOLOAD)
      00048A 00 00 0A FA           5009 	.dw	0,Ldebug_info_end-Ldebug_info_start
      00048E                       5010 Ldebug_info_start:
      00048E 00 02                 5011 	.dw	2
      000490 00 00 01 79           5012 	.dw	0,(Ldebug_abbrev)
      000494 04                    5013 	.db	4
      000495 01                    5014 	.uleb128	1
      000496 2E 2F 73 72 63 2F 73  5015 	.ascii "./src/stm8_hd44780.c"
             74 6D 38 5F 68 64 34
             34 37 38 30 2E 63
      0004AA 00                    5016 	.db	0
      0004AB 00 00 03 B6           5017 	.dw	0,(Ldebug_line_start+-4)
      0004AF 01                    5018 	.db	1
      0004B0 53 44 43 43 20 76 65  5019 	.ascii "SDCC version 4.1.0 #12072"
             72 73 69 6F 6E 20 34
             2E 31 2E 30 20 23 31
             32 30 37 32
      0004C9 00                    5020 	.db	0
      0004CA 02                    5021 	.uleb128	2
      0004CB 00 00 00 78           5022 	.dw	0,120
      0004CF 5F 64 65 6C 61 79 5F  5023 	.ascii "_delay_cycl"
             63 79 63 6C
      0004DA 00                    5024 	.db	0
      0004DB 00 00 82 72           5025 	.dw	0,(__delay_cycl)
      0004DF 00 00 82 7F           5026 	.dw	0,(XFstm8_hd44780$_delay_cycl$0$0+1)
      0004E3 00                    5027 	.db	0
      0004E4 00 00 12 F4           5028 	.dw	0,(Ldebug_loc_start+3636)
      0004E8 03                    5029 	.uleb128	3
      0004E9 02                    5030 	.db	2
      0004EA 91                    5031 	.db	145
      0004EB 02                    5032 	.sleb128	2
      0004EC 5F 5F 74 69 63 6B 73  5033 	.ascii "__ticks"
      0004F3 00                    5034 	.db	0
      0004F4 00 00 00 78           5035 	.dw	0,120
      0004F8 04                    5036 	.uleb128	4
      0004F9 00 00 82 76           5037 	.dw	0,(Sstm8_hd44780$_delay_cycl$4)
      0004FD 00 00 82 77           5038 	.dw	0,(Sstm8_hd44780$_delay_cycl$6)
      000501 00                    5039 	.uleb128	0
      000502 05                    5040 	.uleb128	5
      000503 75 6E 73 69 67 6E 65  5041 	.ascii "unsigned int"
             64 20 69 6E 74
      00050F 00                    5042 	.db	0
      000510 02                    5043 	.db	2
      000511 07                    5044 	.db	7
      000512 02                    5045 	.uleb128	2
      000513 00 00 01 0F           5046 	.dw	0,271
      000517 5F 64 65 6C 61 79 5F  5047 	.ascii "_delay_us"
             75 73
      000520 00                    5048 	.db	0
      000521 00 00 82 7F           5049 	.dw	0,(__delay_us)
      000525 00 00 82 B7           5050 	.dw	0,(XFstm8_hd44780$_delay_us$0$0+1)
      000529 00                    5051 	.db	0
      00052A 00 00 12 38           5052 	.dw	0,(Ldebug_loc_start+3448)
      00052E 06                    5053 	.uleb128	6
      00052F 00 00 00 78           5054 	.dw	0,120
      000533 03                    5055 	.uleb128	3
      000534 02                    5056 	.db	2
      000535 91                    5057 	.db	145
      000536 02                    5058 	.sleb128	2
      000537 5F 5F 75 73           5059 	.ascii "__us"
      00053B 00                    5060 	.db	0
      00053C 00 00 00 A4           5061 	.dw	0,164
      000540 07                    5062 	.uleb128	7
      000541 00 00 82 7F           5063 	.dw	0,(Sstm8_hd44780$_delay_us$14)
      000545 00 00 82 AB           5064 	.dw	0,(Sstm8_hd44780$_delay_us$31)
      000549 08                    5065 	.uleb128	8
      00054A 00 00 00 F4           5066 	.dw	0,244
      00054E 00 00 82 AC           5067 	.dw	0,(Sstm8_hd44780$_delay_us$32)
      000552 09                    5068 	.uleb128	9
      000553 00 00 00 DF           5069 	.dw	0,223
      000557 00 00 82 AC           5070 	.dw	0,(Sstm8_hd44780$_delay_us$33)
      00055B 00 00 82 B6           5071 	.dw	0,(Sstm8_hd44780$_delay_us$38)
      00055F 04                    5072 	.uleb128	4
      000560 00 00 82 AE           5073 	.dw	0,(Sstm8_hd44780$_delay_us$36)
      000564 00 00 82 AF           5074 	.dw	0,(Sstm8_hd44780$_delay_us$37)
      000568 00                    5075 	.uleb128	0
      000569 0A                    5076 	.uleb128	10
      00056A 06                    5077 	.db	6
      00056B 52                    5078 	.db	82
      00056C 93                    5079 	.db	147
      00056D 01                    5080 	.uleb128	1
      00056E 51                    5081 	.db	81
      00056F 93                    5082 	.db	147
      000570 01                    5083 	.uleb128	1
      000571 5F 5F 74 69 63 6B 73  5084 	.ascii "__ticks"
      000578 00                    5085 	.db	0
      000579 00 00 00 78           5086 	.dw	0,120
      00057D 00                    5087 	.uleb128	0
      00057E 0A                    5088 	.uleb128	10
      00057F 06                    5089 	.db	6
      000580 52                    5090 	.db	82
      000581 93                    5091 	.db	147
      000582 01                    5092 	.uleb128	1
      000583 51                    5093 	.db	81
      000584 93                    5094 	.db	147
      000585 01                    5095 	.uleb128	1
      000586 5F 5F 31 33 31 30 37  5096 	.ascii "__1310720010"
             32 30 30 31 30
      000592 00                    5097 	.db	0
      000593 00 00 00 78           5098 	.dw	0,120
      000597 00                    5099 	.uleb128	0
      000598 00                    5100 	.uleb128	0
      000599 02                    5101 	.uleb128	2
      00059A 00 00 01 68           5102 	.dw	0,360
      00059E 6C 63 64 5F 73 74 6F  5103 	.ascii "lcd_store_symbol"
             72 65 5F 73 79 6D 62
             6F 6C
      0005AE 00                    5104 	.db	0
      0005AF 00 00 82 B7           5105 	.dw	0,(_lcd_store_symbol)
      0005B3 00 00 82 EF           5106 	.dw	0,(XG$lcd_store_symbol$0$0+1)
      0005B7 01                    5107 	.db	1
      0005B8 00 00 11 C4           5108 	.dw	0,(Ldebug_loc_start+3332)
      0005BC 03                    5109 	.uleb128	3
      0005BD 02                    5110 	.db	2
      0005BE 91                    5111 	.db	145
      0005BF 02                    5112 	.sleb128	2
      0005C0 70 6F 73              5113 	.ascii "pos"
      0005C3 00                    5114 	.db	0
      0005C4 00 00 01 68           5115 	.dw	0,360
      0005C8 0B                    5116 	.uleb128	11
      0005C9 02                    5117 	.db	2
      0005CA 00 00 01 68           5118 	.dw	0,360
      0005CE 03                    5119 	.uleb128	3
      0005CF 02                    5120 	.db	2
      0005D0 91                    5121 	.db	145
      0005D1 03                    5122 	.sleb128	3
      0005D2 63 68 61 72 6D 61 70  5123 	.ascii "charmap"
      0005D9 00                    5124 	.db	0
      0005DA 00 00 01 3E           5125 	.dw	0,318
      0005DE 04                    5126 	.uleb128	4
      0005DF 00 00 82 CF           5127 	.dw	0,(Sstm8_hd44780$lcd_store_symbol$51)
      0005E3 00 00 82 DC           5128 	.dw	0,(Sstm8_hd44780$lcd_store_symbol$55)
      0005E7 0A                    5129 	.uleb128	10
      0005E8 02                    5130 	.db	2
      0005E9 91                    5131 	.db	145
      0005EA 00                    5132 	.sleb128	0
      0005EB 69                    5133 	.ascii "i"
      0005EC 00                    5134 	.db	0
      0005ED 00 00 01 68           5135 	.dw	0,360
      0005F1 00                    5136 	.uleb128	0
      0005F2 05                    5137 	.uleb128	5
      0005F3 75 6E 73 69 67 6E 65  5138 	.ascii "unsigned char"
             64 20 63 68 61 72
      000600 00                    5139 	.db	0
      000601 01                    5140 	.db	1
      000602 08                    5141 	.db	8
      000603 02                    5142 	.uleb128	2
      000604 00 00 01 AB           5143 	.dw	0,427
      000608 6C 63 64 5F 70 75 74  5144 	.ascii "lcd_puts"
             73
      000610 00                    5145 	.db	0
      000611 00 00 82 EF           5146 	.dw	0,(_lcd_puts)
      000615 00 00 83 04           5147 	.dw	0,(XG$lcd_puts$0$0+1)
      000619 01                    5148 	.db	1
      00061A 00 00 11 80           5149 	.dw	0,(Ldebug_loc_start+3264)
      00061E 03                    5150 	.uleb128	3
      00061F 02                    5151 	.db	2
      000620 91                    5152 	.db	145
      000621 02                    5153 	.sleb128	2
      000622 74 65 78 74           5154 	.ascii "text"
      000626 00                    5155 	.db	0
      000627 00 00 01 3E           5156 	.dw	0,318
      00062B 04                    5157 	.uleb128	4
      00062C 00 00 82 F8           5158 	.dw	0,(Sstm8_hd44780$lcd_puts$67)
      000630 00 00 83 00           5159 	.dw	0,(Sstm8_hd44780$lcd_puts$74)
      000634 00                    5160 	.uleb128	0
      000635 02                    5161 	.uleb128	2
      000636 00 00 03 C3           5162 	.dw	0,963
      00063A 6C 63 64 5F 69 6E 69  5163 	.ascii "lcd_init"
             74
      000642 00                    5164 	.db	0
      000643 00 00 83 04           5165 	.dw	0,(_lcd_init)
      000647 00 00 83 87           5166 	.dw	0,(XG$lcd_init$0$0+1)
      00064B 01                    5167 	.db	1
      00064C 00 00 10 7C           5168 	.dw	0,(Ldebug_loc_start+3004)
      000650 0C                    5169 	.uleb128	12
      000651 00 00 02 46           5170 	.dw	0,582
      000655 0C                    5171 	.uleb128	12
      000656 00 00 02 30           5172 	.dw	0,560
      00065A 0C                    5173 	.uleb128	12
      00065B 00 00 02 22           5174 	.dw	0,546
      00065F 0D                    5175 	.uleb128	13
      000660 08                    5176 	.uleb128	8
      000661 00 00 02 0B           5177 	.dw	0,523
      000665 00 00 83 0A           5178 	.dw	0,(Sstm8_hd44780$lcd_init$82)
      000669 09                    5179 	.uleb128	9
      00066A 00 00 01 F6           5180 	.dw	0,502
      00066E 00 00 83 0D           5181 	.dw	0,(Sstm8_hd44780$lcd_init$83)
      000672 00 00 83 17           5182 	.dw	0,(Sstm8_hd44780$lcd_init$88)
      000676 04                    5183 	.uleb128	4
      000677 00 00 83 0F           5184 	.dw	0,(Sstm8_hd44780$lcd_init$86)
      00067B 00 00 83 10           5185 	.dw	0,(Sstm8_hd44780$lcd_init$87)
      00067F 00                    5186 	.uleb128	0
      000680 0A                    5187 	.uleb128	10
      000681 06                    5188 	.db	6
      000682 52                    5189 	.db	82
      000683 93                    5190 	.db	147
      000684 01                    5191 	.uleb128	1
      000685 51                    5192 	.db	81
      000686 93                    5193 	.db	147
      000687 01                    5194 	.uleb128	1
      000688 5F 5F 74 69 63 6B 73  5195 	.ascii "__ticks"
      00068F 00                    5196 	.db	0
      000690 00 00 00 78           5197 	.dw	0,120
      000694 00                    5198 	.uleb128	0
      000695 0A                    5199 	.uleb128	10
      000696 02                    5200 	.db	2
      000697 91                    5201 	.db	145
      000698 00                    5202 	.sleb128	0
      000699 5F 5F 31 33 31 30 37  5203 	.ascii "__1310720010"
             32 30 30 31 30
      0006A5 00                    5204 	.db	0
      0006A6 00 00 00 78           5205 	.dw	0,120
      0006AA 00                    5206 	.uleb128	0
      0006AB 00                    5207 	.uleb128	0
      0006AC 0A                    5208 	.uleb128	10
      0006AD 02                    5209 	.db	2
      0006AE 91                    5210 	.db	145
      0006AF 00                    5211 	.sleb128	0
      0006B0 5F 5F 75 73           5212 	.ascii "__us"
      0006B4 00                    5213 	.db	0
      0006B5 00 00 00 A4           5214 	.dw	0,164
      0006B9 00                    5215 	.uleb128	0
      0006BA 0A                    5216 	.uleb128	10
      0006BB 02                    5217 	.db	2
      0006BC 91                    5218 	.db	145
      0006BD 00                    5219 	.sleb128	0
      0006BE 5F 5F 31 33 31 30 37  5220 	.ascii "__1310720012"
             32 30 30 31 32
      0006CA 00                    5221 	.db	0
      0006CB 00 00 00 A4           5222 	.dw	0,164
      0006CF 00                    5223 	.uleb128	0
      0006D0 0C                    5224 	.uleb128	12
      0006D1 00 00 02 C6           5225 	.dw	0,710
      0006D5 0C                    5226 	.uleb128	12
      0006D6 00 00 02 B0           5227 	.dw	0,688
      0006DA 0C                    5228 	.uleb128	12
      0006DB 00 00 02 A2           5229 	.dw	0,674
      0006DF 0D                    5230 	.uleb128	13
      0006E0 08                    5231 	.uleb128	8
      0006E1 00 00 02 8B           5232 	.dw	0,651
      0006E5 00 00 83 20           5233 	.dw	0,(Sstm8_hd44780$lcd_init$93)
      0006E9 09                    5234 	.uleb128	9
      0006EA 00 00 02 76           5235 	.dw	0,630
      0006EE 00 00 83 23           5236 	.dw	0,(Sstm8_hd44780$lcd_init$94)
      0006F2 00 00 83 2D           5237 	.dw	0,(Sstm8_hd44780$lcd_init$99)
      0006F6 04                    5238 	.uleb128	4
      0006F7 00 00 83 25           5239 	.dw	0,(Sstm8_hd44780$lcd_init$97)
      0006FB 00 00 83 26           5240 	.dw	0,(Sstm8_hd44780$lcd_init$98)
      0006FF 00                    5241 	.uleb128	0
      000700 0A                    5242 	.uleb128	10
      000701 06                    5243 	.db	6
      000702 52                    5244 	.db	82
      000703 93                    5245 	.db	147
      000704 01                    5246 	.uleb128	1
      000705 51                    5247 	.db	81
      000706 93                    5248 	.db	147
      000707 01                    5249 	.uleb128	1
      000708 5F 5F 74 69 63 6B 73  5250 	.ascii "__ticks"
      00070F 00                    5251 	.db	0
      000710 00 00 00 78           5252 	.dw	0,120
      000714 00                    5253 	.uleb128	0
      000715 0A                    5254 	.uleb128	10
      000716 02                    5255 	.db	2
      000717 91                    5256 	.db	145
      000718 00                    5257 	.sleb128	0
      000719 5F 5F 31 33 31 30 37  5258 	.ascii "__1310720010"
             32 30 30 31 30
      000725 00                    5259 	.db	0
      000726 00 00 00 78           5260 	.dw	0,120
      00072A 00                    5261 	.uleb128	0
      00072B 00                    5262 	.uleb128	0
      00072C 0A                    5263 	.uleb128	10
      00072D 02                    5264 	.db	2
      00072E 91                    5265 	.db	145
      00072F 00                    5266 	.sleb128	0
      000730 5F 5F 75 73           5267 	.ascii "__us"
      000734 00                    5268 	.db	0
      000735 00 00 00 A4           5269 	.dw	0,164
      000739 00                    5270 	.uleb128	0
      00073A 0A                    5271 	.uleb128	10
      00073B 02                    5272 	.db	2
      00073C 91                    5273 	.db	145
      00073D 00                    5274 	.sleb128	0
      00073E 5F 5F 31 33 31 30 37  5275 	.ascii "__1310720014"
             32 30 30 31 34
      00074A 00                    5276 	.db	0
      00074B 00 00 00 A4           5277 	.dw	0,164
      00074F 00                    5278 	.uleb128	0
      000750 0C                    5279 	.uleb128	12
      000751 00 00 03 46           5280 	.dw	0,838
      000755 0C                    5281 	.uleb128	12
      000756 00 00 03 30           5282 	.dw	0,816
      00075A 0C                    5283 	.uleb128	12
      00075B 00 00 03 22           5284 	.dw	0,802
      00075F 0D                    5285 	.uleb128	13
      000760 08                    5286 	.uleb128	8
      000761 00 00 03 0B           5287 	.dw	0,779
      000765 00 00 83 36           5288 	.dw	0,(Sstm8_hd44780$lcd_init$104)
      000769 09                    5289 	.uleb128	9
      00076A 00 00 02 F6           5290 	.dw	0,758
      00076E 00 00 83 39           5291 	.dw	0,(Sstm8_hd44780$lcd_init$105)
      000772 00 00 83 43           5292 	.dw	0,(Sstm8_hd44780$lcd_init$110)
      000776 04                    5293 	.uleb128	4
      000777 00 00 83 3B           5294 	.dw	0,(Sstm8_hd44780$lcd_init$108)
      00077B 00 00 83 3C           5295 	.dw	0,(Sstm8_hd44780$lcd_init$109)
      00077F 00                    5296 	.uleb128	0
      000780 0A                    5297 	.uleb128	10
      000781 06                    5298 	.db	6
      000782 52                    5299 	.db	82
      000783 93                    5300 	.db	147
      000784 01                    5301 	.uleb128	1
      000785 51                    5302 	.db	81
      000786 93                    5303 	.db	147
      000787 01                    5304 	.uleb128	1
      000788 5F 5F 74 69 63 6B 73  5305 	.ascii "__ticks"
      00078F 00                    5306 	.db	0
      000790 00 00 00 78           5307 	.dw	0,120
      000794 00                    5308 	.uleb128	0
      000795 0A                    5309 	.uleb128	10
      000796 02                    5310 	.db	2
      000797 91                    5311 	.db	145
      000798 00                    5312 	.sleb128	0
      000799 5F 5F 31 33 31 30 37  5313 	.ascii "__1310720010"
             32 30 30 31 30
      0007A5 00                    5314 	.db	0
      0007A6 00 00 00 78           5315 	.dw	0,120
      0007AA 00                    5316 	.uleb128	0
      0007AB 00                    5317 	.uleb128	0
      0007AC 0A                    5318 	.uleb128	10
      0007AD 02                    5319 	.db	2
      0007AE 91                    5320 	.db	145
      0007AF 00                    5321 	.sleb128	0
      0007B0 5F 5F 75 73           5322 	.ascii "__us"
      0007B4 00                    5323 	.db	0
      0007B5 00 00 00 A4           5324 	.dw	0,164
      0007B9 00                    5325 	.uleb128	0
      0007BA 0A                    5326 	.uleb128	10
      0007BB 02                    5327 	.db	2
      0007BC 91                    5328 	.db	145
      0007BD 00                    5329 	.sleb128	0
      0007BE 5F 5F 31 33 31 30 37  5330 	.ascii "__1310720016"
             32 30 30 31 36
      0007CA 00                    5331 	.db	0
      0007CB 00 00 00 A4           5332 	.dw	0,164
      0007CF 00                    5333 	.uleb128	0
      0007D0 0D                    5334 	.uleb128	13
      0007D1 0C                    5335 	.uleb128	12
      0007D2 00 00 03 AC           5336 	.dw	0,940
      0007D6 0C                    5337 	.uleb128	12
      0007D7 00 00 03 9E           5338 	.dw	0,926
      0007DB 0D                    5339 	.uleb128	13
      0007DC 08                    5340 	.uleb128	8
      0007DD 00 00 03 87           5341 	.dw	0,903
      0007E1 00 00 83 55           5342 	.dw	0,(Sstm8_hd44780$lcd_init$119)
      0007E5 09                    5343 	.uleb128	9
      0007E6 00 00 03 72           5344 	.dw	0,882
      0007EA 00 00 83 58           5345 	.dw	0,(Sstm8_hd44780$lcd_init$120)
      0007EE 00 00 83 62           5346 	.dw	0,(Sstm8_hd44780$lcd_init$125)
      0007F2 04                    5347 	.uleb128	4
      0007F3 00 00 83 5A           5348 	.dw	0,(Sstm8_hd44780$lcd_init$123)
      0007F7 00 00 83 5B           5349 	.dw	0,(Sstm8_hd44780$lcd_init$124)
      0007FB 00                    5350 	.uleb128	0
      0007FC 0A                    5351 	.uleb128	10
      0007FD 06                    5352 	.db	6
      0007FE 52                    5353 	.db	82
      0007FF 93                    5354 	.db	147
      000800 01                    5355 	.uleb128	1
      000801 51                    5356 	.db	81
      000802 93                    5357 	.db	147
      000803 01                    5358 	.uleb128	1
      000804 5F 5F 74 69 63 6B 73  5359 	.ascii "__ticks"
      00080B 00                    5360 	.db	0
      00080C 00 00 00 78           5361 	.dw	0,120
      000810 00                    5362 	.uleb128	0
      000811 0A                    5363 	.uleb128	10
      000812 02                    5364 	.db	2
      000813 91                    5365 	.db	145
      000814 00                    5366 	.sleb128	0
      000815 5F 5F 31 33 31 30 37  5367 	.ascii "__1310720010"
             32 30 30 31 30
      000821 00                    5368 	.db	0
      000822 00 00 00 78           5369 	.dw	0,120
      000826 00                    5370 	.uleb128	0
      000827 00                    5371 	.uleb128	0
      000828 0A                    5372 	.uleb128	10
      000829 02                    5373 	.db	2
      00082A 91                    5374 	.db	145
      00082B 00                    5375 	.sleb128	0
      00082C 5F 5F 75 73           5376 	.ascii "__us"
      000830 00                    5377 	.db	0
      000831 00 00 00 A4           5378 	.dw	0,164
      000835 00                    5379 	.uleb128	0
      000836 0A                    5380 	.uleb128	10
      000837 02                    5381 	.db	2
      000838 91                    5382 	.db	145
      000839 00                    5383 	.sleb128	0
      00083A 5F 5F 31 33 31 30 37  5384 	.ascii "__1310720018"
             32 30 30 31 38
      000846 00                    5385 	.db	0
      000847 00 00 00 A4           5386 	.dw	0,164
      00084B 00                    5387 	.uleb128	0
      00084C 00                    5388 	.uleb128	0
      00084D 02                    5389 	.uleb128	2
      00084E 00 00 04 23           5390 	.dw	0,1059
      000852 6C 63 64 5F 67 6F 74  5391 	.ascii "lcd_gotoxy"
             6F 78 79
      00085C 00                    5392 	.db	0
      00085D 00 00 83 87           5393 	.dw	0,(_lcd_gotoxy)
      000861 00 00 83 B9           5394 	.dw	0,(XG$lcd_gotoxy$0$0+1)
      000865 01                    5395 	.db	1
      000866 00 00 10 44           5396 	.dw	0,(Ldebug_loc_start+2948)
      00086A 03                    5397 	.uleb128	3
      00086B 02                    5398 	.db	2
      00086C 91                    5399 	.db	145
      00086D 02                    5400 	.sleb128	2
      00086E 63 6F 6C 75 6D 6E     5401 	.ascii "column"
      000874 00                    5402 	.db	0
      000875 00 00 01 68           5403 	.dw	0,360
      000879 03                    5404 	.uleb128	3
      00087A 02                    5405 	.db	2
      00087B 91                    5406 	.db	145
      00087C 03                    5407 	.sleb128	3
      00087D 6C 69 6E 65           5408 	.ascii "line"
      000881 00                    5409 	.db	0
      000882 00 00 01 68           5410 	.dw	0,360
      000886 04                    5411 	.uleb128	4
      000887 00 00 83 91           5412 	.dw	0,(Sstm8_hd44780$lcd_gotoxy$151)
      00088B 00 00 83 95           5413 	.dw	0,(Sstm8_hd44780$lcd_gotoxy$152)
      00088F 04                    5414 	.uleb128	4
      000890 00 00 83 9C           5415 	.dw	0,(Sstm8_hd44780$lcd_gotoxy$154)
      000894 00 00 83 9D           5416 	.dw	0,(Sstm8_hd44780$lcd_gotoxy$155)
      000898 04                    5417 	.uleb128	4
      000899 00 00 83 AB           5418 	.dw	0,(Sstm8_hd44780$lcd_gotoxy$158)
      00089D 00 00 83 AE           5419 	.dw	0,(Sstm8_hd44780$lcd_gotoxy$159)
      0008A1 0A                    5420 	.uleb128	10
      0008A2 01                    5421 	.db	1
      0008A3 50                    5422 	.db	80
      0008A4 74 6D 70              5423 	.ascii "tmp"
      0008A7 00                    5424 	.db	0
      0008A8 00 00 01 68           5425 	.dw	0,360
      0008AC 00                    5426 	.uleb128	0
      0008AD 0E                    5427 	.uleb128	14
      0008AE 6C 63 64 5F 69 6E 69  5428 	.ascii "lcd_init_hw"
             74 5F 68 77
      0008B9 00                    5429 	.db	0
      0008BA 00 00 83 B9           5430 	.dw	0,(_lcd_init_hw)
      0008BE 00 00 83 E4           5431 	.dw	0,(XG$lcd_init_hw$0$0+1)
      0008C2 01                    5432 	.db	1
      0008C3 00 00 0F 7C           5433 	.dw	0,(Ldebug_loc_start+2748)
      0008C7 0E                    5434 	.uleb128	14
      0008C8 6C 63 64 5F 62 75 73  5435 	.ascii "lcd_bus_outputs"
             5F 6F 75 74 70 75 74
             73
      0008D7 00                    5436 	.db	0
      0008D8 00 00 83 E4           5437 	.dw	0,(_lcd_bus_outputs)
      0008DC 00 00 84 19           5438 	.dw	0,(XG$lcd_bus_outputs$0$0+1)
      0008E0 01                    5439 	.db	1
      0008E1 00 00 0E 78           5440 	.dw	0,(Ldebug_loc_start+2488)
      0008E5 0E                    5441 	.uleb128	14
      0008E6 6C 63 64 5F 62 75 73  5442 	.ascii "lcd_bus_inputs"
             5F 69 6E 70 75 74 73
      0008F4 00                    5443 	.db	0
      0008F5 00 00 84 19           5444 	.dw	0,(_lcd_bus_inputs)
      0008F9 00 00 84 4E           5445 	.dw	0,(XG$lcd_bus_inputs$0$0+1)
      0008FD 01                    5446 	.db	1
      0008FE 00 00 0D 74           5447 	.dw	0,(Ldebug_loc_start+2228)
      000902 0E                    5448 	.uleb128	14
      000903 6C 63 64 5F 64 65 69  5449 	.ascii "lcd_deinit_hw"
             6E 69 74 5F 68 77
      000910 00                    5450 	.db	0
      000911 00 00 84 4E           5451 	.dw	0,(_lcd_deinit_hw)
      000915 00 00 84 AA           5452 	.dw	0,(XG$lcd_deinit_hw$0$0+1)
      000919 01                    5453 	.db	1
      00091A 00 00 0B BC           5454 	.dw	0,(Ldebug_loc_start+1788)
      00091E 02                    5455 	.uleb128	2
      00091F 00 00 05 08           5456 	.dw	0,1288
      000923 6C 63 64 5F 62 75 73  5457 	.ascii "lcd_bus_set"
             5F 73 65 74
      00092E 00                    5458 	.db	0
      00092F 00 00 84 AA           5459 	.dw	0,(_lcd_bus_set)
      000933 00 00 85 32           5460 	.dw	0,(XG$lcd_bus_set$0$0+1)
      000937 01                    5461 	.db	1
      000938 00 00 0A 28           5462 	.dw	0,(Ldebug_loc_start+1384)
      00093C 03                    5463 	.uleb128	3
      00093D 02                    5464 	.db	2
      00093E 91                    5465 	.db	145
      00093F 02                    5466 	.sleb128	2
      000940 64 61 74 61           5467 	.ascii "data"
      000944 00                    5468 	.db	0
      000945 00 00 01 68           5469 	.dw	0,360
      000949 04                    5470 	.uleb128	4
      00094A 00 00 84 B2           5471 	.dw	0,(Sstm8_hd44780$lcd_bus_set$299)
      00094E 00 00 84 BD           5472 	.dw	0,(Sstm8_hd44780$lcd_bus_set$304)
      000952 04                    5473 	.uleb128	4
      000953 00 00 84 C0           5474 	.dw	0,(Sstm8_hd44780$lcd_bus_set$305)
      000957 00 00 84 CB           5475 	.dw	0,(Sstm8_hd44780$lcd_bus_set$310)
      00095B 04                    5476 	.uleb128	4
      00095C 00 00 84 D4           5477 	.dw	0,(Sstm8_hd44780$lcd_bus_set$312)
      000960 00 00 84 DF           5478 	.dw	0,(Sstm8_hd44780$lcd_bus_set$317)
      000964 04                    5479 	.uleb128	4
      000965 00 00 84 E2           5480 	.dw	0,(Sstm8_hd44780$lcd_bus_set$318)
      000969 00 00 84 ED           5481 	.dw	0,(Sstm8_hd44780$lcd_bus_set$323)
      00096D 04                    5482 	.uleb128	4
      00096E 00 00 84 F6           5483 	.dw	0,(Sstm8_hd44780$lcd_bus_set$325)
      000972 00 00 85 01           5484 	.dw	0,(Sstm8_hd44780$lcd_bus_set$330)
      000976 04                    5485 	.uleb128	4
      000977 00 00 85 04           5486 	.dw	0,(Sstm8_hd44780$lcd_bus_set$331)
      00097B 00 00 85 0F           5487 	.dw	0,(Sstm8_hd44780$lcd_bus_set$336)
      00097F 04                    5488 	.uleb128	4
      000980 00 00 85 18           5489 	.dw	0,(Sstm8_hd44780$lcd_bus_set$338)
      000984 00 00 85 23           5490 	.dw	0,(Sstm8_hd44780$lcd_bus_set$343)
      000988 04                    5491 	.uleb128	4
      000989 00 00 85 26           5492 	.dw	0,(Sstm8_hd44780$lcd_bus_set$344)
      00098D 00 00 85 31           5493 	.dw	0,(Sstm8_hd44780$lcd_bus_set$349)
      000991 00                    5494 	.uleb128	0
      000992 0F                    5495 	.uleb128	15
      000993 00 00 05 5C           5496 	.dw	0,1372
      000997 6C 63 64 5F 62 75 73  5497 	.ascii "lcd_bus_read"
             5F 72 65 61 64
      0009A3 00                    5498 	.db	0
      0009A4 00 00 85 32           5499 	.dw	0,(_lcd_bus_read)
      0009A8 00 00 85 95           5500 	.dw	0,(XG$lcd_bus_read$0$0+1)
      0009AC 01                    5501 	.db	1
      0009AD 00 00 09 3C           5502 	.dw	0,(Ldebug_loc_start+1148)
      0009B1 00 00 01 68           5503 	.dw	0,360
      0009B5 04                    5504 	.uleb128	4
      0009B6 00 00 85 46           5505 	.dw	0,(Sstm8_hd44780$lcd_bus_read$362)
      0009BA 00 00 85 4B           5506 	.dw	0,(Sstm8_hd44780$lcd_bus_read$363)
      0009BE 04                    5507 	.uleb128	4
      0009BF 00 00 85 5C           5508 	.dw	0,(Sstm8_hd44780$lcd_bus_read$369)
      0009C3 00 00 85 62           5509 	.dw	0,(Sstm8_hd44780$lcd_bus_read$370)
      0009C7 04                    5510 	.uleb128	4
      0009C8 00 00 85 73           5511 	.dw	0,(Sstm8_hd44780$lcd_bus_read$376)
      0009CC 00 00 85 79           5512 	.dw	0,(Sstm8_hd44780$lcd_bus_read$377)
      0009D0 04                    5513 	.uleb128	4
      0009D1 00 00 85 8A           5514 	.dw	0,(Sstm8_hd44780$lcd_bus_read$383)
      0009D5 00 00 85 90           5515 	.dw	0,(Sstm8_hd44780$lcd_bus_read$384)
      0009D9 0A                    5516 	.uleb128	10
      0009DA 02                    5517 	.db	2
      0009DB 91                    5518 	.db	145
      0009DC 7F                    5519 	.sleb128	-1
      0009DD 74 6D 70              5520 	.ascii "tmp"
      0009E0 00                    5521 	.db	0
      0009E1 00 00 01 68           5522 	.dw	0,360
      0009E5 00                    5523 	.uleb128	0
      0009E6 02                    5524 	.uleb128	2
      0009E7 00 00 06 76           5525 	.dw	0,1654
      0009EB 6C 63 64 5F 65 5F 74  5526 	.ascii "lcd_e_tick"
             69 63 6B
      0009F5 00                    5527 	.db	0
      0009F6 00 00 85 95           5528 	.dw	0,(_lcd_e_tick)
      0009FA 00 00 85 C6           5529 	.dw	0,(XG$lcd_e_tick$0$0+1)
      0009FE 01                    5530 	.db	1
      0009FF 00 00 08 C8           5531 	.dw	0,(Ldebug_loc_start+1032)
      000A03 0C                    5532 	.uleb128	12
      000A04 00 00 05 F9           5533 	.dw	0,1529
      000A08 0C                    5534 	.uleb128	12
      000A09 00 00 05 E3           5535 	.dw	0,1507
      000A0D 0C                    5536 	.uleb128	12
      000A0E 00 00 05 D5           5537 	.dw	0,1493
      000A12 0D                    5538 	.uleb128	13
      000A13 08                    5539 	.uleb128	8
      000A14 00 00 05 BE           5540 	.dw	0,1470
      000A18 00 00 85 A0           5541 	.dw	0,(Sstm8_hd44780$lcd_e_tick$397)
      000A1C 09                    5542 	.uleb128	9
      000A1D 00 00 05 A9           5543 	.dw	0,1449
      000A21 00 00 85 A3           5544 	.dw	0,(Sstm8_hd44780$lcd_e_tick$398)
      000A25 00 00 85 AD           5545 	.dw	0,(Sstm8_hd44780$lcd_e_tick$403)
      000A29 04                    5546 	.uleb128	4
      000A2A 00 00 85 A5           5547 	.dw	0,(Sstm8_hd44780$lcd_e_tick$401)
      000A2E 00 00 85 A6           5548 	.dw	0,(Sstm8_hd44780$lcd_e_tick$402)
      000A32 00                    5549 	.uleb128	0
      000A33 0A                    5550 	.uleb128	10
      000A34 06                    5551 	.db	6
      000A35 52                    5552 	.db	82
      000A36 93                    5553 	.db	147
      000A37 01                    5554 	.uleb128	1
      000A38 51                    5555 	.db	81
      000A39 93                    5556 	.db	147
      000A3A 01                    5557 	.uleb128	1
      000A3B 5F 5F 74 69 63 6B 73  5558 	.ascii "__ticks"
      000A42 00                    5559 	.db	0
      000A43 00 00 00 78           5560 	.dw	0,120
      000A47 00                    5561 	.uleb128	0
      000A48 0A                    5562 	.uleb128	10
      000A49 02                    5563 	.db	2
      000A4A 91                    5564 	.db	145
      000A4B 00                    5565 	.sleb128	0
      000A4C 5F 5F 31 33 31 30 37  5566 	.ascii "__1310720010"
             32 30 30 31 30
      000A58 00                    5567 	.db	0
      000A59 00 00 00 78           5568 	.dw	0,120
      000A5D 00                    5569 	.uleb128	0
      000A5E 00                    5570 	.uleb128	0
      000A5F 0A                    5571 	.uleb128	10
      000A60 02                    5572 	.db	2
      000A61 91                    5573 	.db	145
      000A62 00                    5574 	.sleb128	0
      000A63 5F 5F 75 73           5575 	.ascii "__us"
      000A67 00                    5576 	.db	0
      000A68 00 00 00 A4           5577 	.dw	0,164
      000A6C 00                    5578 	.uleb128	0
      000A6D 0A                    5579 	.uleb128	10
      000A6E 02                    5580 	.db	2
      000A6F 91                    5581 	.db	145
      000A70 00                    5582 	.sleb128	0
      000A71 5F 5F 31 33 31 30 37  5583 	.ascii "__1310720020"
             32 30 30 32 30
      000A7D 00                    5584 	.db	0
      000A7E 00 00 00 A4           5585 	.dw	0,164
      000A82 00                    5586 	.uleb128	0
      000A83 0D                    5587 	.uleb128	13
      000A84 0C                    5588 	.uleb128	12
      000A85 00 00 06 5F           5589 	.dw	0,1631
      000A89 0C                    5590 	.uleb128	12
      000A8A 00 00 06 51           5591 	.dw	0,1617
      000A8E 0D                    5592 	.uleb128	13
      000A8F 08                    5593 	.uleb128	8
      000A90 00 00 06 3A           5594 	.dw	0,1594
      000A94 00 00 85 B8           5595 	.dw	0,(Sstm8_hd44780$lcd_e_tick$409)
      000A98 09                    5596 	.uleb128	9
      000A99 00 00 06 25           5597 	.dw	0,1573
      000A9D 00 00 85 BB           5598 	.dw	0,(Sstm8_hd44780$lcd_e_tick$410)
      000AA1 00 00 85 C5           5599 	.dw	0,(Sstm8_hd44780$lcd_e_tick$415)
      000AA5 04                    5600 	.uleb128	4
      000AA6 00 00 85 BD           5601 	.dw	0,(Sstm8_hd44780$lcd_e_tick$413)
      000AAA 00 00 85 BE           5602 	.dw	0,(Sstm8_hd44780$lcd_e_tick$414)
      000AAE 00                    5603 	.uleb128	0
      000AAF 0A                    5604 	.uleb128	10
      000AB0 06                    5605 	.db	6
      000AB1 52                    5606 	.db	82
      000AB2 93                    5607 	.db	147
      000AB3 01                    5608 	.uleb128	1
      000AB4 51                    5609 	.db	81
      000AB5 93                    5610 	.db	147
      000AB6 01                    5611 	.uleb128	1
      000AB7 5F 5F 74 69 63 6B 73  5612 	.ascii "__ticks"
      000ABE 00                    5613 	.db	0
      000ABF 00 00 00 78           5614 	.dw	0,120
      000AC3 00                    5615 	.uleb128	0
      000AC4 0A                    5616 	.uleb128	10
      000AC5 02                    5617 	.db	2
      000AC6 91                    5618 	.db	145
      000AC7 00                    5619 	.sleb128	0
      000AC8 5F 5F 31 33 31 30 37  5620 	.ascii "__1310720010"
             32 30 30 31 30
      000AD4 00                    5621 	.db	0
      000AD5 00 00 00 78           5622 	.dw	0,120
      000AD9 00                    5623 	.uleb128	0
      000ADA 00                    5624 	.uleb128	0
      000ADB 0A                    5625 	.uleb128	10
      000ADC 02                    5626 	.db	2
      000ADD 91                    5627 	.db	145
      000ADE 00                    5628 	.sleb128	0
      000ADF 5F 5F 75 73           5629 	.ascii "__us"
      000AE3 00                    5630 	.db	0
      000AE4 00 00 00 A4           5631 	.dw	0,164
      000AE8 00                    5632 	.uleb128	0
      000AE9 0A                    5633 	.uleb128	10
      000AEA 02                    5634 	.db	2
      000AEB 91                    5635 	.db	145
      000AEC 00                    5636 	.sleb128	0
      000AED 5F 5F 31 33 31 30 37  5637 	.ascii "__1310720022"
             32 30 30 32 32
      000AF9 00                    5638 	.db	0
      000AFA 00 00 00 A4           5639 	.dw	0,164
      000AFE 00                    5640 	.uleb128	0
      000AFF 00                    5641 	.uleb128	0
      000B00 02                    5642 	.uleb128	2
      000B01 00 00 07 21           5643 	.dw	0,1825
      000B05 6C 63 64 5F 63 6F 6D  5644 	.ascii "lcd_command"
             6D 61 6E 64
      000B10 00                    5645 	.db	0
      000B11 00 00 85 C6           5646 	.dw	0,(_lcd_command)
      000B15 00 00 85 FD           5647 	.dw	0,(XG$lcd_command$0$0+1)
      000B19 01                    5648 	.db	1
      000B1A 00 00 08 54           5649 	.dw	0,(Ldebug_loc_start+916)
      000B1E 03                    5650 	.uleb128	3
      000B1F 02                    5651 	.db	2
      000B20 91                    5652 	.db	145
      000B21 02                    5653 	.sleb128	2
      000B22 63 6F 6D 6D 61 6E 64  5654 	.ascii "command"
      000B29 00                    5655 	.db	0
      000B2A 00 00 01 68           5656 	.dw	0,360
      000B2E 0D                    5657 	.uleb128	13
      000B2F 0C                    5658 	.uleb128	12
      000B30 00 00 07 0A           5659 	.dw	0,1802
      000B34 0C                    5660 	.uleb128	12
      000B35 00 00 06 FC           5661 	.dw	0,1788
      000B39 0D                    5662 	.uleb128	13
      000B3A 08                    5663 	.uleb128	8
      000B3B 00 00 06 E5           5664 	.dw	0,1765
      000B3F 00 00 85 D1           5665 	.dw	0,(Sstm8_hd44780$lcd_command$427)
      000B43 09                    5666 	.uleb128	9
      000B44 00 00 06 D0           5667 	.dw	0,1744
      000B48 00 00 85 D4           5668 	.dw	0,(Sstm8_hd44780$lcd_command$428)
      000B4C 00 00 85 DE           5669 	.dw	0,(Sstm8_hd44780$lcd_command$433)
      000B50 04                    5670 	.uleb128	4
      000B51 00 00 85 D6           5671 	.dw	0,(Sstm8_hd44780$lcd_command$431)
      000B55 00 00 85 D7           5672 	.dw	0,(Sstm8_hd44780$lcd_command$432)
      000B59 00                    5673 	.uleb128	0
      000B5A 0A                    5674 	.uleb128	10
      000B5B 06                    5675 	.db	6
      000B5C 52                    5676 	.db	82
      000B5D 93                    5677 	.db	147
      000B5E 01                    5678 	.uleb128	1
      000B5F 51                    5679 	.db	81
      000B60 93                    5680 	.db	147
      000B61 01                    5681 	.uleb128	1
      000B62 5F 5F 74 69 63 6B 73  5682 	.ascii "__ticks"
      000B69 00                    5683 	.db	0
      000B6A 00 00 00 78           5684 	.dw	0,120
      000B6E 00                    5685 	.uleb128	0
      000B6F 0A                    5686 	.uleb128	10
      000B70 02                    5687 	.db	2
      000B71 91                    5688 	.db	145
      000B72 00                    5689 	.sleb128	0
      000B73 5F 5F 31 33 31 30 37  5690 	.ascii "__1310720010"
             32 30 30 31 30
      000B7F 00                    5691 	.db	0
      000B80 00 00 00 78           5692 	.dw	0,120
      000B84 00                    5693 	.uleb128	0
      000B85 00                    5694 	.uleb128	0
      000B86 0A                    5695 	.uleb128	10
      000B87 02                    5696 	.db	2
      000B88 91                    5697 	.db	145
      000B89 00                    5698 	.sleb128	0
      000B8A 5F 5F 75 73           5699 	.ascii "__us"
      000B8E 00                    5700 	.db	0
      000B8F 00 00 00 A4           5701 	.dw	0,164
      000B93 00                    5702 	.uleb128	0
      000B94 0A                    5703 	.uleb128	10
      000B95 02                    5704 	.db	2
      000B96 91                    5705 	.db	145
      000B97 00                    5706 	.sleb128	0
      000B98 5F 5F 31 33 31 30 37  5707 	.ascii "__1310720024"
             32 30 30 32 34
      000BA4 00                    5708 	.db	0
      000BA5 00 00 00 A4           5709 	.dw	0,164
      000BA9 00                    5710 	.uleb128	0
      000BAA 00                    5711 	.uleb128	0
      000BAB 02                    5712 	.uleb128	2
      000BAC 00 00 07 C6           5713 	.dw	0,1990
      000BB0 6C 63 64 5F 64 61 74  5714 	.ascii "lcd_data"
             61
      000BB8 00                    5715 	.db	0
      000BB9 00 00 85 FD           5716 	.dw	0,(_lcd_data)
      000BBD 00 00 86 34           5717 	.dw	0,(XG$lcd_data$0$0+1)
      000BC1 01                    5718 	.db	1
      000BC2 00 00 07 E0           5719 	.dw	0,(Ldebug_loc_start+800)
      000BC6 03                    5720 	.uleb128	3
      000BC7 02                    5721 	.db	2
      000BC8 91                    5722 	.db	145
      000BC9 02                    5723 	.sleb128	2
      000BCA 64 61 74 61           5724 	.ascii "data"
      000BCE 00                    5725 	.db	0
      000BCF 00 00 01 68           5726 	.dw	0,360
      000BD3 0D                    5727 	.uleb128	13
      000BD4 0C                    5728 	.uleb128	12
      000BD5 00 00 07 AF           5729 	.dw	0,1967
      000BD9 0C                    5730 	.uleb128	12
      000BDA 00 00 07 A1           5731 	.dw	0,1953
      000BDE 0D                    5732 	.uleb128	13
      000BDF 08                    5733 	.uleb128	8
      000BE0 00 00 07 8A           5734 	.dw	0,1930
      000BE4 00 00 86 08           5735 	.dw	0,(Sstm8_hd44780$lcd_data$453)
      000BE8 09                    5736 	.uleb128	9
      000BE9 00 00 07 75           5737 	.dw	0,1909
      000BED 00 00 86 0B           5738 	.dw	0,(Sstm8_hd44780$lcd_data$454)
      000BF1 00 00 86 15           5739 	.dw	0,(Sstm8_hd44780$lcd_data$459)
      000BF5 04                    5740 	.uleb128	4
      000BF6 00 00 86 0D           5741 	.dw	0,(Sstm8_hd44780$lcd_data$457)
      000BFA 00 00 86 0E           5742 	.dw	0,(Sstm8_hd44780$lcd_data$458)
      000BFE 00                    5743 	.uleb128	0
      000BFF 0A                    5744 	.uleb128	10
      000C00 06                    5745 	.db	6
      000C01 52                    5746 	.db	82
      000C02 93                    5747 	.db	147
      000C03 01                    5748 	.uleb128	1
      000C04 51                    5749 	.db	81
      000C05 93                    5750 	.db	147
      000C06 01                    5751 	.uleb128	1
      000C07 5F 5F 74 69 63 6B 73  5752 	.ascii "__ticks"
      000C0E 00                    5753 	.db	0
      000C0F 00 00 00 78           5754 	.dw	0,120
      000C13 00                    5755 	.uleb128	0
      000C14 0A                    5756 	.uleb128	10
      000C15 02                    5757 	.db	2
      000C16 91                    5758 	.db	145
      000C17 00                    5759 	.sleb128	0
      000C18 5F 5F 31 33 31 30 37  5760 	.ascii "__1310720010"
             32 30 30 31 30
      000C24 00                    5761 	.db	0
      000C25 00 00 00 78           5762 	.dw	0,120
      000C29 00                    5763 	.uleb128	0
      000C2A 00                    5764 	.uleb128	0
      000C2B 0A                    5765 	.uleb128	10
      000C2C 02                    5766 	.db	2
      000C2D 91                    5767 	.db	145
      000C2E 00                    5768 	.sleb128	0
      000C2F 5F 5F 75 73           5769 	.ascii "__us"
      000C33 00                    5770 	.db	0
      000C34 00 00 00 A4           5771 	.dw	0,164
      000C38 00                    5772 	.uleb128	0
      000C39 0A                    5773 	.uleb128	10
      000C3A 02                    5774 	.db	2
      000C3B 91                    5775 	.db	145
      000C3C 00                    5776 	.sleb128	0
      000C3D 5F 5F 31 33 31 30 37  5777 	.ascii "__1310720026"
             32 30 30 32 36
      000C49 00                    5778 	.db	0
      000C4A 00 00 00 A4           5779 	.dw	0,164
      000C4E 00                    5780 	.uleb128	0
      000C4F 00                    5781 	.uleb128	0
      000C50 0F                    5782 	.uleb128	15
      000C51 00 00 0A 72           5783 	.dw	0,2674
      000C55 6C 63 64 5F 72 65 61  5784 	.ascii "lcd_read"
             64
      000C5D 00                    5785 	.db	0
      000C5E 00 00 86 34           5786 	.dw	0,(_lcd_read)
      000C62 00 00 86 DD           5787 	.dw	0,(XG$lcd_read$0$0+1)
      000C66 01                    5788 	.db	1
      000C67 00 00 06 64           5789 	.dw	0,(Ldebug_loc_start+420)
      000C6B 00 00 01 68           5790 	.dw	0,360
      000C6F 0C                    5791 	.uleb128	12
      000C70 00 00 08 65           5792 	.dw	0,2149
      000C74 0C                    5793 	.uleb128	12
      000C75 00 00 08 4F           5794 	.dw	0,2127
      000C79 0C                    5795 	.uleb128	12
      000C7A 00 00 08 41           5796 	.dw	0,2113
      000C7E 0D                    5797 	.uleb128	13
      000C7F 08                    5798 	.uleb128	8
      000C80 00 00 08 2A           5799 	.dw	0,2090
      000C84 00 00 86 4E           5800 	.dw	0,(Sstm8_hd44780$lcd_read$486)
      000C88 09                    5801 	.uleb128	9
      000C89 00 00 08 15           5802 	.dw	0,2069
      000C8D 00 00 86 51           5803 	.dw	0,(Sstm8_hd44780$lcd_read$487)
      000C91 00 00 86 5B           5804 	.dw	0,(Sstm8_hd44780$lcd_read$492)
      000C95 04                    5805 	.uleb128	4
      000C96 00 00 86 53           5806 	.dw	0,(Sstm8_hd44780$lcd_read$490)
      000C9A 00 00 86 54           5807 	.dw	0,(Sstm8_hd44780$lcd_read$491)
      000C9E 00                    5808 	.uleb128	0
      000C9F 0A                    5809 	.uleb128	10
      000CA0 06                    5810 	.db	6
      000CA1 52                    5811 	.db	82
      000CA2 93                    5812 	.db	147
      000CA3 01                    5813 	.uleb128	1
      000CA4 51                    5814 	.db	81
      000CA5 93                    5815 	.db	147
      000CA6 01                    5816 	.uleb128	1
      000CA7 5F 5F 74 69 63 6B 73  5817 	.ascii "__ticks"
      000CAE 00                    5818 	.db	0
      000CAF 00 00 00 78           5819 	.dw	0,120
      000CB3 00                    5820 	.uleb128	0
      000CB4 0A                    5821 	.uleb128	10
      000CB5 02                    5822 	.db	2
      000CB6 91                    5823 	.db	145
      000CB7 00                    5824 	.sleb128	0
      000CB8 5F 5F 31 33 31 30 37  5825 	.ascii "__1310720010"
             32 30 30 31 30
      000CC4 00                    5826 	.db	0
      000CC5 00 00 00 78           5827 	.dw	0,120
      000CC9 00                    5828 	.uleb128	0
      000CCA 00                    5829 	.uleb128	0
      000CCB 0A                    5830 	.uleb128	10
      000CCC 02                    5831 	.db	2
      000CCD 91                    5832 	.db	145
      000CCE 00                    5833 	.sleb128	0
      000CCF 5F 5F 75 73           5834 	.ascii "__us"
      000CD3 00                    5835 	.db	0
      000CD4 00 00 00 A4           5836 	.dw	0,164
      000CD8 00                    5837 	.uleb128	0
      000CD9 0A                    5838 	.uleb128	10
      000CDA 02                    5839 	.db	2
      000CDB 91                    5840 	.db	145
      000CDC 00                    5841 	.sleb128	0
      000CDD 5F 5F 31 33 31 30 37  5842 	.ascii "__1310720028"
             32 30 30 32 38
      000CE9 00                    5843 	.db	0
      000CEA 00 00 00 A4           5844 	.dw	0,164
      000CEE 00                    5845 	.uleb128	0
      000CEF 0C                    5846 	.uleb128	12
      000CF0 00 00 08 E5           5847 	.dw	0,2277
      000CF4 0C                    5848 	.uleb128	12
      000CF5 00 00 08 CF           5849 	.dw	0,2255
      000CF9 0C                    5850 	.uleb128	12
      000CFA 00 00 08 C1           5851 	.dw	0,2241
      000CFE 0D                    5852 	.uleb128	13
      000CFF 08                    5853 	.uleb128	8
      000D00 00 00 08 AA           5854 	.dw	0,2218
      000D04 00 00 86 66           5855 	.dw	0,(Sstm8_hd44780$lcd_read$498)
      000D08 09                    5856 	.uleb128	9
      000D09 00 00 08 95           5857 	.dw	0,2197
      000D0D 00 00 86 69           5858 	.dw	0,(Sstm8_hd44780$lcd_read$499)
      000D11 00 00 86 73           5859 	.dw	0,(Sstm8_hd44780$lcd_read$504)
      000D15 04                    5860 	.uleb128	4
      000D16 00 00 86 6B           5861 	.dw	0,(Sstm8_hd44780$lcd_read$502)
      000D1A 00 00 86 6C           5862 	.dw	0,(Sstm8_hd44780$lcd_read$503)
      000D1E 00                    5863 	.uleb128	0
      000D1F 0A                    5864 	.uleb128	10
      000D20 06                    5865 	.db	6
      000D21 52                    5866 	.db	82
      000D22 93                    5867 	.db	147
      000D23 01                    5868 	.uleb128	1
      000D24 51                    5869 	.db	81
      000D25 93                    5870 	.db	147
      000D26 01                    5871 	.uleb128	1
      000D27 5F 5F 74 69 63 6B 73  5872 	.ascii "__ticks"
      000D2E 00                    5873 	.db	0
      000D2F 00 00 00 78           5874 	.dw	0,120
      000D33 00                    5875 	.uleb128	0
      000D34 0A                    5876 	.uleb128	10
      000D35 02                    5877 	.db	2
      000D36 91                    5878 	.db	145
      000D37 00                    5879 	.sleb128	0
      000D38 5F 5F 31 33 31 30 37  5880 	.ascii "__1310720010"
             32 30 30 31 30
      000D44 00                    5881 	.db	0
      000D45 00 00 00 78           5882 	.dw	0,120
      000D49 00                    5883 	.uleb128	0
      000D4A 00                    5884 	.uleb128	0
      000D4B 0A                    5885 	.uleb128	10
      000D4C 02                    5886 	.db	2
      000D4D 91                    5887 	.db	145
      000D4E 00                    5888 	.sleb128	0
      000D4F 5F 5F 75 73           5889 	.ascii "__us"
      000D53 00                    5890 	.db	0
      000D54 00 00 00 A4           5891 	.dw	0,164
      000D58 00                    5892 	.uleb128	0
      000D59 0A                    5893 	.uleb128	10
      000D5A 02                    5894 	.db	2
      000D5B 91                    5895 	.db	145
      000D5C 00                    5896 	.sleb128	0
      000D5D 5F 5F 31 33 31 30 37  5897 	.ascii "__1310720030"
             32 30 30 33 30
      000D69 00                    5898 	.db	0
      000D6A 00 00 00 A4           5899 	.dw	0,164
      000D6E 00                    5900 	.uleb128	0
      000D6F 0C                    5901 	.uleb128	12
      000D70 00 00 09 65           5902 	.dw	0,2405
      000D74 0C                    5903 	.uleb128	12
      000D75 00 00 09 4F           5904 	.dw	0,2383
      000D79 0C                    5905 	.uleb128	12
      000D7A 00 00 09 41           5906 	.dw	0,2369
      000D7E 0D                    5907 	.uleb128	13
      000D7F 08                    5908 	.uleb128	8
      000D80 00 00 09 2A           5909 	.dw	0,2346
      000D84 00 00 86 86           5910 	.dw	0,(Sstm8_hd44780$lcd_read$511)
      000D88 09                    5911 	.uleb128	9
      000D89 00 00 09 15           5912 	.dw	0,2325
      000D8D 00 00 86 89           5913 	.dw	0,(Sstm8_hd44780$lcd_read$512)
      000D91 00 00 86 93           5914 	.dw	0,(Sstm8_hd44780$lcd_read$517)
      000D95 04                    5915 	.uleb128	4
      000D96 00 00 86 8B           5916 	.dw	0,(Sstm8_hd44780$lcd_read$515)
      000D9A 00 00 86 8C           5917 	.dw	0,(Sstm8_hd44780$lcd_read$516)
      000D9E 00                    5918 	.uleb128	0
      000D9F 0A                    5919 	.uleb128	10
      000DA0 06                    5920 	.db	6
      000DA1 52                    5921 	.db	82
      000DA2 93                    5922 	.db	147
      000DA3 01                    5923 	.uleb128	1
      000DA4 51                    5924 	.db	81
      000DA5 93                    5925 	.db	147
      000DA6 01                    5926 	.uleb128	1
      000DA7 5F 5F 74 69 63 6B 73  5927 	.ascii "__ticks"
      000DAE 00                    5928 	.db	0
      000DAF 00 00 00 78           5929 	.dw	0,120
      000DB3 00                    5930 	.uleb128	0
      000DB4 0A                    5931 	.uleb128	10
      000DB5 02                    5932 	.db	2
      000DB6 91                    5933 	.db	145
      000DB7 00                    5934 	.sleb128	0
      000DB8 5F 5F 31 33 31 30 37  5935 	.ascii "__1310720010"
             32 30 30 31 30
      000DC4 00                    5936 	.db	0
      000DC5 00 00 00 78           5937 	.dw	0,120
      000DC9 00                    5938 	.uleb128	0
      000DCA 00                    5939 	.uleb128	0
      000DCB 0A                    5940 	.uleb128	10
      000DCC 02                    5941 	.db	2
      000DCD 91                    5942 	.db	145
      000DCE 00                    5943 	.sleb128	0
      000DCF 5F 5F 75 73           5944 	.ascii "__us"
      000DD3 00                    5945 	.db	0
      000DD4 00 00 00 A4           5946 	.dw	0,164
      000DD8 00                    5947 	.uleb128	0
      000DD9 0A                    5948 	.uleb128	10
      000DDA 02                    5949 	.db	2
      000DDB 91                    5950 	.db	145
      000DDC 00                    5951 	.sleb128	0
      000DDD 5F 5F 31 33 31 30 37  5952 	.ascii "__1310720032"
             32 30 30 33 32
      000DE9 00                    5953 	.db	0
      000DEA 00 00 00 A4           5954 	.dw	0,164
      000DEE 00                    5955 	.uleb128	0
      000DEF 0C                    5956 	.uleb128	12
      000DF0 00 00 09 E5           5957 	.dw	0,2533
      000DF4 0C                    5958 	.uleb128	12
      000DF5 00 00 09 CF           5959 	.dw	0,2511
      000DF9 0C                    5960 	.uleb128	12
      000DFA 00 00 09 C1           5961 	.dw	0,2497
      000DFE 0D                    5962 	.uleb128	13
      000DFF 08                    5963 	.uleb128	8
      000E00 00 00 09 AA           5964 	.dw	0,2474
      000E04 00 00 86 9E           5965 	.dw	0,(Sstm8_hd44780$lcd_read$523)
      000E08 09                    5966 	.uleb128	9
      000E09 00 00 09 95           5967 	.dw	0,2453
      000E0D 00 00 86 A1           5968 	.dw	0,(Sstm8_hd44780$lcd_read$524)
      000E11 00 00 86 AB           5969 	.dw	0,(Sstm8_hd44780$lcd_read$529)
      000E15 04                    5970 	.uleb128	4
      000E16 00 00 86 A3           5971 	.dw	0,(Sstm8_hd44780$lcd_read$527)
      000E1A 00 00 86 A4           5972 	.dw	0,(Sstm8_hd44780$lcd_read$528)
      000E1E 00                    5973 	.uleb128	0
      000E1F 0A                    5974 	.uleb128	10
      000E20 06                    5975 	.db	6
      000E21 52                    5976 	.db	82
      000E22 93                    5977 	.db	147
      000E23 01                    5978 	.uleb128	1
      000E24 51                    5979 	.db	81
      000E25 93                    5980 	.db	147
      000E26 01                    5981 	.uleb128	1
      000E27 5F 5F 74 69 63 6B 73  5982 	.ascii "__ticks"
      000E2E 00                    5983 	.db	0
      000E2F 00 00 00 78           5984 	.dw	0,120
      000E33 00                    5985 	.uleb128	0
      000E34 0A                    5986 	.uleb128	10
      000E35 02                    5987 	.db	2
      000E36 91                    5988 	.db	145
      000E37 00                    5989 	.sleb128	0
      000E38 5F 5F 31 33 31 30 37  5990 	.ascii "__1310720010"
             32 30 30 31 30
      000E44 00                    5991 	.db	0
      000E45 00 00 00 78           5992 	.dw	0,120
      000E49 00                    5993 	.uleb128	0
      000E4A 00                    5994 	.uleb128	0
      000E4B 0A                    5995 	.uleb128	10
      000E4C 02                    5996 	.db	2
      000E4D 91                    5997 	.db	145
      000E4E 00                    5998 	.sleb128	0
      000E4F 5F 5F 75 73           5999 	.ascii "__us"
      000E53 00                    6000 	.db	0
      000E54 00 00 00 A4           6001 	.dw	0,164
      000E58 00                    6002 	.uleb128	0
      000E59 0A                    6003 	.uleb128	10
      000E5A 02                    6004 	.db	2
      000E5B 91                    6005 	.db	145
      000E5C 00                    6006 	.sleb128	0
      000E5D 5F 5F 31 33 31 30 37  6007 	.ascii "__1310720034"
             32 30 30 33 34
      000E69 00                    6008 	.db	0
      000E6A 00 00 00 A4           6009 	.dw	0,164
      000E6E 00                    6010 	.uleb128	0
      000E6F 0C                    6011 	.uleb128	12
      000E70 00 00 0A 65           6012 	.dw	0,2661
      000E74 0C                    6013 	.uleb128	12
      000E75 00 00 0A 4F           6014 	.dw	0,2639
      000E79 0C                    6015 	.uleb128	12
      000E7A 00 00 0A 41           6016 	.dw	0,2625
      000E7E 0D                    6017 	.uleb128	13
      000E7F 08                    6018 	.uleb128	8
      000E80 00 00 0A 2A           6019 	.dw	0,2602
      000E84 00 00 86 BD           6020 	.dw	0,(Sstm8_hd44780$lcd_read$536)
      000E88 09                    6021 	.uleb128	9
      000E89 00 00 0A 15           6022 	.dw	0,2581
      000E8D 00 00 86 C0           6023 	.dw	0,(Sstm8_hd44780$lcd_read$537)
      000E91 00 00 86 CA           6024 	.dw	0,(Sstm8_hd44780$lcd_read$542)
      000E95 04                    6025 	.uleb128	4
      000E96 00 00 86 C2           6026 	.dw	0,(Sstm8_hd44780$lcd_read$540)
      000E9A 00 00 86 C3           6027 	.dw	0,(Sstm8_hd44780$lcd_read$541)
      000E9E 00                    6028 	.uleb128	0
      000E9F 0A                    6029 	.uleb128	10
      000EA0 06                    6030 	.db	6
      000EA1 52                    6031 	.db	82
      000EA2 93                    6032 	.db	147
      000EA3 01                    6033 	.uleb128	1
      000EA4 51                    6034 	.db	81
      000EA5 93                    6035 	.db	147
      000EA6 01                    6036 	.uleb128	1
      000EA7 5F 5F 74 69 63 6B 73  6037 	.ascii "__ticks"
      000EAE 00                    6038 	.db	0
      000EAF 00 00 00 78           6039 	.dw	0,120
      000EB3 00                    6040 	.uleb128	0
      000EB4 0A                    6041 	.uleb128	10
      000EB5 02                    6042 	.db	2
      000EB6 91                    6043 	.db	145
      000EB7 00                    6044 	.sleb128	0
      000EB8 5F 5F 31 33 31 30 37  6045 	.ascii "__1310720010"
             32 30 30 31 30
      000EC4 00                    6046 	.db	0
      000EC5 00 00 00 78           6047 	.dw	0,120
      000EC9 00                    6048 	.uleb128	0
      000ECA 00                    6049 	.uleb128	0
      000ECB 0A                    6050 	.uleb128	10
      000ECC 02                    6051 	.db	2
      000ECD 91                    6052 	.db	145
      000ECE 00                    6053 	.sleb128	0
      000ECF 5F 5F 75 73           6054 	.ascii "__us"
      000ED3 00                    6055 	.db	0
      000ED4 00 00 00 A4           6056 	.dw	0,164
      000ED8 00                    6057 	.uleb128	0
      000ED9 0A                    6058 	.uleb128	10
      000EDA 02                    6059 	.db	2
      000EDB 91                    6060 	.db	145
      000EDC 00                    6061 	.sleb128	0
      000EDD 5F 5F 31 33 31 30 37  6062 	.ascii "__1310720036"
             32 30 30 33 36
      000EE9 00                    6063 	.db	0
      000EEA 00 00 00 A4           6064 	.dw	0,164
      000EEE 00                    6065 	.uleb128	0
      000EEF 0A                    6066 	.uleb128	10
      000EF0 02                    6067 	.db	2
      000EF1 91                    6068 	.db	145
      000EF2 7F                    6069 	.sleb128	-1
      000EF3 74 6D 70              6070 	.ascii "tmp"
      000EF6 00                    6071 	.db	0
      000EF7 00 00 01 68           6072 	.dw	0,360
      000EFB 00                    6073 	.uleb128	0
      000EFC 0E                    6074 	.uleb128	14
      000EFD 6C 63 64 5F 62 75 73  6075 	.ascii "lcd_bus_sleep"
             5F 73 6C 65 65 70
      000F0A 00                    6076 	.db	0
      000F0B 00 00 86 DD           6077 	.dw	0,(_lcd_bus_sleep)
      000F0F 00 00 86 F7           6078 	.dw	0,(XG$lcd_bus_sleep$0$0+1)
      000F13 01                    6079 	.db	1
      000F14 00 00 05 F0           6080 	.dw	0,(Ldebug_loc_start+304)
      000F18 0E                    6081 	.uleb128	14
      000F19 6C 63 64 5F 62 75 73  6082 	.ascii "lcd_bus_wakeup"
             5F 77 61 6B 65 75 70
      000F27 00                    6083 	.db	0
      000F28 00 00 86 F7           6084 	.dw	0,(_lcd_bus_wakeup)
      000F2C 00 00 87 32           6085 	.dw	0,(XG$lcd_bus_wakeup$0$0+1)
      000F30 01                    6086 	.db	1
      000F31 00 00 04 EC           6087 	.dw	0,(Ldebug_loc_start+44)
      000F35 10                    6088 	.uleb128	16
      000F36 6C 63 64 5F 62 75 73  6089 	.ascii "lcd_busy_wait"
             79 5F 77 61 69 74
      000F43 00                    6090 	.db	0
      000F44 00 00 87 32           6091 	.dw	0,(_lcd_busy_wait)
      000F48 00 00 87 57           6092 	.dw	0,(XG$lcd_busy_wait$0$0+1)
      000F4C 01                    6093 	.db	1
      000F4D 00 00 04 C0           6094 	.dw	0,(Ldebug_loc_start)
      000F51 00 00 01 68           6095 	.dw	0,360
      000F55 04                    6096 	.uleb128	4
      000F56 00 00 87 46           6097 	.dw	0,(Sstm8_hd44780$lcd_busy_wait$607)
      000F5A 00 00 87 47           6098 	.dw	0,(Sstm8_hd44780$lcd_busy_wait$609)
      000F5E 04                    6099 	.uleb128	4
      000F5F 00 00 87 50           6100 	.dw	0,(Sstm8_hd44780$lcd_busy_wait$611)
      000F63 00 00 87 55           6101 	.dw	0,(Sstm8_hd44780$lcd_busy_wait$612)
      000F67 04                    6102 	.uleb128	4
      000F68 00 00 87 55           6103 	.dw	0,(Sstm8_hd44780$lcd_busy_wait$613)
      000F6C 00 00 87 56           6104 	.dw	0,(Sstm8_hd44780$lcd_busy_wait$615)
      000F70 0A                    6105 	.uleb128	10
      000F71 06                    6106 	.db	6
      000F72 52                    6107 	.db	82
      000F73 93                    6108 	.db	147
      000F74 01                    6109 	.uleb128	1
      000F75 51                    6110 	.db	81
      000F76 93                    6111 	.db	147
      000F77 01                    6112 	.uleb128	1
      000F78 74 69 6D 65 6F 75 74  6113 	.ascii "timeout"
      000F7F 00                    6114 	.db	0
      000F80 00 00 00 78           6115 	.dw	0,120
      000F84 00                    6116 	.uleb128	0
      000F85 00                    6117 	.uleb128	0
      000F86 00                    6118 	.uleb128	0
      000F87 00                    6119 	.uleb128	0
      000F88                       6120 Ldebug_info_end:
                                   6121 
                                   6122 	.area .debug_pubnames (NOLOAD)
      0000DD 00 00 01 26           6123 	.dw	0,Ldebug_pubnames_end-Ldebug_pubnames_start
      0000E1                       6124 Ldebug_pubnames_start:
      0000E1 00 02                 6125 	.dw	2
      0000E3 00 00 04 8A           6126 	.dw	0,(Ldebug_info_start-4)
      0000E7 00 00 0A FE           6127 	.dw	0,4+Ldebug_info_end-Ldebug_info_start
      0000EB 00 00 01 0F           6128 	.dw	0,271
      0000EF 6C 63 64 5F 73 74 6F  6129 	.ascii "lcd_store_symbol"
             72 65 5F 73 79 6D 62
             6F 6C
      0000FF 00                    6130 	.db	0
      000100 00 00 01 79           6131 	.dw	0,377
      000104 6C 63 64 5F 70 75 74  6132 	.ascii "lcd_puts"
             73
      00010C 00                    6133 	.db	0
      00010D 00 00 01 AB           6134 	.dw	0,427
      000111 6C 63 64 5F 69 6E 69  6135 	.ascii "lcd_init"
             74
      000119 00                    6136 	.db	0
      00011A 00 00 03 C3           6137 	.dw	0,963
      00011E 6C 63 64 5F 67 6F 74  6138 	.ascii "lcd_gotoxy"
             6F 78 79
      000128 00                    6139 	.db	0
      000129 00 00 04 23           6140 	.dw	0,1059
      00012D 6C 63 64 5F 69 6E 69  6141 	.ascii "lcd_init_hw"
             74 5F 68 77
      000138 00                    6142 	.db	0
      000139 00 00 04 3D           6143 	.dw	0,1085
      00013D 6C 63 64 5F 62 75 73  6144 	.ascii "lcd_bus_outputs"
             5F 6F 75 74 70 75 74
             73
      00014C 00                    6145 	.db	0
      00014D 00 00 04 5B           6146 	.dw	0,1115
      000151 6C 63 64 5F 62 75 73  6147 	.ascii "lcd_bus_inputs"
             5F 69 6E 70 75 74 73
      00015F 00                    6148 	.db	0
      000160 00 00 04 78           6149 	.dw	0,1144
      000164 6C 63 64 5F 64 65 69  6150 	.ascii "lcd_deinit_hw"
             6E 69 74 5F 68 77
      000171 00                    6151 	.db	0
      000172 00 00 04 94           6152 	.dw	0,1172
      000176 6C 63 64 5F 62 75 73  6153 	.ascii "lcd_bus_set"
             5F 73 65 74
      000181 00                    6154 	.db	0
      000182 00 00 05 08           6155 	.dw	0,1288
      000186 6C 63 64 5F 62 75 73  6156 	.ascii "lcd_bus_read"
             5F 72 65 61 64
      000192 00                    6157 	.db	0
      000193 00 00 05 5C           6158 	.dw	0,1372
      000197 6C 63 64 5F 65 5F 74  6159 	.ascii "lcd_e_tick"
             69 63 6B
      0001A1 00                    6160 	.db	0
      0001A2 00 00 06 76           6161 	.dw	0,1654
      0001A6 6C 63 64 5F 63 6F 6D  6162 	.ascii "lcd_command"
             6D 61 6E 64
      0001B1 00                    6163 	.db	0
      0001B2 00 00 07 21           6164 	.dw	0,1825
      0001B6 6C 63 64 5F 64 61 74  6165 	.ascii "lcd_data"
             61
      0001BE 00                    6166 	.db	0
      0001BF 00 00 07 C6           6167 	.dw	0,1990
      0001C3 6C 63 64 5F 72 65 61  6168 	.ascii "lcd_read"
             64
      0001CB 00                    6169 	.db	0
      0001CC 00 00 0A 72           6170 	.dw	0,2674
      0001D0 6C 63 64 5F 62 75 73  6171 	.ascii "lcd_bus_sleep"
             5F 73 6C 65 65 70
      0001DD 00                    6172 	.db	0
      0001DE 00 00 0A 8E           6173 	.dw	0,2702
      0001E2 6C 63 64 5F 62 75 73  6174 	.ascii "lcd_bus_wakeup"
             5F 77 61 6B 65 75 70
      0001F0 00                    6175 	.db	0
      0001F1 00 00 0A AB           6176 	.dw	0,2731
      0001F5 6C 63 64 5F 62 75 73  6177 	.ascii "lcd_busy_wait"
             79 5F 77 61 69 74
      000202 00                    6178 	.db	0
      000203 00 00 00 00           6179 	.dw	0,0
      000207                       6180 Ldebug_pubnames_end:
                                   6181 
                                   6182 	.area .debug_frame (NOLOAD)
      000408 00 00                 6183 	.dw	0
      00040A 00 0E                 6184 	.dw	Ldebug_CIE0_end-Ldebug_CIE0_start
      00040C                       6185 Ldebug_CIE0_start:
      00040C FF FF                 6186 	.dw	0xffff
      00040E FF FF                 6187 	.dw	0xffff
      000410 01                    6188 	.db	1
      000411 00                    6189 	.db	0
      000412 01                    6190 	.uleb128	1
      000413 7F                    6191 	.sleb128	-1
      000414 09                    6192 	.db	9
      000415 0C                    6193 	.db	12
      000416 08                    6194 	.uleb128	8
      000417 02                    6195 	.uleb128	2
      000418 89                    6196 	.db	137
      000419 01                    6197 	.uleb128	1
      00041A                       6198 Ldebug_CIE0_end:
      00041A 00 00 00 21           6199 	.dw	0,33
      00041E 00 00 04 08           6200 	.dw	0,(Ldebug_CIE0_start-4)
      000422 00 00 87 32           6201 	.dw	0,(Sstm8_hd44780$lcd_busy_wait$602)	;initial loc
      000426 00 00 00 25           6202 	.dw	0,Sstm8_hd44780$lcd_busy_wait$618-Sstm8_hd44780$lcd_busy_wait$602
      00042A 01                    6203 	.db	1
      00042B 00 00 87 32           6204 	.dw	0,(Sstm8_hd44780$lcd_busy_wait$602)
      00042F 0E                    6205 	.db	14
      000430 02                    6206 	.uleb128	2
      000431 01                    6207 	.db	1
      000432 00 00 87 3C           6208 	.dw	0,(Sstm8_hd44780$lcd_busy_wait$605)
      000436 0E                    6209 	.db	14
      000437 04                    6210 	.uleb128	4
      000438 01                    6211 	.db	1
      000439 00 00 87 40           6212 	.dw	0,(Sstm8_hd44780$lcd_busy_wait$606)
      00043D 0E                    6213 	.db	14
      00043E 02                    6214 	.uleb128	2
                                   6215 
                                   6216 	.area .debug_frame (NOLOAD)
      00043F 00 00                 6217 	.dw	0
      000441 00 0E                 6218 	.dw	Ldebug_CIE1_end-Ldebug_CIE1_start
      000443                       6219 Ldebug_CIE1_start:
      000443 FF FF                 6220 	.dw	0xffff
      000445 FF FF                 6221 	.dw	0xffff
      000447 01                    6222 	.db	1
      000448 00                    6223 	.db	0
      000449 01                    6224 	.uleb128	1
      00044A 7F                    6225 	.sleb128	-1
      00044B 09                    6226 	.db	9
      00044C 0C                    6227 	.db	12
      00044D 08                    6228 	.uleb128	8
      00044E 02                    6229 	.uleb128	2
      00044F 89                    6230 	.db	137
      000450 01                    6231 	.uleb128	1
      000451                       6232 Ldebug_CIE1_end:
      000451 00 00 00 9F           6233 	.dw	0,159
      000455 00 00 04 3F           6234 	.dw	0,(Ldebug_CIE1_start-4)
      000459 00 00 86 F7           6235 	.dw	0,(Sstm8_hd44780$lcd_bus_wakeup$571)	;initial loc
      00045D 00 00 00 3B           6236 	.dw	0,Sstm8_hd44780$lcd_bus_wakeup$600-Sstm8_hd44780$lcd_bus_wakeup$571
      000461 01                    6237 	.db	1
      000462 00 00 86 F7           6238 	.dw	0,(Sstm8_hd44780$lcd_bus_wakeup$571)
      000466 0E                    6239 	.db	14
      000467 02                    6240 	.uleb128	2
      000468 01                    6241 	.db	1
      000469 00 00 86 F9           6242 	.dw	0,(Sstm8_hd44780$lcd_bus_wakeup$573)
      00046D 0E                    6243 	.db	14
      00046E 03                    6244 	.uleb128	3
      00046F 01                    6245 	.db	1
      000470 00 00 86 FB           6246 	.dw	0,(Sstm8_hd44780$lcd_bus_wakeup$574)
      000474 0E                    6247 	.db	14
      000475 04                    6248 	.uleb128	4
      000476 01                    6249 	.db	1
      000477 00 00 86 FD           6250 	.dw	0,(Sstm8_hd44780$lcd_bus_wakeup$575)
      00047B 0E                    6251 	.db	14
      00047C 05                    6252 	.uleb128	5
      00047D 01                    6253 	.db	1
      00047E 00 00 87 02           6254 	.dw	0,(Sstm8_hd44780$lcd_bus_wakeup$576)
      000482 0E                    6255 	.db	14
      000483 02                    6256 	.uleb128	2
      000484 01                    6257 	.db	1
      000485 00 00 87 04           6258 	.dw	0,(Sstm8_hd44780$lcd_bus_wakeup$578)
      000489 0E                    6259 	.db	14
      00048A 03                    6260 	.uleb128	3
      00048B 01                    6261 	.db	1
      00048C 00 00 87 06           6262 	.dw	0,(Sstm8_hd44780$lcd_bus_wakeup$579)
      000490 0E                    6263 	.db	14
      000491 04                    6264 	.uleb128	4
      000492 01                    6265 	.db	1
      000493 00 00 87 08           6266 	.dw	0,(Sstm8_hd44780$lcd_bus_wakeup$580)
      000497 0E                    6267 	.db	14
      000498 05                    6268 	.uleb128	5
      000499 01                    6269 	.db	1
      00049A 00 00 87 0D           6270 	.dw	0,(Sstm8_hd44780$lcd_bus_wakeup$581)
      00049E 0E                    6271 	.db	14
      00049F 02                    6272 	.uleb128	2
      0004A0 01                    6273 	.db	1
      0004A1 00 00 87 0F           6274 	.dw	0,(Sstm8_hd44780$lcd_bus_wakeup$583)
      0004A5 0E                    6275 	.db	14
      0004A6 03                    6276 	.uleb128	3
      0004A7 01                    6277 	.db	1
      0004A8 00 00 87 11           6278 	.dw	0,(Sstm8_hd44780$lcd_bus_wakeup$584)
      0004AC 0E                    6279 	.db	14
      0004AD 04                    6280 	.uleb128	4
      0004AE 01                    6281 	.db	1
      0004AF 00 00 87 13           6282 	.dw	0,(Sstm8_hd44780$lcd_bus_wakeup$585)
      0004B3 0E                    6283 	.db	14
      0004B4 05                    6284 	.uleb128	5
      0004B5 01                    6285 	.db	1
      0004B6 00 00 87 18           6286 	.dw	0,(Sstm8_hd44780$lcd_bus_wakeup$586)
      0004BA 0E                    6287 	.db	14
      0004BB 02                    6288 	.uleb128	2
      0004BC 01                    6289 	.db	1
      0004BD 00 00 87 1A           6290 	.dw	0,(Sstm8_hd44780$lcd_bus_wakeup$588)
      0004C1 0E                    6291 	.db	14
      0004C2 03                    6292 	.uleb128	3
      0004C3 01                    6293 	.db	1
      0004C4 00 00 87 1C           6294 	.dw	0,(Sstm8_hd44780$lcd_bus_wakeup$589)
      0004C8 0E                    6295 	.db	14
      0004C9 04                    6296 	.uleb128	4
      0004CA 01                    6297 	.db	1
      0004CB 00 00 87 1E           6298 	.dw	0,(Sstm8_hd44780$lcd_bus_wakeup$590)
      0004CF 0E                    6299 	.db	14
      0004D0 05                    6300 	.uleb128	5
      0004D1 01                    6301 	.db	1
      0004D2 00 00 87 23           6302 	.dw	0,(Sstm8_hd44780$lcd_bus_wakeup$591)
      0004D6 0E                    6303 	.db	14
      0004D7 02                    6304 	.uleb128	2
      0004D8 01                    6305 	.db	1
      0004D9 00 00 87 25           6306 	.dw	0,(Sstm8_hd44780$lcd_bus_wakeup$593)
      0004DD 0E                    6307 	.db	14
      0004DE 03                    6308 	.uleb128	3
      0004DF 01                    6309 	.db	1
      0004E0 00 00 87 27           6310 	.dw	0,(Sstm8_hd44780$lcd_bus_wakeup$594)
      0004E4 0E                    6311 	.db	14
      0004E5 04                    6312 	.uleb128	4
      0004E6 01                    6313 	.db	1
      0004E7 00 00 87 29           6314 	.dw	0,(Sstm8_hd44780$lcd_bus_wakeup$595)
      0004EB 0E                    6315 	.db	14
      0004EC 05                    6316 	.uleb128	5
      0004ED 01                    6317 	.db	1
      0004EE 00 00 87 2E           6318 	.dw	0,(Sstm8_hd44780$lcd_bus_wakeup$596)
      0004F2 0E                    6319 	.db	14
      0004F3 02                    6320 	.uleb128	2
                                   6321 
                                   6322 	.area .debug_frame (NOLOAD)
      0004F4 00 00                 6323 	.dw	0
      0004F6 00 0E                 6324 	.dw	Ldebug_CIE2_end-Ldebug_CIE2_start
      0004F8                       6325 Ldebug_CIE2_start:
      0004F8 FF FF                 6326 	.dw	0xffff
      0004FA FF FF                 6327 	.dw	0xffff
      0004FC 01                    6328 	.db	1
      0004FD 00                    6329 	.db	0
      0004FE 01                    6330 	.uleb128	1
      0004FF 7F                    6331 	.sleb128	-1
      000500 09                    6332 	.db	9
      000501 0C                    6333 	.db	12
      000502 08                    6334 	.uleb128	8
      000503 02                    6335 	.uleb128	2
      000504 89                    6336 	.db	137
      000505 01                    6337 	.uleb128	1
      000506                       6338 Ldebug_CIE2_end:
      000506 00 00 00 4B           6339 	.dw	0,75
      00050A 00 00 04 F4           6340 	.dw	0,(Ldebug_CIE2_start-4)
      00050E 00 00 86 DD           6341 	.dw	0,(Sstm8_hd44780$lcd_bus_sleep$555)	;initial loc
      000512 00 00 00 1A           6342 	.dw	0,Sstm8_hd44780$lcd_bus_sleep$569-Sstm8_hd44780$lcd_bus_sleep$555
      000516 01                    6343 	.db	1
      000517 00 00 86 DD           6344 	.dw	0,(Sstm8_hd44780$lcd_bus_sleep$555)
      00051B 0E                    6345 	.db	14
      00051C 02                    6346 	.uleb128	2
      00051D 01                    6347 	.db	1
      00051E 00 00 86 DF           6348 	.dw	0,(Sstm8_hd44780$lcd_bus_sleep$557)
      000522 0E                    6349 	.db	14
      000523 03                    6350 	.uleb128	3
      000524 01                    6351 	.db	1
      000525 00 00 86 E1           6352 	.dw	0,(Sstm8_hd44780$lcd_bus_sleep$558)
      000529 0E                    6353 	.db	14
      00052A 04                    6354 	.uleb128	4
      00052B 01                    6355 	.db	1
      00052C 00 00 86 E3           6356 	.dw	0,(Sstm8_hd44780$lcd_bus_sleep$559)
      000530 0E                    6357 	.db	14
      000531 05                    6358 	.uleb128	5
      000532 01                    6359 	.db	1
      000533 00 00 86 E8           6360 	.dw	0,(Sstm8_hd44780$lcd_bus_sleep$560)
      000537 0E                    6361 	.db	14
      000538 02                    6362 	.uleb128	2
      000539 01                    6363 	.db	1
      00053A 00 00 86 EA           6364 	.dw	0,(Sstm8_hd44780$lcd_bus_sleep$562)
      00053E 0E                    6365 	.db	14
      00053F 03                    6366 	.uleb128	3
      000540 01                    6367 	.db	1
      000541 00 00 86 EC           6368 	.dw	0,(Sstm8_hd44780$lcd_bus_sleep$563)
      000545 0E                    6369 	.db	14
      000546 04                    6370 	.uleb128	4
      000547 01                    6371 	.db	1
      000548 00 00 86 EE           6372 	.dw	0,(Sstm8_hd44780$lcd_bus_sleep$564)
      00054C 0E                    6373 	.db	14
      00054D 05                    6374 	.uleb128	5
      00054E 01                    6375 	.db	1
      00054F 00 00 86 F3           6376 	.dw	0,(Sstm8_hd44780$lcd_bus_sleep$565)
      000553 0E                    6377 	.db	14
      000554 02                    6378 	.uleb128	2
                                   6379 
                                   6380 	.area .debug_frame (NOLOAD)
      000555 00 00                 6381 	.dw	0
      000557 00 0E                 6382 	.dw	Ldebug_CIE3_end-Ldebug_CIE3_start
      000559                       6383 Ldebug_CIE3_start:
      000559 FF FF                 6384 	.dw	0xffff
      00055B FF FF                 6385 	.dw	0xffff
      00055D 01                    6386 	.db	1
      00055E 00                    6387 	.db	0
      00055F 01                    6388 	.uleb128	1
      000560 7F                    6389 	.sleb128	-1
      000561 09                    6390 	.db	9
      000562 0C                    6391 	.db	12
      000563 08                    6392 	.uleb128	8
      000564 02                    6393 	.uleb128	2
      000565 89                    6394 	.db	137
      000566 01                    6395 	.uleb128	1
      000567                       6396 Ldebug_CIE3_end:
      000567 00 00 00 E5           6397 	.dw	0,229
      00056B 00 00 05 55           6398 	.dw	0,(Ldebug_CIE3_start-4)
      00056F 00 00 86 34           6399 	.dw	0,(Sstm8_hd44780$lcd_read$473)	;initial loc
      000573 00 00 00 A9           6400 	.dw	0,Sstm8_hd44780$lcd_read$553-Sstm8_hd44780$lcd_read$473
      000577 01                    6401 	.db	1
      000578 00 00 86 34           6402 	.dw	0,(Sstm8_hd44780$lcd_read$473)
      00057C 0E                    6403 	.db	14
      00057D 02                    6404 	.uleb128	2
      00057E 01                    6405 	.db	1
      00057F 00 00 86 35           6406 	.dw	0,(Sstm8_hd44780$lcd_read$474)
      000583 0E                    6407 	.db	14
      000584 03                    6408 	.uleb128	3
      000585 01                    6409 	.db	1
      000586 00 00 86 37           6410 	.dw	0,(Sstm8_hd44780$lcd_read$476)
      00058A 0E                    6411 	.db	14
      00058B 04                    6412 	.uleb128	4
      00058C 01                    6413 	.db	1
      00058D 00 00 86 39           6414 	.dw	0,(Sstm8_hd44780$lcd_read$477)
      000591 0E                    6415 	.db	14
      000592 05                    6416 	.uleb128	5
      000593 01                    6417 	.db	1
      000594 00 00 86 3B           6418 	.dw	0,(Sstm8_hd44780$lcd_read$478)
      000598 0E                    6419 	.db	14
      000599 06                    6420 	.uleb128	6
      00059A 01                    6421 	.db	1
      00059B 00 00 86 40           6422 	.dw	0,(Sstm8_hd44780$lcd_read$479)
      00059F 0E                    6423 	.db	14
      0005A0 03                    6424 	.uleb128	3
      0005A1 01                    6425 	.db	1
      0005A2 00 00 86 45           6426 	.dw	0,(Sstm8_hd44780$lcd_read$482)
      0005A6 0E                    6427 	.db	14
      0005A7 04                    6428 	.uleb128	4
      0005A8 01                    6429 	.db	1
      0005A9 00 00 86 47           6430 	.dw	0,(Sstm8_hd44780$lcd_read$483)
      0005AD 0E                    6431 	.db	14
      0005AE 05                    6432 	.uleb128	5
      0005AF 01                    6433 	.db	1
      0005B0 00 00 86 49           6434 	.dw	0,(Sstm8_hd44780$lcd_read$484)
      0005B4 0E                    6435 	.db	14
      0005B5 06                    6436 	.uleb128	6
      0005B6 01                    6437 	.db	1
      0005B7 00 00 86 4E           6438 	.dw	0,(Sstm8_hd44780$lcd_read$485)
      0005BB 0E                    6439 	.db	14
      0005BC 03                    6440 	.uleb128	3
      0005BD 01                    6441 	.db	1
      0005BE 00 00 86 5D           6442 	.dw	0,(Sstm8_hd44780$lcd_read$494)
      0005C2 0E                    6443 	.db	14
      0005C3 04                    6444 	.uleb128	4
      0005C4 01                    6445 	.db	1
      0005C5 00 00 86 5F           6446 	.dw	0,(Sstm8_hd44780$lcd_read$495)
      0005C9 0E                    6447 	.db	14
      0005CA 05                    6448 	.uleb128	5
      0005CB 01                    6449 	.db	1
      0005CC 00 00 86 61           6450 	.dw	0,(Sstm8_hd44780$lcd_read$496)
      0005D0 0E                    6451 	.db	14
      0005D1 06                    6452 	.uleb128	6
      0005D2 01                    6453 	.db	1
      0005D3 00 00 86 66           6454 	.dw	0,(Sstm8_hd44780$lcd_read$497)
      0005D7 0E                    6455 	.db	14
      0005D8 03                    6456 	.uleb128	3
      0005D9 01                    6457 	.db	1
      0005DA 00 00 86 7D           6458 	.dw	0,(Sstm8_hd44780$lcd_read$507)
      0005DE 0E                    6459 	.db	14
      0005DF 04                    6460 	.uleb128	4
      0005E0 01                    6461 	.db	1
      0005E1 00 00 86 7F           6462 	.dw	0,(Sstm8_hd44780$lcd_read$508)
      0005E5 0E                    6463 	.db	14
      0005E6 05                    6464 	.uleb128	5
      0005E7 01                    6465 	.db	1
      0005E8 00 00 86 81           6466 	.dw	0,(Sstm8_hd44780$lcd_read$509)
      0005EC 0E                    6467 	.db	14
      0005ED 06                    6468 	.uleb128	6
      0005EE 01                    6469 	.db	1
      0005EF 00 00 86 86           6470 	.dw	0,(Sstm8_hd44780$lcd_read$510)
      0005F3 0E                    6471 	.db	14
      0005F4 03                    6472 	.uleb128	3
      0005F5 01                    6473 	.db	1
      0005F6 00 00 86 95           6474 	.dw	0,(Sstm8_hd44780$lcd_read$519)
      0005FA 0E                    6475 	.db	14
      0005FB 04                    6476 	.uleb128	4
      0005FC 01                    6477 	.db	1
      0005FD 00 00 86 97           6478 	.dw	0,(Sstm8_hd44780$lcd_read$520)
      000601 0E                    6479 	.db	14
      000602 05                    6480 	.uleb128	5
      000603 01                    6481 	.db	1
      000604 00 00 86 99           6482 	.dw	0,(Sstm8_hd44780$lcd_read$521)
      000608 0E                    6483 	.db	14
      000609 06                    6484 	.uleb128	6
      00060A 01                    6485 	.db	1
      00060B 00 00 86 9E           6486 	.dw	0,(Sstm8_hd44780$lcd_read$522)
      00060F 0E                    6487 	.db	14
      000610 03                    6488 	.uleb128	3
      000611 01                    6489 	.db	1
      000612 00 00 86 B4           6490 	.dw	0,(Sstm8_hd44780$lcd_read$532)
      000616 0E                    6491 	.db	14
      000617 04                    6492 	.uleb128	4
      000618 01                    6493 	.db	1
      000619 00 00 86 B6           6494 	.dw	0,(Sstm8_hd44780$lcd_read$533)
      00061D 0E                    6495 	.db	14
      00061E 05                    6496 	.uleb128	5
      00061F 01                    6497 	.db	1
      000620 00 00 86 B8           6498 	.dw	0,(Sstm8_hd44780$lcd_read$534)
      000624 0E                    6499 	.db	14
      000625 06                    6500 	.uleb128	6
      000626 01                    6501 	.db	1
      000627 00 00 86 BD           6502 	.dw	0,(Sstm8_hd44780$lcd_read$535)
      00062B 0E                    6503 	.db	14
      00062C 03                    6504 	.uleb128	3
      00062D 01                    6505 	.db	1
      00062E 00 00 86 CC           6506 	.dw	0,(Sstm8_hd44780$lcd_read$544)
      000632 0E                    6507 	.db	14
      000633 04                    6508 	.uleb128	4
      000634 01                    6509 	.db	1
      000635 00 00 86 CE           6510 	.dw	0,(Sstm8_hd44780$lcd_read$545)
      000639 0E                    6511 	.db	14
      00063A 05                    6512 	.uleb128	5
      00063B 01                    6513 	.db	1
      00063C 00 00 86 D0           6514 	.dw	0,(Sstm8_hd44780$lcd_read$546)
      000640 0E                    6515 	.db	14
      000641 06                    6516 	.uleb128	6
      000642 01                    6517 	.db	1
      000643 00 00 86 D5           6518 	.dw	0,(Sstm8_hd44780$lcd_read$547)
      000647 0E                    6519 	.db	14
      000648 03                    6520 	.uleb128	3
      000649 01                    6521 	.db	1
      00064A 00 00 86 DC           6522 	.dw	0,(Sstm8_hd44780$lcd_read$551)
      00064E 0E                    6523 	.db	14
      00064F 02                    6524 	.uleb128	2
                                   6525 
                                   6526 	.area .debug_frame (NOLOAD)
      000650 00 00                 6527 	.dw	0
      000652 00 0E                 6528 	.dw	Ldebug_CIE4_end-Ldebug_CIE4_start
      000654                       6529 Ldebug_CIE4_start:
      000654 FF FF                 6530 	.dw	0xffff
      000656 FF FF                 6531 	.dw	0xffff
      000658 01                    6532 	.db	1
      000659 00                    6533 	.db	0
      00065A 01                    6534 	.uleb128	1
      00065B 7F                    6535 	.sleb128	-1
      00065C 09                    6536 	.db	9
      00065D 0C                    6537 	.db	12
      00065E 08                    6538 	.uleb128	8
      00065F 02                    6539 	.uleb128	2
      000660 89                    6540 	.db	137
      000661 01                    6541 	.uleb128	1
      000662                       6542 Ldebug_CIE4_end:
      000662 00 00 00 4B           6543 	.dw	0,75
      000666 00 00 06 50           6544 	.dw	0,(Ldebug_CIE4_start-4)
      00066A 00 00 85 FD           6545 	.dw	0,(Sstm8_hd44780$lcd_data$447)	;initial loc
      00066E 00 00 00 37           6546 	.dw	0,Sstm8_hd44780$lcd_data$471-Sstm8_hd44780$lcd_data$447
      000672 01                    6547 	.db	1
      000673 00 00 85 FD           6548 	.dw	0,(Sstm8_hd44780$lcd_data$447)
      000677 0E                    6549 	.db	14
      000678 02                    6550 	.uleb128	2
      000679 01                    6551 	.db	1
      00067A 00 00 85 FF           6552 	.dw	0,(Sstm8_hd44780$lcd_data$449)
      00067E 0E                    6553 	.db	14
      00067F 03                    6554 	.uleb128	3
      000680 01                    6555 	.db	1
      000681 00 00 86 01           6556 	.dw	0,(Sstm8_hd44780$lcd_data$450)
      000685 0E                    6557 	.db	14
      000686 04                    6558 	.uleb128	4
      000687 01                    6559 	.db	1
      000688 00 00 86 03           6560 	.dw	0,(Sstm8_hd44780$lcd_data$451)
      00068C 0E                    6561 	.db	14
      00068D 05                    6562 	.uleb128	5
      00068E 01                    6563 	.db	1
      00068F 00 00 86 08           6564 	.dw	0,(Sstm8_hd44780$lcd_data$452)
      000693 0E                    6565 	.db	14
      000694 02                    6566 	.uleb128	2
      000695 01                    6567 	.db	1
      000696 00 00 86 1D           6568 	.dw	0,(Sstm8_hd44780$lcd_data$461)
      00069A 0E                    6569 	.db	14
      00069B 03                    6570 	.uleb128	3
      00069C 01                    6571 	.db	1
      00069D 00 00 86 21           6572 	.dw	0,(Sstm8_hd44780$lcd_data$462)
      0006A1 0E                    6573 	.db	14
      0006A2 02                    6574 	.uleb128	2
      0006A3 01                    6575 	.db	1
      0006A4 00 00 86 29           6576 	.dw	0,(Sstm8_hd44780$lcd_data$465)
      0006A8 0E                    6577 	.db	14
      0006A9 03                    6578 	.uleb128	3
      0006AA 01                    6579 	.db	1
      0006AB 00 00 86 2D           6580 	.dw	0,(Sstm8_hd44780$lcd_data$466)
      0006AF 0E                    6581 	.db	14
      0006B0 02                    6582 	.uleb128	2
                                   6583 
                                   6584 	.area .debug_frame (NOLOAD)
      0006B1 00 00                 6585 	.dw	0
      0006B3 00 0E                 6586 	.dw	Ldebug_CIE5_end-Ldebug_CIE5_start
      0006B5                       6587 Ldebug_CIE5_start:
      0006B5 FF FF                 6588 	.dw	0xffff
      0006B7 FF FF                 6589 	.dw	0xffff
      0006B9 01                    6590 	.db	1
      0006BA 00                    6591 	.db	0
      0006BB 01                    6592 	.uleb128	1
      0006BC 7F                    6593 	.sleb128	-1
      0006BD 09                    6594 	.db	9
      0006BE 0C                    6595 	.db	12
      0006BF 08                    6596 	.uleb128	8
      0006C0 02                    6597 	.uleb128	2
      0006C1 89                    6598 	.db	137
      0006C2 01                    6599 	.uleb128	1
      0006C3                       6600 Ldebug_CIE5_end:
      0006C3 00 00 00 4B           6601 	.dw	0,75
      0006C7 00 00 06 B1           6602 	.dw	0,(Ldebug_CIE5_start-4)
      0006CB 00 00 85 C6           6603 	.dw	0,(Sstm8_hd44780$lcd_command$421)	;initial loc
      0006CF 00 00 00 37           6604 	.dw	0,Sstm8_hd44780$lcd_command$445-Sstm8_hd44780$lcd_command$421
      0006D3 01                    6605 	.db	1
      0006D4 00 00 85 C6           6606 	.dw	0,(Sstm8_hd44780$lcd_command$421)
      0006D8 0E                    6607 	.db	14
      0006D9 02                    6608 	.uleb128	2
      0006DA 01                    6609 	.db	1
      0006DB 00 00 85 C8           6610 	.dw	0,(Sstm8_hd44780$lcd_command$423)
      0006DF 0E                    6611 	.db	14
      0006E0 03                    6612 	.uleb128	3
      0006E1 01                    6613 	.db	1
      0006E2 00 00 85 CA           6614 	.dw	0,(Sstm8_hd44780$lcd_command$424)
      0006E6 0E                    6615 	.db	14
      0006E7 04                    6616 	.uleb128	4
      0006E8 01                    6617 	.db	1
      0006E9 00 00 85 CC           6618 	.dw	0,(Sstm8_hd44780$lcd_command$425)
      0006ED 0E                    6619 	.db	14
      0006EE 05                    6620 	.uleb128	5
      0006EF 01                    6621 	.db	1
      0006F0 00 00 85 D1           6622 	.dw	0,(Sstm8_hd44780$lcd_command$426)
      0006F4 0E                    6623 	.db	14
      0006F5 02                    6624 	.uleb128	2
      0006F6 01                    6625 	.db	1
      0006F7 00 00 85 E6           6626 	.dw	0,(Sstm8_hd44780$lcd_command$435)
      0006FB 0E                    6627 	.db	14
      0006FC 03                    6628 	.uleb128	3
      0006FD 01                    6629 	.db	1
      0006FE 00 00 85 EA           6630 	.dw	0,(Sstm8_hd44780$lcd_command$436)
      000702 0E                    6631 	.db	14
      000703 02                    6632 	.uleb128	2
      000704 01                    6633 	.db	1
      000705 00 00 85 F2           6634 	.dw	0,(Sstm8_hd44780$lcd_command$439)
      000709 0E                    6635 	.db	14
      00070A 03                    6636 	.uleb128	3
      00070B 01                    6637 	.db	1
      00070C 00 00 85 F6           6638 	.dw	0,(Sstm8_hd44780$lcd_command$440)
      000710 0E                    6639 	.db	14
      000711 02                    6640 	.uleb128	2
                                   6641 
                                   6642 	.area .debug_frame (NOLOAD)
      000712 00 00                 6643 	.dw	0
      000714 00 0E                 6644 	.dw	Ldebug_CIE6_end-Ldebug_CIE6_start
      000716                       6645 Ldebug_CIE6_start:
      000716 FF FF                 6646 	.dw	0xffff
      000718 FF FF                 6647 	.dw	0xffff
      00071A 01                    6648 	.db	1
      00071B 00                    6649 	.db	0
      00071C 01                    6650 	.uleb128	1
      00071D 7F                    6651 	.sleb128	-1
      00071E 09                    6652 	.db	9
      00071F 0C                    6653 	.db	12
      000720 08                    6654 	.uleb128	8
      000721 02                    6655 	.uleb128	2
      000722 89                    6656 	.db	137
      000723 01                    6657 	.uleb128	1
      000724                       6658 Ldebug_CIE6_end:
      000724 00 00 00 4B           6659 	.dw	0,75
      000728 00 00 07 12           6660 	.dw	0,(Ldebug_CIE6_start-4)
      00072C 00 00 85 95           6661 	.dw	0,(Sstm8_hd44780$lcd_e_tick$391)	;initial loc
      000730 00 00 00 31           6662 	.dw	0,Sstm8_hd44780$lcd_e_tick$419-Sstm8_hd44780$lcd_e_tick$391
      000734 01                    6663 	.db	1
      000735 00 00 85 95           6664 	.dw	0,(Sstm8_hd44780$lcd_e_tick$391)
      000739 0E                    6665 	.db	14
      00073A 02                    6666 	.uleb128	2
      00073B 01                    6667 	.db	1
      00073C 00 00 85 97           6668 	.dw	0,(Sstm8_hd44780$lcd_e_tick$393)
      000740 0E                    6669 	.db	14
      000741 03                    6670 	.uleb128	3
      000742 01                    6671 	.db	1
      000743 00 00 85 99           6672 	.dw	0,(Sstm8_hd44780$lcd_e_tick$394)
      000747 0E                    6673 	.db	14
      000748 04                    6674 	.uleb128	4
      000749 01                    6675 	.db	1
      00074A 00 00 85 9B           6676 	.dw	0,(Sstm8_hd44780$lcd_e_tick$395)
      00074E 0E                    6677 	.db	14
      00074F 05                    6678 	.uleb128	5
      000750 01                    6679 	.db	1
      000751 00 00 85 A0           6680 	.dw	0,(Sstm8_hd44780$lcd_e_tick$396)
      000755 0E                    6681 	.db	14
      000756 02                    6682 	.uleb128	2
      000757 01                    6683 	.db	1
      000758 00 00 85 AF           6684 	.dw	0,(Sstm8_hd44780$lcd_e_tick$405)
      00075C 0E                    6685 	.db	14
      00075D 03                    6686 	.uleb128	3
      00075E 01                    6687 	.db	1
      00075F 00 00 85 B1           6688 	.dw	0,(Sstm8_hd44780$lcd_e_tick$406)
      000763 0E                    6689 	.db	14
      000764 04                    6690 	.uleb128	4
      000765 01                    6691 	.db	1
      000766 00 00 85 B3           6692 	.dw	0,(Sstm8_hd44780$lcd_e_tick$407)
      00076A 0E                    6693 	.db	14
      00076B 05                    6694 	.uleb128	5
      00076C 01                    6695 	.db	1
      00076D 00 00 85 B8           6696 	.dw	0,(Sstm8_hd44780$lcd_e_tick$408)
      000771 0E                    6697 	.db	14
      000772 02                    6698 	.uleb128	2
                                   6699 
                                   6700 	.area .debug_frame (NOLOAD)
      000773 00 00                 6701 	.dw	0
      000775 00 0E                 6702 	.dw	Ldebug_CIE7_end-Ldebug_CIE7_start
      000777                       6703 Ldebug_CIE7_start:
      000777 FF FF                 6704 	.dw	0xffff
      000779 FF FF                 6705 	.dw	0xffff
      00077B 01                    6706 	.db	1
      00077C 00                    6707 	.db	0
      00077D 01                    6708 	.uleb128	1
      00077E 7F                    6709 	.sleb128	-1
      00077F 09                    6710 	.db	9
      000780 0C                    6711 	.db	12
      000781 08                    6712 	.uleb128	8
      000782 02                    6713 	.uleb128	2
      000783 89                    6714 	.db	137
      000784 01                    6715 	.uleb128	1
      000785                       6716 Ldebug_CIE7_end:
      000785 00 00 00 91           6717 	.dw	0,145
      000789 00 00 07 73           6718 	.dw	0,(Ldebug_CIE7_start-4)
      00078D 00 00 85 32           6719 	.dw	0,(Sstm8_hd44780$lcd_bus_read$354)	;initial loc
      000791 00 00 00 63           6720 	.dw	0,Sstm8_hd44780$lcd_bus_read$389-Sstm8_hd44780$lcd_bus_read$354
      000795 01                    6721 	.db	1
      000796 00 00 85 32           6722 	.dw	0,(Sstm8_hd44780$lcd_bus_read$354)
      00079A 0E                    6723 	.db	14
      00079B 02                    6724 	.uleb128	2
      00079C 01                    6725 	.db	1
      00079D 00 00 85 33           6726 	.dw	0,(Sstm8_hd44780$lcd_bus_read$355)
      0007A1 0E                    6727 	.db	14
      0007A2 03                    6728 	.uleb128	3
      0007A3 01                    6729 	.db	1
      0007A4 00 00 85 37           6730 	.dw	0,(Sstm8_hd44780$lcd_bus_read$358)
      0007A8 0E                    6731 	.db	14
      0007A9 04                    6732 	.uleb128	4
      0007AA 01                    6733 	.db	1
      0007AB 00 00 85 39           6734 	.dw	0,(Sstm8_hd44780$lcd_bus_read$359)
      0007AF 0E                    6735 	.db	14
      0007B0 05                    6736 	.uleb128	5
      0007B1 01                    6737 	.db	1
      0007B2 00 00 85 3B           6738 	.dw	0,(Sstm8_hd44780$lcd_bus_read$360)
      0007B6 0E                    6739 	.db	14
      0007B7 06                    6740 	.uleb128	6
      0007B8 01                    6741 	.db	1
      0007B9 00 00 85 40           6742 	.dw	0,(Sstm8_hd44780$lcd_bus_read$361)
      0007BD 0E                    6743 	.db	14
      0007BE 03                    6744 	.uleb128	3
      0007BF 01                    6745 	.db	1
      0007C0 00 00 85 4D           6746 	.dw	0,(Sstm8_hd44780$lcd_bus_read$365)
      0007C4 0E                    6747 	.db	14
      0007C5 04                    6748 	.uleb128	4
      0007C6 01                    6749 	.db	1
      0007C7 00 00 85 4F           6750 	.dw	0,(Sstm8_hd44780$lcd_bus_read$366)
      0007CB 0E                    6751 	.db	14
      0007CC 05                    6752 	.uleb128	5
      0007CD 01                    6753 	.db	1
      0007CE 00 00 85 51           6754 	.dw	0,(Sstm8_hd44780$lcd_bus_read$367)
      0007D2 0E                    6755 	.db	14
      0007D3 06                    6756 	.uleb128	6
      0007D4 01                    6757 	.db	1
      0007D5 00 00 85 56           6758 	.dw	0,(Sstm8_hd44780$lcd_bus_read$368)
      0007D9 0E                    6759 	.db	14
      0007DA 03                    6760 	.uleb128	3
      0007DB 01                    6761 	.db	1
      0007DC 00 00 85 64           6762 	.dw	0,(Sstm8_hd44780$lcd_bus_read$372)
      0007E0 0E                    6763 	.db	14
      0007E1 04                    6764 	.uleb128	4
      0007E2 01                    6765 	.db	1
      0007E3 00 00 85 66           6766 	.dw	0,(Sstm8_hd44780$lcd_bus_read$373)
      0007E7 0E                    6767 	.db	14
      0007E8 05                    6768 	.uleb128	5
      0007E9 01                    6769 	.db	1
      0007EA 00 00 85 68           6770 	.dw	0,(Sstm8_hd44780$lcd_bus_read$374)
      0007EE 0E                    6771 	.db	14
      0007EF 06                    6772 	.uleb128	6
      0007F0 01                    6773 	.db	1
      0007F1 00 00 85 6D           6774 	.dw	0,(Sstm8_hd44780$lcd_bus_read$375)
      0007F5 0E                    6775 	.db	14
      0007F6 03                    6776 	.uleb128	3
      0007F7 01                    6777 	.db	1
      0007F8 00 00 85 7B           6778 	.dw	0,(Sstm8_hd44780$lcd_bus_read$379)
      0007FC 0E                    6779 	.db	14
      0007FD 04                    6780 	.uleb128	4
      0007FE 01                    6781 	.db	1
      0007FF 00 00 85 7D           6782 	.dw	0,(Sstm8_hd44780$lcd_bus_read$380)
      000803 0E                    6783 	.db	14
      000804 05                    6784 	.uleb128	5
      000805 01                    6785 	.db	1
      000806 00 00 85 7F           6786 	.dw	0,(Sstm8_hd44780$lcd_bus_read$381)
      00080A 0E                    6787 	.db	14
      00080B 06                    6788 	.uleb128	6
      00080C 01                    6789 	.db	1
      00080D 00 00 85 84           6790 	.dw	0,(Sstm8_hd44780$lcd_bus_read$382)
      000811 0E                    6791 	.db	14
      000812 03                    6792 	.uleb128	3
      000813 01                    6793 	.db	1
      000814 00 00 85 94           6794 	.dw	0,(Sstm8_hd44780$lcd_bus_read$387)
      000818 0E                    6795 	.db	14
      000819 02                    6796 	.uleb128	2
                                   6797 
                                   6798 	.area .debug_frame (NOLOAD)
      00081A 00 00                 6799 	.dw	0
      00081C 00 0E                 6800 	.dw	Ldebug_CIE8_end-Ldebug_CIE8_start
      00081E                       6801 Ldebug_CIE8_start:
      00081E FF FF                 6802 	.dw	0xffff
      000820 FF FF                 6803 	.dw	0xffff
      000822 01                    6804 	.db	1
      000823 00                    6805 	.db	0
      000824 01                    6806 	.uleb128	1
      000825 7F                    6807 	.sleb128	-1
      000826 09                    6808 	.db	9
      000827 0C                    6809 	.db	12
      000828 08                    6810 	.uleb128	8
      000829 02                    6811 	.uleb128	2
      00082A 89                    6812 	.db	137
      00082B 01                    6813 	.uleb128	1
      00082C                       6814 Ldebug_CIE8_end:
      00082C 00 00 00 F3           6815 	.dw	0,243
      000830 00 00 08 1A           6816 	.dw	0,(Ldebug_CIE8_start-4)
      000834 00 00 84 AA           6817 	.dw	0,(Sstm8_hd44780$lcd_bus_set$297)	;initial loc
      000838 00 00 00 88           6818 	.dw	0,Sstm8_hd44780$lcd_bus_set$352-Sstm8_hd44780$lcd_bus_set$297
      00083C 01                    6819 	.db	1
      00083D 00 00 84 AA           6820 	.dw	0,(Sstm8_hd44780$lcd_bus_set$297)
      000841 0E                    6821 	.db	14
      000842 02                    6822 	.uleb128	2
      000843 01                    6823 	.db	1
      000844 00 00 84 B4           6824 	.dw	0,(Sstm8_hd44780$lcd_bus_set$300)
      000848 0E                    6825 	.db	14
      000849 03                    6826 	.uleb128	3
      00084A 01                    6827 	.db	1
      00084B 00 00 84 B6           6828 	.dw	0,(Sstm8_hd44780$lcd_bus_set$301)
      00084F 0E                    6829 	.db	14
      000850 04                    6830 	.uleb128	4
      000851 01                    6831 	.db	1
      000852 00 00 84 B8           6832 	.dw	0,(Sstm8_hd44780$lcd_bus_set$302)
      000856 0E                    6833 	.db	14
      000857 05                    6834 	.uleb128	5
      000858 01                    6835 	.db	1
      000859 00 00 84 BD           6836 	.dw	0,(Sstm8_hd44780$lcd_bus_set$303)
      00085D 0E                    6837 	.db	14
      00085E 02                    6838 	.uleb128	2
      00085F 01                    6839 	.db	1
      000860 00 00 84 C2           6840 	.dw	0,(Sstm8_hd44780$lcd_bus_set$306)
      000864 0E                    6841 	.db	14
      000865 03                    6842 	.uleb128	3
      000866 01                    6843 	.db	1
      000867 00 00 84 C4           6844 	.dw	0,(Sstm8_hd44780$lcd_bus_set$307)
      00086B 0E                    6845 	.db	14
      00086C 04                    6846 	.uleb128	4
      00086D 01                    6847 	.db	1
      00086E 00 00 84 C6           6848 	.dw	0,(Sstm8_hd44780$lcd_bus_set$308)
      000872 0E                    6849 	.db	14
      000873 05                    6850 	.uleb128	5
      000874 01                    6851 	.db	1
      000875 00 00 84 CB           6852 	.dw	0,(Sstm8_hd44780$lcd_bus_set$309)
      000879 0E                    6853 	.db	14
      00087A 02                    6854 	.uleb128	2
      00087B 01                    6855 	.db	1
      00087C 00 00 84 D6           6856 	.dw	0,(Sstm8_hd44780$lcd_bus_set$313)
      000880 0E                    6857 	.db	14
      000881 03                    6858 	.uleb128	3
      000882 01                    6859 	.db	1
      000883 00 00 84 D8           6860 	.dw	0,(Sstm8_hd44780$lcd_bus_set$314)
      000887 0E                    6861 	.db	14
      000888 04                    6862 	.uleb128	4
      000889 01                    6863 	.db	1
      00088A 00 00 84 DA           6864 	.dw	0,(Sstm8_hd44780$lcd_bus_set$315)
      00088E 0E                    6865 	.db	14
      00088F 05                    6866 	.uleb128	5
      000890 01                    6867 	.db	1
      000891 00 00 84 DF           6868 	.dw	0,(Sstm8_hd44780$lcd_bus_set$316)
      000895 0E                    6869 	.db	14
      000896 02                    6870 	.uleb128	2
      000897 01                    6871 	.db	1
      000898 00 00 84 E4           6872 	.dw	0,(Sstm8_hd44780$lcd_bus_set$319)
      00089C 0E                    6873 	.db	14
      00089D 03                    6874 	.uleb128	3
      00089E 01                    6875 	.db	1
      00089F 00 00 84 E6           6876 	.dw	0,(Sstm8_hd44780$lcd_bus_set$320)
      0008A3 0E                    6877 	.db	14
      0008A4 04                    6878 	.uleb128	4
      0008A5 01                    6879 	.db	1
      0008A6 00 00 84 E8           6880 	.dw	0,(Sstm8_hd44780$lcd_bus_set$321)
      0008AA 0E                    6881 	.db	14
      0008AB 05                    6882 	.uleb128	5
      0008AC 01                    6883 	.db	1
      0008AD 00 00 84 ED           6884 	.dw	0,(Sstm8_hd44780$lcd_bus_set$322)
      0008B1 0E                    6885 	.db	14
      0008B2 02                    6886 	.uleb128	2
      0008B3 01                    6887 	.db	1
      0008B4 00 00 84 F8           6888 	.dw	0,(Sstm8_hd44780$lcd_bus_set$326)
      0008B8 0E                    6889 	.db	14
      0008B9 03                    6890 	.uleb128	3
      0008BA 01                    6891 	.db	1
      0008BB 00 00 84 FA           6892 	.dw	0,(Sstm8_hd44780$lcd_bus_set$327)
      0008BF 0E                    6893 	.db	14
      0008C0 04                    6894 	.uleb128	4
      0008C1 01                    6895 	.db	1
      0008C2 00 00 84 FC           6896 	.dw	0,(Sstm8_hd44780$lcd_bus_set$328)
      0008C6 0E                    6897 	.db	14
      0008C7 05                    6898 	.uleb128	5
      0008C8 01                    6899 	.db	1
      0008C9 00 00 85 01           6900 	.dw	0,(Sstm8_hd44780$lcd_bus_set$329)
      0008CD 0E                    6901 	.db	14
      0008CE 02                    6902 	.uleb128	2
      0008CF 01                    6903 	.db	1
      0008D0 00 00 85 06           6904 	.dw	0,(Sstm8_hd44780$lcd_bus_set$332)
      0008D4 0E                    6905 	.db	14
      0008D5 03                    6906 	.uleb128	3
      0008D6 01                    6907 	.db	1
      0008D7 00 00 85 08           6908 	.dw	0,(Sstm8_hd44780$lcd_bus_set$333)
      0008DB 0E                    6909 	.db	14
      0008DC 04                    6910 	.uleb128	4
      0008DD 01                    6911 	.db	1
      0008DE 00 00 85 0A           6912 	.dw	0,(Sstm8_hd44780$lcd_bus_set$334)
      0008E2 0E                    6913 	.db	14
      0008E3 05                    6914 	.uleb128	5
      0008E4 01                    6915 	.db	1
      0008E5 00 00 85 0F           6916 	.dw	0,(Sstm8_hd44780$lcd_bus_set$335)
      0008E9 0E                    6917 	.db	14
      0008EA 02                    6918 	.uleb128	2
      0008EB 01                    6919 	.db	1
      0008EC 00 00 85 1A           6920 	.dw	0,(Sstm8_hd44780$lcd_bus_set$339)
      0008F0 0E                    6921 	.db	14
      0008F1 03                    6922 	.uleb128	3
      0008F2 01                    6923 	.db	1
      0008F3 00 00 85 1C           6924 	.dw	0,(Sstm8_hd44780$lcd_bus_set$340)
      0008F7 0E                    6925 	.db	14
      0008F8 04                    6926 	.uleb128	4
      0008F9 01                    6927 	.db	1
      0008FA 00 00 85 1E           6928 	.dw	0,(Sstm8_hd44780$lcd_bus_set$341)
      0008FE 0E                    6929 	.db	14
      0008FF 05                    6930 	.uleb128	5
      000900 01                    6931 	.db	1
      000901 00 00 85 23           6932 	.dw	0,(Sstm8_hd44780$lcd_bus_set$342)
      000905 0E                    6933 	.db	14
      000906 02                    6934 	.uleb128	2
      000907 01                    6935 	.db	1
      000908 00 00 85 28           6936 	.dw	0,(Sstm8_hd44780$lcd_bus_set$345)
      00090C 0E                    6937 	.db	14
      00090D 03                    6938 	.uleb128	3
      00090E 01                    6939 	.db	1
      00090F 00 00 85 2A           6940 	.dw	0,(Sstm8_hd44780$lcd_bus_set$346)
      000913 0E                    6941 	.db	14
      000914 04                    6942 	.uleb128	4
      000915 01                    6943 	.db	1
      000916 00 00 85 2C           6944 	.dw	0,(Sstm8_hd44780$lcd_bus_set$347)
      00091A 0E                    6945 	.db	14
      00091B 05                    6946 	.uleb128	5
      00091C 01                    6947 	.db	1
      00091D 00 00 85 31           6948 	.dw	0,(Sstm8_hd44780$lcd_bus_set$348)
      000921 0E                    6949 	.db	14
      000922 02                    6950 	.uleb128	2
                                   6951 
                                   6952 	.area .debug_frame (NOLOAD)
      000923 00 00                 6953 	.dw	0
      000925 00 0E                 6954 	.dw	Ldebug_CIE9_end-Ldebug_CIE9_start
      000927                       6955 Ldebug_CIE9_start:
      000927 FF FF                 6956 	.dw	0xffff
      000929 FF FF                 6957 	.dw	0xffff
      00092B 01                    6958 	.db	1
      00092C 00                    6959 	.db	0
      00092D 01                    6960 	.uleb128	1
      00092E 7F                    6961 	.sleb128	-1
      00092F 09                    6962 	.db	9
      000930 0C                    6963 	.db	12
      000931 08                    6964 	.uleb128	8
      000932 02                    6965 	.uleb128	2
      000933 89                    6966 	.db	137
      000934 01                    6967 	.uleb128	1
      000935                       6968 Ldebug_CIE9_end:
      000935 00 00 01 08           6969 	.dw	0,264
      000939 00 00 09 23           6970 	.dw	0,(Ldebug_CIE9_start-4)
      00093D 00 00 84 4E           6971 	.dw	0,(Sstm8_hd44780$lcd_deinit_hw$250)	;initial loc
      000941 00 00 00 5C           6972 	.dw	0,Sstm8_hd44780$lcd_deinit_hw$295-Sstm8_hd44780$lcd_deinit_hw$250
      000945 01                    6973 	.db	1
      000946 00 00 84 4E           6974 	.dw	0,(Sstm8_hd44780$lcd_deinit_hw$250)
      00094A 0E                    6975 	.db	14
      00094B 02                    6976 	.uleb128	2
      00094C 01                    6977 	.db	1
      00094D 00 00 84 50           6978 	.dw	0,(Sstm8_hd44780$lcd_deinit_hw$252)
      000951 0E                    6979 	.db	14
      000952 03                    6980 	.uleb128	3
      000953 01                    6981 	.db	1
      000954 00 00 84 52           6982 	.dw	0,(Sstm8_hd44780$lcd_deinit_hw$253)
      000958 0E                    6983 	.db	14
      000959 04                    6984 	.uleb128	4
      00095A 01                    6985 	.db	1
      00095B 00 00 84 54           6986 	.dw	0,(Sstm8_hd44780$lcd_deinit_hw$254)
      00095F 0E                    6987 	.db	14
      000960 05                    6988 	.uleb128	5
      000961 01                    6989 	.db	1
      000962 00 00 84 56           6990 	.dw	0,(Sstm8_hd44780$lcd_deinit_hw$255)
      000966 0E                    6991 	.db	14
      000967 06                    6992 	.uleb128	6
      000968 01                    6993 	.db	1
      000969 00 00 84 5B           6994 	.dw	0,(Sstm8_hd44780$lcd_deinit_hw$256)
      00096D 0E                    6995 	.db	14
      00096E 02                    6996 	.uleb128	2
      00096F 01                    6997 	.db	1
      000970 00 00 84 5D           6998 	.dw	0,(Sstm8_hd44780$lcd_deinit_hw$258)
      000974 0E                    6999 	.db	14
      000975 03                    7000 	.uleb128	3
      000976 01                    7001 	.db	1
      000977 00 00 84 5F           7002 	.dw	0,(Sstm8_hd44780$lcd_deinit_hw$259)
      00097B 0E                    7003 	.db	14
      00097C 04                    7004 	.uleb128	4
      00097D 01                    7005 	.db	1
      00097E 00 00 84 61           7006 	.dw	0,(Sstm8_hd44780$lcd_deinit_hw$260)
      000982 0E                    7007 	.db	14
      000983 05                    7008 	.uleb128	5
      000984 01                    7009 	.db	1
      000985 00 00 84 63           7010 	.dw	0,(Sstm8_hd44780$lcd_deinit_hw$261)
      000989 0E                    7011 	.db	14
      00098A 06                    7012 	.uleb128	6
      00098B 01                    7013 	.db	1
      00098C 00 00 84 68           7014 	.dw	0,(Sstm8_hd44780$lcd_deinit_hw$262)
      000990 0E                    7015 	.db	14
      000991 02                    7016 	.uleb128	2
      000992 01                    7017 	.db	1
      000993 00 00 84 6A           7018 	.dw	0,(Sstm8_hd44780$lcd_deinit_hw$264)
      000997 0E                    7019 	.db	14
      000998 03                    7020 	.uleb128	3
      000999 01                    7021 	.db	1
      00099A 00 00 84 6C           7022 	.dw	0,(Sstm8_hd44780$lcd_deinit_hw$265)
      00099E 0E                    7023 	.db	14
      00099F 04                    7024 	.uleb128	4
      0009A0 01                    7025 	.db	1
      0009A1 00 00 84 6E           7026 	.dw	0,(Sstm8_hd44780$lcd_deinit_hw$266)
      0009A5 0E                    7027 	.db	14
      0009A6 05                    7028 	.uleb128	5
      0009A7 01                    7029 	.db	1
      0009A8 00 00 84 70           7030 	.dw	0,(Sstm8_hd44780$lcd_deinit_hw$267)
      0009AC 0E                    7031 	.db	14
      0009AD 06                    7032 	.uleb128	6
      0009AE 01                    7033 	.db	1
      0009AF 00 00 84 75           7034 	.dw	0,(Sstm8_hd44780$lcd_deinit_hw$268)
      0009B3 0E                    7035 	.db	14
      0009B4 02                    7036 	.uleb128	2
      0009B5 01                    7037 	.db	1
      0009B6 00 00 84 77           7038 	.dw	0,(Sstm8_hd44780$lcd_deinit_hw$270)
      0009BA 0E                    7039 	.db	14
      0009BB 03                    7040 	.uleb128	3
      0009BC 01                    7041 	.db	1
      0009BD 00 00 84 79           7042 	.dw	0,(Sstm8_hd44780$lcd_deinit_hw$271)
      0009C1 0E                    7043 	.db	14
      0009C2 04                    7044 	.uleb128	4
      0009C3 01                    7045 	.db	1
      0009C4 00 00 84 7B           7046 	.dw	0,(Sstm8_hd44780$lcd_deinit_hw$272)
      0009C8 0E                    7047 	.db	14
      0009C9 05                    7048 	.uleb128	5
      0009CA 01                    7049 	.db	1
      0009CB 00 00 84 7D           7050 	.dw	0,(Sstm8_hd44780$lcd_deinit_hw$273)
      0009CF 0E                    7051 	.db	14
      0009D0 06                    7052 	.uleb128	6
      0009D1 01                    7053 	.db	1
      0009D2 00 00 84 82           7054 	.dw	0,(Sstm8_hd44780$lcd_deinit_hw$274)
      0009D6 0E                    7055 	.db	14
      0009D7 02                    7056 	.uleb128	2
      0009D8 01                    7057 	.db	1
      0009D9 00 00 84 84           7058 	.dw	0,(Sstm8_hd44780$lcd_deinit_hw$276)
      0009DD 0E                    7059 	.db	14
      0009DE 03                    7060 	.uleb128	3
      0009DF 01                    7061 	.db	1
      0009E0 00 00 84 86           7062 	.dw	0,(Sstm8_hd44780$lcd_deinit_hw$277)
      0009E4 0E                    7063 	.db	14
      0009E5 04                    7064 	.uleb128	4
      0009E6 01                    7065 	.db	1
      0009E7 00 00 84 88           7066 	.dw	0,(Sstm8_hd44780$lcd_deinit_hw$278)
      0009EB 0E                    7067 	.db	14
      0009EC 05                    7068 	.uleb128	5
      0009ED 01                    7069 	.db	1
      0009EE 00 00 84 8A           7070 	.dw	0,(Sstm8_hd44780$lcd_deinit_hw$279)
      0009F2 0E                    7071 	.db	14
      0009F3 06                    7072 	.uleb128	6
      0009F4 01                    7073 	.db	1
      0009F5 00 00 84 8F           7074 	.dw	0,(Sstm8_hd44780$lcd_deinit_hw$280)
      0009F9 0E                    7075 	.db	14
      0009FA 02                    7076 	.uleb128	2
      0009FB 01                    7077 	.db	1
      0009FC 00 00 84 91           7078 	.dw	0,(Sstm8_hd44780$lcd_deinit_hw$282)
      000A00 0E                    7079 	.db	14
      000A01 03                    7080 	.uleb128	3
      000A02 01                    7081 	.db	1
      000A03 00 00 84 93           7082 	.dw	0,(Sstm8_hd44780$lcd_deinit_hw$283)
      000A07 0E                    7083 	.db	14
      000A08 04                    7084 	.uleb128	4
      000A09 01                    7085 	.db	1
      000A0A 00 00 84 95           7086 	.dw	0,(Sstm8_hd44780$lcd_deinit_hw$284)
      000A0E 0E                    7087 	.db	14
      000A0F 05                    7088 	.uleb128	5
      000A10 01                    7089 	.db	1
      000A11 00 00 84 97           7090 	.dw	0,(Sstm8_hd44780$lcd_deinit_hw$285)
      000A15 0E                    7091 	.db	14
      000A16 06                    7092 	.uleb128	6
      000A17 01                    7093 	.db	1
      000A18 00 00 84 9C           7094 	.dw	0,(Sstm8_hd44780$lcd_deinit_hw$286)
      000A1C 0E                    7095 	.db	14
      000A1D 02                    7096 	.uleb128	2
      000A1E 01                    7097 	.db	1
      000A1F 00 00 84 9E           7098 	.dw	0,(Sstm8_hd44780$lcd_deinit_hw$288)
      000A23 0E                    7099 	.db	14
      000A24 03                    7100 	.uleb128	3
      000A25 01                    7101 	.db	1
      000A26 00 00 84 A0           7102 	.dw	0,(Sstm8_hd44780$lcd_deinit_hw$289)
      000A2A 0E                    7103 	.db	14
      000A2B 04                    7104 	.uleb128	4
      000A2C 01                    7105 	.db	1
      000A2D 00 00 84 A2           7106 	.dw	0,(Sstm8_hd44780$lcd_deinit_hw$290)
      000A31 0E                    7107 	.db	14
      000A32 05                    7108 	.uleb128	5
      000A33 01                    7109 	.db	1
      000A34 00 00 84 A4           7110 	.dw	0,(Sstm8_hd44780$lcd_deinit_hw$291)
      000A38 0E                    7111 	.db	14
      000A39 06                    7112 	.uleb128	6
      000A3A 01                    7113 	.db	1
      000A3B 00 00 84 A9           7114 	.dw	0,(Sstm8_hd44780$lcd_deinit_hw$292)
      000A3F 0E                    7115 	.db	14
      000A40 02                    7116 	.uleb128	2
                                   7117 
                                   7118 	.area .debug_frame (NOLOAD)
      000A41 00 00                 7119 	.dw	0
      000A43 00 0E                 7120 	.dw	Ldebug_CIE10_end-Ldebug_CIE10_start
      000A45                       7121 Ldebug_CIE10_start:
      000A45 FF FF                 7122 	.dw	0xffff
      000A47 FF FF                 7123 	.dw	0xffff
      000A49 01                    7124 	.db	1
      000A4A 00                    7125 	.db	0
      000A4B 01                    7126 	.uleb128	1
      000A4C 7F                    7127 	.sleb128	-1
      000A4D 09                    7128 	.db	9
      000A4E 0C                    7129 	.db	12
      000A4F 08                    7130 	.uleb128	8
      000A50 02                    7131 	.uleb128	2
      000A51 89                    7132 	.db	137
      000A52 01                    7133 	.uleb128	1
      000A53                       7134 Ldebug_CIE10_end:
      000A53 00 00 00 9F           7135 	.dw	0,159
      000A57 00 00 0A 41           7136 	.dw	0,(Ldebug_CIE10_start-4)
      000A5B 00 00 84 19           7137 	.dw	0,(Sstm8_hd44780$lcd_bus_inputs$221)	;initial loc
      000A5F 00 00 00 35           7138 	.dw	0,Sstm8_hd44780$lcd_bus_inputs$248-Sstm8_hd44780$lcd_bus_inputs$221
      000A63 01                    7139 	.db	1
      000A64 00 00 84 19           7140 	.dw	0,(Sstm8_hd44780$lcd_bus_inputs$221)
      000A68 0E                    7141 	.db	14
      000A69 02                    7142 	.uleb128	2
      000A6A 01                    7143 	.db	1
      000A6B 00 00 84 1B           7144 	.dw	0,(Sstm8_hd44780$lcd_bus_inputs$223)
      000A6F 0E                    7145 	.db	14
      000A70 03                    7146 	.uleb128	3
      000A71 01                    7147 	.db	1
      000A72 00 00 84 1D           7148 	.dw	0,(Sstm8_hd44780$lcd_bus_inputs$224)
      000A76 0E                    7149 	.db	14
      000A77 04                    7150 	.uleb128	4
      000A78 01                    7151 	.db	1
      000A79 00 00 84 1F           7152 	.dw	0,(Sstm8_hd44780$lcd_bus_inputs$225)
      000A7D 0E                    7153 	.db	14
      000A7E 05                    7154 	.uleb128	5
      000A7F 01                    7155 	.db	1
      000A80 00 00 84 21           7156 	.dw	0,(Sstm8_hd44780$lcd_bus_inputs$226)
      000A84 0E                    7157 	.db	14
      000A85 06                    7158 	.uleb128	6
      000A86 01                    7159 	.db	1
      000A87 00 00 84 26           7160 	.dw	0,(Sstm8_hd44780$lcd_bus_inputs$227)
      000A8B 0E                    7161 	.db	14
      000A8C 02                    7162 	.uleb128	2
      000A8D 01                    7163 	.db	1
      000A8E 00 00 84 28           7164 	.dw	0,(Sstm8_hd44780$lcd_bus_inputs$229)
      000A92 0E                    7165 	.db	14
      000A93 03                    7166 	.uleb128	3
      000A94 01                    7167 	.db	1
      000A95 00 00 84 2A           7168 	.dw	0,(Sstm8_hd44780$lcd_bus_inputs$230)
      000A99 0E                    7169 	.db	14
      000A9A 04                    7170 	.uleb128	4
      000A9B 01                    7171 	.db	1
      000A9C 00 00 84 2C           7172 	.dw	0,(Sstm8_hd44780$lcd_bus_inputs$231)
      000AA0 0E                    7173 	.db	14
      000AA1 05                    7174 	.uleb128	5
      000AA2 01                    7175 	.db	1
      000AA3 00 00 84 2E           7176 	.dw	0,(Sstm8_hd44780$lcd_bus_inputs$232)
      000AA7 0E                    7177 	.db	14
      000AA8 06                    7178 	.uleb128	6
      000AA9 01                    7179 	.db	1
      000AAA 00 00 84 33           7180 	.dw	0,(Sstm8_hd44780$lcd_bus_inputs$233)
      000AAE 0E                    7181 	.db	14
      000AAF 02                    7182 	.uleb128	2
      000AB0 01                    7183 	.db	1
      000AB1 00 00 84 35           7184 	.dw	0,(Sstm8_hd44780$lcd_bus_inputs$235)
      000AB5 0E                    7185 	.db	14
      000AB6 03                    7186 	.uleb128	3
      000AB7 01                    7187 	.db	1
      000AB8 00 00 84 37           7188 	.dw	0,(Sstm8_hd44780$lcd_bus_inputs$236)
      000ABC 0E                    7189 	.db	14
      000ABD 04                    7190 	.uleb128	4
      000ABE 01                    7191 	.db	1
      000ABF 00 00 84 39           7192 	.dw	0,(Sstm8_hd44780$lcd_bus_inputs$237)
      000AC3 0E                    7193 	.db	14
      000AC4 05                    7194 	.uleb128	5
      000AC5 01                    7195 	.db	1
      000AC6 00 00 84 3B           7196 	.dw	0,(Sstm8_hd44780$lcd_bus_inputs$238)
      000ACA 0E                    7197 	.db	14
      000ACB 06                    7198 	.uleb128	6
      000ACC 01                    7199 	.db	1
      000ACD 00 00 84 40           7200 	.dw	0,(Sstm8_hd44780$lcd_bus_inputs$239)
      000AD1 0E                    7201 	.db	14
      000AD2 02                    7202 	.uleb128	2
      000AD3 01                    7203 	.db	1
      000AD4 00 00 84 42           7204 	.dw	0,(Sstm8_hd44780$lcd_bus_inputs$241)
      000AD8 0E                    7205 	.db	14
      000AD9 03                    7206 	.uleb128	3
      000ADA 01                    7207 	.db	1
      000ADB 00 00 84 44           7208 	.dw	0,(Sstm8_hd44780$lcd_bus_inputs$242)
      000ADF 0E                    7209 	.db	14
      000AE0 04                    7210 	.uleb128	4
      000AE1 01                    7211 	.db	1
      000AE2 00 00 84 46           7212 	.dw	0,(Sstm8_hd44780$lcd_bus_inputs$243)
      000AE6 0E                    7213 	.db	14
      000AE7 05                    7214 	.uleb128	5
      000AE8 01                    7215 	.db	1
      000AE9 00 00 84 48           7216 	.dw	0,(Sstm8_hd44780$lcd_bus_inputs$244)
      000AED 0E                    7217 	.db	14
      000AEE 06                    7218 	.uleb128	6
      000AEF 01                    7219 	.db	1
      000AF0 00 00 84 4D           7220 	.dw	0,(Sstm8_hd44780$lcd_bus_inputs$245)
      000AF4 0E                    7221 	.db	14
      000AF5 02                    7222 	.uleb128	2
                                   7223 
                                   7224 	.area .debug_frame (NOLOAD)
      000AF6 00 00                 7225 	.dw	0
      000AF8 00 0E                 7226 	.dw	Ldebug_CIE11_end-Ldebug_CIE11_start
      000AFA                       7227 Ldebug_CIE11_start:
      000AFA FF FF                 7228 	.dw	0xffff
      000AFC FF FF                 7229 	.dw	0xffff
      000AFE 01                    7230 	.db	1
      000AFF 00                    7231 	.db	0
      000B00 01                    7232 	.uleb128	1
      000B01 7F                    7233 	.sleb128	-1
      000B02 09                    7234 	.db	9
      000B03 0C                    7235 	.db	12
      000B04 08                    7236 	.uleb128	8
      000B05 02                    7237 	.uleb128	2
      000B06 89                    7238 	.db	137
      000B07 01                    7239 	.uleb128	1
      000B08                       7240 Ldebug_CIE11_end:
      000B08 00 00 00 9F           7241 	.dw	0,159
      000B0C 00 00 0A F6           7242 	.dw	0,(Ldebug_CIE11_start-4)
      000B10 00 00 83 E4           7243 	.dw	0,(Sstm8_hd44780$lcd_bus_outputs$192)	;initial loc
      000B14 00 00 00 35           7244 	.dw	0,Sstm8_hd44780$lcd_bus_outputs$219-Sstm8_hd44780$lcd_bus_outputs$192
      000B18 01                    7245 	.db	1
      000B19 00 00 83 E4           7246 	.dw	0,(Sstm8_hd44780$lcd_bus_outputs$192)
      000B1D 0E                    7247 	.db	14
      000B1E 02                    7248 	.uleb128	2
      000B1F 01                    7249 	.db	1
      000B20 00 00 83 E6           7250 	.dw	0,(Sstm8_hd44780$lcd_bus_outputs$194)
      000B24 0E                    7251 	.db	14
      000B25 03                    7252 	.uleb128	3
      000B26 01                    7253 	.db	1
      000B27 00 00 83 E8           7254 	.dw	0,(Sstm8_hd44780$lcd_bus_outputs$195)
      000B2B 0E                    7255 	.db	14
      000B2C 04                    7256 	.uleb128	4
      000B2D 01                    7257 	.db	1
      000B2E 00 00 83 EA           7258 	.dw	0,(Sstm8_hd44780$lcd_bus_outputs$196)
      000B32 0E                    7259 	.db	14
      000B33 05                    7260 	.uleb128	5
      000B34 01                    7261 	.db	1
      000B35 00 00 83 EC           7262 	.dw	0,(Sstm8_hd44780$lcd_bus_outputs$197)
      000B39 0E                    7263 	.db	14
      000B3A 06                    7264 	.uleb128	6
      000B3B 01                    7265 	.db	1
      000B3C 00 00 83 F1           7266 	.dw	0,(Sstm8_hd44780$lcd_bus_outputs$198)
      000B40 0E                    7267 	.db	14
      000B41 02                    7268 	.uleb128	2
      000B42 01                    7269 	.db	1
      000B43 00 00 83 F3           7270 	.dw	0,(Sstm8_hd44780$lcd_bus_outputs$200)
      000B47 0E                    7271 	.db	14
      000B48 03                    7272 	.uleb128	3
      000B49 01                    7273 	.db	1
      000B4A 00 00 83 F5           7274 	.dw	0,(Sstm8_hd44780$lcd_bus_outputs$201)
      000B4E 0E                    7275 	.db	14
      000B4F 04                    7276 	.uleb128	4
      000B50 01                    7277 	.db	1
      000B51 00 00 83 F7           7278 	.dw	0,(Sstm8_hd44780$lcd_bus_outputs$202)
      000B55 0E                    7279 	.db	14
      000B56 05                    7280 	.uleb128	5
      000B57 01                    7281 	.db	1
      000B58 00 00 83 F9           7282 	.dw	0,(Sstm8_hd44780$lcd_bus_outputs$203)
      000B5C 0E                    7283 	.db	14
      000B5D 06                    7284 	.uleb128	6
      000B5E 01                    7285 	.db	1
      000B5F 00 00 83 FE           7286 	.dw	0,(Sstm8_hd44780$lcd_bus_outputs$204)
      000B63 0E                    7287 	.db	14
      000B64 02                    7288 	.uleb128	2
      000B65 01                    7289 	.db	1
      000B66 00 00 84 00           7290 	.dw	0,(Sstm8_hd44780$lcd_bus_outputs$206)
      000B6A 0E                    7291 	.db	14
      000B6B 03                    7292 	.uleb128	3
      000B6C 01                    7293 	.db	1
      000B6D 00 00 84 02           7294 	.dw	0,(Sstm8_hd44780$lcd_bus_outputs$207)
      000B71 0E                    7295 	.db	14
      000B72 04                    7296 	.uleb128	4
      000B73 01                    7297 	.db	1
      000B74 00 00 84 04           7298 	.dw	0,(Sstm8_hd44780$lcd_bus_outputs$208)
      000B78 0E                    7299 	.db	14
      000B79 05                    7300 	.uleb128	5
      000B7A 01                    7301 	.db	1
      000B7B 00 00 84 06           7302 	.dw	0,(Sstm8_hd44780$lcd_bus_outputs$209)
      000B7F 0E                    7303 	.db	14
      000B80 06                    7304 	.uleb128	6
      000B81 01                    7305 	.db	1
      000B82 00 00 84 0B           7306 	.dw	0,(Sstm8_hd44780$lcd_bus_outputs$210)
      000B86 0E                    7307 	.db	14
      000B87 02                    7308 	.uleb128	2
      000B88 01                    7309 	.db	1
      000B89 00 00 84 0D           7310 	.dw	0,(Sstm8_hd44780$lcd_bus_outputs$212)
      000B8D 0E                    7311 	.db	14
      000B8E 03                    7312 	.uleb128	3
      000B8F 01                    7313 	.db	1
      000B90 00 00 84 0F           7314 	.dw	0,(Sstm8_hd44780$lcd_bus_outputs$213)
      000B94 0E                    7315 	.db	14
      000B95 04                    7316 	.uleb128	4
      000B96 01                    7317 	.db	1
      000B97 00 00 84 11           7318 	.dw	0,(Sstm8_hd44780$lcd_bus_outputs$214)
      000B9B 0E                    7319 	.db	14
      000B9C 05                    7320 	.uleb128	5
      000B9D 01                    7321 	.db	1
      000B9E 00 00 84 13           7322 	.dw	0,(Sstm8_hd44780$lcd_bus_outputs$215)
      000BA2 0E                    7323 	.db	14
      000BA3 06                    7324 	.uleb128	6
      000BA4 01                    7325 	.db	1
      000BA5 00 00 84 18           7326 	.dw	0,(Sstm8_hd44780$lcd_bus_outputs$216)
      000BA9 0E                    7327 	.db	14
      000BAA 02                    7328 	.uleb128	2
                                   7329 
                                   7330 	.area .debug_frame (NOLOAD)
      000BAB 00 00                 7331 	.dw	0
      000BAD 00 0E                 7332 	.dw	Ldebug_CIE12_end-Ldebug_CIE12_start
      000BAF                       7333 Ldebug_CIE12_start:
      000BAF FF FF                 7334 	.dw	0xffff
      000BB1 FF FF                 7335 	.dw	0xffff
      000BB3 01                    7336 	.db	1
      000BB4 00                    7337 	.db	0
      000BB5 01                    7338 	.uleb128	1
      000BB6 7F                    7339 	.sleb128	-1
      000BB7 09                    7340 	.db	9
      000BB8 0C                    7341 	.db	12
      000BB9 08                    7342 	.uleb128	8
      000BBA 02                    7343 	.uleb128	2
      000BBB 89                    7344 	.db	137
      000BBC 01                    7345 	.uleb128	1
      000BBD                       7346 Ldebug_CIE12_end:
      000BBD 00 00 00 7C           7347 	.dw	0,124
      000BC1 00 00 0B AB           7348 	.dw	0,(Ldebug_CIE12_start-4)
      000BC5 00 00 83 B9           7349 	.dw	0,(Sstm8_hd44780$lcd_init_hw$168)	;initial loc
      000BC9 00 00 00 2B           7350 	.dw	0,Sstm8_hd44780$lcd_init_hw$190-Sstm8_hd44780$lcd_init_hw$168
      000BCD 01                    7351 	.db	1
      000BCE 00 00 83 B9           7352 	.dw	0,(Sstm8_hd44780$lcd_init_hw$168)
      000BD2 0E                    7353 	.db	14
      000BD3 02                    7354 	.uleb128	2
      000BD4 01                    7355 	.db	1
      000BD5 00 00 83 BB           7356 	.dw	0,(Sstm8_hd44780$lcd_init_hw$170)
      000BD9 0E                    7357 	.db	14
      000BDA 03                    7358 	.uleb128	3
      000BDB 01                    7359 	.db	1
      000BDC 00 00 83 BD           7360 	.dw	0,(Sstm8_hd44780$lcd_init_hw$171)
      000BE0 0E                    7361 	.db	14
      000BE1 04                    7362 	.uleb128	4
      000BE2 01                    7363 	.db	1
      000BE3 00 00 83 BF           7364 	.dw	0,(Sstm8_hd44780$lcd_init_hw$172)
      000BE7 0E                    7365 	.db	14
      000BE8 05                    7366 	.uleb128	5
      000BE9 01                    7367 	.db	1
      000BEA 00 00 83 C1           7368 	.dw	0,(Sstm8_hd44780$lcd_init_hw$173)
      000BEE 0E                    7369 	.db	14
      000BEF 06                    7370 	.uleb128	6
      000BF0 01                    7371 	.db	1
      000BF1 00 00 83 C6           7372 	.dw	0,(Sstm8_hd44780$lcd_init_hw$174)
      000BF5 0E                    7373 	.db	14
      000BF6 02                    7374 	.uleb128	2
      000BF7 01                    7375 	.db	1
      000BF8 00 00 83 C8           7376 	.dw	0,(Sstm8_hd44780$lcd_init_hw$176)
      000BFC 0E                    7377 	.db	14
      000BFD 03                    7378 	.uleb128	3
      000BFE 01                    7379 	.db	1
      000BFF 00 00 83 CA           7380 	.dw	0,(Sstm8_hd44780$lcd_init_hw$177)
      000C03 0E                    7381 	.db	14
      000C04 04                    7382 	.uleb128	4
      000C05 01                    7383 	.db	1
      000C06 00 00 83 CC           7384 	.dw	0,(Sstm8_hd44780$lcd_init_hw$178)
      000C0A 0E                    7385 	.db	14
      000C0B 05                    7386 	.uleb128	5
      000C0C 01                    7387 	.db	1
      000C0D 00 00 83 CE           7388 	.dw	0,(Sstm8_hd44780$lcd_init_hw$179)
      000C11 0E                    7389 	.db	14
      000C12 06                    7390 	.uleb128	6
      000C13 01                    7391 	.db	1
      000C14 00 00 83 D3           7392 	.dw	0,(Sstm8_hd44780$lcd_init_hw$180)
      000C18 0E                    7393 	.db	14
      000C19 02                    7394 	.uleb128	2
      000C1A 01                    7395 	.db	1
      000C1B 00 00 83 D5           7396 	.dw	0,(Sstm8_hd44780$lcd_init_hw$182)
      000C1F 0E                    7397 	.db	14
      000C20 03                    7398 	.uleb128	3
      000C21 01                    7399 	.db	1
      000C22 00 00 83 D7           7400 	.dw	0,(Sstm8_hd44780$lcd_init_hw$183)
      000C26 0E                    7401 	.db	14
      000C27 04                    7402 	.uleb128	4
      000C28 01                    7403 	.db	1
      000C29 00 00 83 D9           7404 	.dw	0,(Sstm8_hd44780$lcd_init_hw$184)
      000C2D 0E                    7405 	.db	14
      000C2E 05                    7406 	.uleb128	5
      000C2F 01                    7407 	.db	1
      000C30 00 00 83 DB           7408 	.dw	0,(Sstm8_hd44780$lcd_init_hw$185)
      000C34 0E                    7409 	.db	14
      000C35 06                    7410 	.uleb128	6
      000C36 01                    7411 	.db	1
      000C37 00 00 83 E0           7412 	.dw	0,(Sstm8_hd44780$lcd_init_hw$186)
      000C3B 0E                    7413 	.db	14
      000C3C 02                    7414 	.uleb128	2
                                   7415 
                                   7416 	.area .debug_frame (NOLOAD)
      000C3D 00 00                 7417 	.dw	0
      000C3F 00 0E                 7418 	.dw	Ldebug_CIE13_end-Ldebug_CIE13_start
      000C41                       7419 Ldebug_CIE13_start:
      000C41 FF FF                 7420 	.dw	0xffff
      000C43 FF FF                 7421 	.dw	0xffff
      000C45 01                    7422 	.db	1
      000C46 00                    7423 	.db	0
      000C47 01                    7424 	.uleb128	1
      000C48 7F                    7425 	.sleb128	-1
      000C49 09                    7426 	.db	9
      000C4A 0C                    7427 	.db	12
      000C4B 08                    7428 	.uleb128	8
      000C4C 02                    7429 	.uleb128	2
      000C4D 89                    7430 	.db	137
      000C4E 01                    7431 	.uleb128	1
      000C4F                       7432 Ldebug_CIE13_end:
      000C4F 00 00 00 28           7433 	.dw	0,40
      000C53 00 00 0C 3D           7434 	.dw	0,(Ldebug_CIE13_start-4)
      000C57 00 00 83 87           7435 	.dw	0,(Sstm8_hd44780$lcd_gotoxy$148)	;initial loc
      000C5B 00 00 00 32           7436 	.dw	0,Sstm8_hd44780$lcd_gotoxy$166-Sstm8_hd44780$lcd_gotoxy$148
      000C5F 01                    7437 	.db	1
      000C60 00 00 83 87           7438 	.dw	0,(Sstm8_hd44780$lcd_gotoxy$148)
      000C64 0E                    7439 	.db	14
      000C65 02                    7440 	.uleb128	2
      000C66 01                    7441 	.db	1
      000C67 00 00 83 AB           7442 	.dw	0,(Sstm8_hd44780$lcd_gotoxy$157)
      000C6B 0E                    7443 	.db	14
      000C6C 02                    7444 	.uleb128	2
      000C6D 01                    7445 	.db	1
      000C6E 00 00 83 B4           7446 	.dw	0,(Sstm8_hd44780$lcd_gotoxy$162)
      000C72 0E                    7447 	.db	14
      000C73 03                    7448 	.uleb128	3
      000C74 01                    7449 	.db	1
      000C75 00 00 83 B8           7450 	.dw	0,(Sstm8_hd44780$lcd_gotoxy$163)
      000C79 0E                    7451 	.db	14
      000C7A 02                    7452 	.uleb128	2
                                   7453 
                                   7454 	.area .debug_frame (NOLOAD)
      000C7B 00 00                 7455 	.dw	0
      000C7D 00 0E                 7456 	.dw	Ldebug_CIE14_end-Ldebug_CIE14_start
      000C7F                       7457 Ldebug_CIE14_start:
      000C7F FF FF                 7458 	.dw	0xffff
      000C81 FF FF                 7459 	.dw	0xffff
      000C83 01                    7460 	.db	1
      000C84 00                    7461 	.db	0
      000C85 01                    7462 	.uleb128	1
      000C86 7F                    7463 	.sleb128	-1
      000C87 09                    7464 	.db	9
      000C88 0C                    7465 	.db	12
      000C89 08                    7466 	.uleb128	8
      000C8A 02                    7467 	.uleb128	2
      000C8B 89                    7468 	.db	137
      000C8C 01                    7469 	.uleb128	1
      000C8D                       7470 Ldebug_CIE14_end:
      000C8D 00 00 00 9F           7471 	.dw	0,159
      000C91 00 00 0C 7B           7472 	.dw	0,(Ldebug_CIE14_start-4)
      000C95 00 00 83 04           7473 	.dw	0,(Sstm8_hd44780$lcd_init$79)	;initial loc
      000C99 00 00 00 83           7474 	.dw	0,Sstm8_hd44780$lcd_init$146-Sstm8_hd44780$lcd_init$79
      000C9D 01                    7475 	.db	1
      000C9E 00 00 83 04           7476 	.dw	0,(Sstm8_hd44780$lcd_init$79)
      000CA2 0E                    7477 	.db	14
      000CA3 02                    7478 	.uleb128	2
      000CA4 01                    7479 	.db	1
      000CA5 00 00 83 19           7480 	.dw	0,(Sstm8_hd44780$lcd_init$90)
      000CA9 0E                    7481 	.db	14
      000CAA 03                    7482 	.uleb128	3
      000CAB 01                    7483 	.db	1
      000CAC 00 00 83 1D           7484 	.dw	0,(Sstm8_hd44780$lcd_init$91)
      000CB0 0E                    7485 	.db	14
      000CB1 02                    7486 	.uleb128	2
      000CB2 01                    7487 	.db	1
      000CB3 00 00 83 2F           7488 	.dw	0,(Sstm8_hd44780$lcd_init$101)
      000CB7 0E                    7489 	.db	14
      000CB8 03                    7490 	.uleb128	3
      000CB9 01                    7491 	.db	1
      000CBA 00 00 83 33           7492 	.dw	0,(Sstm8_hd44780$lcd_init$102)
      000CBE 0E                    7493 	.db	14
      000CBF 02                    7494 	.uleb128	2
      000CC0 01                    7495 	.db	1
      000CC1 00 00 83 45           7496 	.dw	0,(Sstm8_hd44780$lcd_init$112)
      000CC5 0E                    7497 	.db	14
      000CC6 03                    7498 	.uleb128	3
      000CC7 01                    7499 	.db	1
      000CC8 00 00 83 49           7500 	.dw	0,(Sstm8_hd44780$lcd_init$113)
      000CCC 0E                    7501 	.db	14
      000CCD 02                    7502 	.uleb128	2
      000CCE 01                    7503 	.db	1
      000CCF 00 00 83 4E           7504 	.dw	0,(Sstm8_hd44780$lcd_init$116)
      000CD3 0E                    7505 	.db	14
      000CD4 03                    7506 	.uleb128	3
      000CD5 01                    7507 	.db	1
      000CD6 00 00 83 52           7508 	.dw	0,(Sstm8_hd44780$lcd_init$117)
      000CDA 0E                    7509 	.db	14
      000CDB 02                    7510 	.uleb128	2
      000CDC 01                    7511 	.db	1
      000CDD 00 00 83 64           7512 	.dw	0,(Sstm8_hd44780$lcd_init$127)
      000CE1 0E                    7513 	.db	14
      000CE2 03                    7514 	.uleb128	3
      000CE3 01                    7515 	.db	1
      000CE4 00 00 83 68           7516 	.dw	0,(Sstm8_hd44780$lcd_init$128)
      000CE8 0E                    7517 	.db	14
      000CE9 02                    7518 	.uleb128	2
      000CEA 01                    7519 	.db	1
      000CEB 00 00 83 6A           7520 	.dw	0,(Sstm8_hd44780$lcd_init$130)
      000CEF 0E                    7521 	.db	14
      000CF0 03                    7522 	.uleb128	3
      000CF1 01                    7523 	.db	1
      000CF2 00 00 83 6E           7524 	.dw	0,(Sstm8_hd44780$lcd_init$131)
      000CF6 0E                    7525 	.db	14
      000CF7 02                    7526 	.uleb128	2
      000CF8 01                    7527 	.db	1
      000CF9 00 00 83 70           7528 	.dw	0,(Sstm8_hd44780$lcd_init$133)
      000CFD 0E                    7529 	.db	14
      000CFE 03                    7530 	.uleb128	3
      000CFF 01                    7531 	.db	1
      000D00 00 00 83 74           7532 	.dw	0,(Sstm8_hd44780$lcd_init$134)
      000D04 0E                    7533 	.db	14
      000D05 02                    7534 	.uleb128	2
      000D06 01                    7535 	.db	1
      000D07 00 00 83 76           7536 	.dw	0,(Sstm8_hd44780$lcd_init$136)
      000D0B 0E                    7537 	.db	14
      000D0C 03                    7538 	.uleb128	3
      000D0D 01                    7539 	.db	1
      000D0E 00 00 83 7A           7540 	.dw	0,(Sstm8_hd44780$lcd_init$137)
      000D12 0E                    7541 	.db	14
      000D13 02                    7542 	.uleb128	2
      000D14 01                    7543 	.db	1
      000D15 00 00 83 7C           7544 	.dw	0,(Sstm8_hd44780$lcd_init$139)
      000D19 0E                    7545 	.db	14
      000D1A 03                    7546 	.uleb128	3
      000D1B 01                    7547 	.db	1
      000D1C 00 00 83 80           7548 	.dw	0,(Sstm8_hd44780$lcd_init$140)
      000D20 0E                    7549 	.db	14
      000D21 02                    7550 	.uleb128	2
      000D22 01                    7551 	.db	1
      000D23 00 00 83 82           7552 	.dw	0,(Sstm8_hd44780$lcd_init$142)
      000D27 0E                    7553 	.db	14
      000D28 03                    7554 	.uleb128	3
      000D29 01                    7555 	.db	1
      000D2A 00 00 83 86           7556 	.dw	0,(Sstm8_hd44780$lcd_init$143)
      000D2E 0E                    7557 	.db	14
      000D2F 02                    7558 	.uleb128	2
                                   7559 
                                   7560 	.area .debug_frame (NOLOAD)
      000D30 00 00                 7561 	.dw	0
      000D32 00 0E                 7562 	.dw	Ldebug_CIE15_end-Ldebug_CIE15_start
      000D34                       7563 Ldebug_CIE15_start:
      000D34 FF FF                 7564 	.dw	0xffff
      000D36 FF FF                 7565 	.dw	0xffff
      000D38 01                    7566 	.db	1
      000D39 00                    7567 	.db	0
      000D3A 01                    7568 	.uleb128	1
      000D3B 7F                    7569 	.sleb128	-1
      000D3C 09                    7570 	.db	9
      000D3D 0C                    7571 	.db	12
      000D3E 08                    7572 	.uleb128	8
      000D3F 02                    7573 	.uleb128	2
      000D40 89                    7574 	.db	137
      000D41 01                    7575 	.uleb128	1
      000D42                       7576 Ldebug_CIE15_end:
      000D42 00 00 00 2F           7577 	.dw	0,47
      000D46 00 00 0D 30           7578 	.dw	0,(Ldebug_CIE15_start-4)
      000D4A 00 00 82 EF           7579 	.dw	0,(Sstm8_hd44780$lcd_puts$65)	;initial loc
      000D4E 00 00 00 15           7580 	.dw	0,Sstm8_hd44780$lcd_puts$77-Sstm8_hd44780$lcd_puts$65
      000D52 01                    7581 	.db	1
      000D53 00 00 82 EF           7582 	.dw	0,(Sstm8_hd44780$lcd_puts$65)
      000D57 0E                    7583 	.db	14
      000D58 02                    7584 	.uleb128	2
      000D59 01                    7585 	.db	1
      000D5A 00 00 82 F9           7586 	.dw	0,(Sstm8_hd44780$lcd_puts$69)
      000D5E 0E                    7587 	.db	14
      000D5F 04                    7588 	.uleb128	4
      000D60 01                    7589 	.db	1
      000D61 00 00 82 FA           7590 	.dw	0,(Sstm8_hd44780$lcd_puts$70)
      000D65 0E                    7591 	.db	14
      000D66 05                    7592 	.uleb128	5
      000D67 01                    7593 	.db	1
      000D68 00 00 82 FE           7594 	.dw	0,(Sstm8_hd44780$lcd_puts$71)
      000D6C 0E                    7595 	.db	14
      000D6D 04                    7596 	.uleb128	4
      000D6E 01                    7597 	.db	1
      000D6F 00 00 82 FF           7598 	.dw	0,(Sstm8_hd44780$lcd_puts$72)
      000D73 0E                    7599 	.db	14
      000D74 02                    7600 	.uleb128	2
                                   7601 
                                   7602 	.area .debug_frame (NOLOAD)
      000D75 00 00                 7603 	.dw	0
      000D77 00 0E                 7604 	.dw	Ldebug_CIE16_end-Ldebug_CIE16_start
      000D79                       7605 Ldebug_CIE16_start:
      000D79 FF FF                 7606 	.dw	0xffff
      000D7B FF FF                 7607 	.dw	0xffff
      000D7D 01                    7608 	.db	1
      000D7E 00                    7609 	.db	0
      000D7F 01                    7610 	.uleb128	1
      000D80 7F                    7611 	.sleb128	-1
      000D81 09                    7612 	.db	9
      000D82 0C                    7613 	.db	12
      000D83 08                    7614 	.uleb128	8
      000D84 02                    7615 	.uleb128	2
      000D85 89                    7616 	.db	137
      000D86 01                    7617 	.uleb128	1
      000D87                       7618 Ldebug_CIE16_end:
      000D87 00 00 00 4B           7619 	.dw	0,75
      000D8B 00 00 0D 75           7620 	.dw	0,(Ldebug_CIE16_start-4)
      000D8F 00 00 82 B7           7621 	.dw	0,(Sstm8_hd44780$lcd_store_symbol$44)	;initial loc
      000D93 00 00 00 38           7622 	.dw	0,Sstm8_hd44780$lcd_store_symbol$63-Sstm8_hd44780$lcd_store_symbol$44
      000D97 01                    7623 	.db	1
      000D98 00 00 82 B7           7624 	.dw	0,(Sstm8_hd44780$lcd_store_symbol$44)
      000D9C 0E                    7625 	.db	14
      000D9D 02                    7626 	.uleb128	2
      000D9E 01                    7627 	.db	1
      000D9F 00 00 82 B8           7628 	.dw	0,(Sstm8_hd44780$lcd_store_symbol$45)
      000DA3 0E                    7629 	.db	14
      000DA4 03                    7630 	.uleb128	3
      000DA5 01                    7631 	.db	1
      000DA6 00 00 82 C9           7632 	.dw	0,(Sstm8_hd44780$lcd_store_symbol$48)
      000DAA 0E                    7633 	.db	14
      000DAB 04                    7634 	.uleb128	4
      000DAC 01                    7635 	.db	1
      000DAD 00 00 82 CD           7636 	.dw	0,(Sstm8_hd44780$lcd_store_symbol$49)
      000DB1 0E                    7637 	.db	14
      000DB2 03                    7638 	.uleb128	3
      000DB3 01                    7639 	.db	1
      000DB4 00 00 82 D8           7640 	.dw	0,(Sstm8_hd44780$lcd_store_symbol$53)
      000DB8 0E                    7641 	.db	14
      000DB9 04                    7642 	.uleb128	4
      000DBA 01                    7643 	.db	1
      000DBB 00 00 82 DC           7644 	.dw	0,(Sstm8_hd44780$lcd_store_symbol$54)
      000DBF 0E                    7645 	.db	14
      000DC0 03                    7646 	.uleb128	3
      000DC1 01                    7647 	.db	1
      000DC2 00 00 82 E9           7648 	.dw	0,(Sstm8_hd44780$lcd_store_symbol$58)
      000DC6 0E                    7649 	.db	14
      000DC7 04                    7650 	.uleb128	4
      000DC8 01                    7651 	.db	1
      000DC9 00 00 82 ED           7652 	.dw	0,(Sstm8_hd44780$lcd_store_symbol$59)
      000DCD 0E                    7653 	.db	14
      000DCE 03                    7654 	.uleb128	3
      000DCF 01                    7655 	.db	1
      000DD0 00 00 82 EE           7656 	.dw	0,(Sstm8_hd44780$lcd_store_symbol$61)
      000DD4 0E                    7657 	.db	14
      000DD5 02                    7658 	.uleb128	2
                                   7659 
                                   7660 	.area .debug_frame (NOLOAD)
      000DD6 00 00                 7661 	.dw	0
      000DD8 00 0E                 7662 	.dw	Ldebug_CIE17_end-Ldebug_CIE17_start
      000DDA                       7663 Ldebug_CIE17_start:
      000DDA FF FF                 7664 	.dw	0xffff
      000DDC FF FF                 7665 	.dw	0xffff
      000DDE 01                    7666 	.db	1
      000DDF 00                    7667 	.db	0
      000DE0 01                    7668 	.uleb128	1
      000DE1 7F                    7669 	.sleb128	-1
      000DE2 09                    7670 	.db	9
      000DE3 0C                    7671 	.db	12
      000DE4 08                    7672 	.uleb128	8
      000DE5 02                    7673 	.uleb128	2
      000DE6 89                    7674 	.db	137
      000DE7 01                    7675 	.uleb128	1
      000DE8                       7676 Ldebug_CIE17_end:
      000DE8 00 00 00 75           7677 	.dw	0,117
      000DEC 00 00 0D D6           7678 	.dw	0,(Ldebug_CIE17_start-4)
      000DF0 00 00 82 7F           7679 	.dw	0,(Sstm8_hd44780$_delay_us$13)	;initial loc
      000DF4 00 00 00 38           7680 	.dw	0,Sstm8_hd44780$_delay_us$42-Sstm8_hd44780$_delay_us$13
      000DF8 01                    7681 	.db	1
      000DF9 00 00 82 7F           7682 	.dw	0,(Sstm8_hd44780$_delay_us$13)
      000DFD 0E                    7683 	.db	14
      000DFE 02                    7684 	.uleb128	2
      000DFF 01                    7685 	.db	1
      000E00 00 00 82 84           7686 	.dw	0,(Sstm8_hd44780$_delay_us$15)
      000E04 0E                    7687 	.db	14
      000E05 04                    7688 	.uleb128	4
      000E06 01                    7689 	.db	1
      000E07 00 00 82 85           7690 	.dw	0,(Sstm8_hd44780$_delay_us$16)
      000E0B 0E                    7691 	.db	14
      000E0C 06                    7692 	.uleb128	6
      000E0D 01                    7693 	.db	1
      000E0E 00 00 82 87           7694 	.dw	0,(Sstm8_hd44780$_delay_us$17)
      000E12 0E                    7695 	.db	14
      000E13 07                    7696 	.uleb128	7
      000E14 01                    7697 	.db	1
      000E15 00 00 82 89           7698 	.dw	0,(Sstm8_hd44780$_delay_us$18)
      000E19 0E                    7699 	.db	14
      000E1A 08                    7700 	.uleb128	8
      000E1B 01                    7701 	.db	1
      000E1C 00 00 82 8B           7702 	.dw	0,(Sstm8_hd44780$_delay_us$19)
      000E20 0E                    7703 	.db	14
      000E21 09                    7704 	.uleb128	9
      000E22 01                    7705 	.db	1
      000E23 00 00 82 8D           7706 	.dw	0,(Sstm8_hd44780$_delay_us$20)
      000E27 0E                    7707 	.db	14
      000E28 0A                    7708 	.uleb128	10
      000E29 01                    7709 	.db	1
      000E2A 00 00 82 92           7710 	.dw	0,(Sstm8_hd44780$_delay_us$21)
      000E2E 0E                    7711 	.db	14
      000E2F 02                    7712 	.uleb128	2
      000E30 01                    7713 	.db	1
      000E31 00 00 82 94           7714 	.dw	0,(Sstm8_hd44780$_delay_us$23)
      000E35 0E                    7715 	.db	14
      000E36 03                    7716 	.uleb128	3
      000E37 01                    7717 	.db	1
      000E38 00 00 82 96           7718 	.dw	0,(Sstm8_hd44780$_delay_us$24)
      000E3C 0E                    7719 	.db	14
      000E3D 04                    7720 	.uleb128	4
      000E3E 01                    7721 	.db	1
      000E3F 00 00 82 98           7722 	.dw	0,(Sstm8_hd44780$_delay_us$25)
      000E43 0E                    7723 	.db	14
      000E44 05                    7724 	.uleb128	5
      000E45 01                    7725 	.db	1
      000E46 00 00 82 9A           7726 	.dw	0,(Sstm8_hd44780$_delay_us$26)
      000E4A 0E                    7727 	.db	14
      000E4B 06                    7728 	.uleb128	6
      000E4C 01                    7729 	.db	1
      000E4D 00 00 82 9B           7730 	.dw	0,(Sstm8_hd44780$_delay_us$27)
      000E51 0E                    7731 	.db	14
      000E52 08                    7732 	.uleb128	8
      000E53 01                    7733 	.db	1
      000E54 00 00 82 9D           7734 	.dw	0,(Sstm8_hd44780$_delay_us$28)
      000E58 0E                    7735 	.db	14
      000E59 0A                    7736 	.uleb128	10
      000E5A 01                    7737 	.db	1
      000E5B 00 00 82 A2           7738 	.dw	0,(Sstm8_hd44780$_delay_us$29)
      000E5F 0E                    7739 	.db	14
      000E60 02                    7740 	.uleb128	2
                                   7741 
                                   7742 	.area .debug_frame (NOLOAD)
      000E61 00 00                 7743 	.dw	0
      000E63 00 0E                 7744 	.dw	Ldebug_CIE18_end-Ldebug_CIE18_start
      000E65                       7745 Ldebug_CIE18_start:
      000E65 FF FF                 7746 	.dw	0xffff
      000E67 FF FF                 7747 	.dw	0xffff
      000E69 01                    7748 	.db	1
      000E6A 00                    7749 	.db	0
      000E6B 01                    7750 	.uleb128	1
      000E6C 7F                    7751 	.sleb128	-1
      000E6D 09                    7752 	.db	9
      000E6E 0C                    7753 	.db	12
      000E6F 08                    7754 	.uleb128	8
      000E70 02                    7755 	.uleb128	2
      000E71 89                    7756 	.db	137
      000E72 01                    7757 	.uleb128	1
      000E73                       7758 Ldebug_CIE18_end:
      000E73 00 00 00 13           7759 	.dw	0,19
      000E77 00 00 0E 61           7760 	.dw	0,(Ldebug_CIE18_start-4)
      000E7B 00 00 82 72           7761 	.dw	0,(Sstm8_hd44780$_delay_cycl$1)	;initial loc
      000E7F 00 00 00 0D           7762 	.dw	0,Sstm8_hd44780$_delay_cycl$11-Sstm8_hd44780$_delay_cycl$1
      000E83 01                    7763 	.db	1
      000E84 00 00 82 72           7764 	.dw	0,(Sstm8_hd44780$_delay_cycl$1)
      000E88 0E                    7765 	.db	14
      000E89 02                    7766 	.uleb128	2
