                                      1 ;--------------------------------------------------------
                                      2 ; File Created by SDCC : free open source ANSI-C Compiler
                                      3 ; Version 4.1.0 #12072 (MINGW64)
                                      4 ;--------------------------------------------------------
                                      5 	.module stm8_hd44780
                                      6 	.optsdcc -mstm8
                                      7 	
                                      8 ;--------------------------------------------------------
                                      9 ; Public variables in this module
                                     10 ;--------------------------------------------------------
                                     11 	.globl _GPIO_ReadInputPin
                                     12 	.globl _GPIO_WriteLow
                                     13 	.globl _GPIO_WriteHigh
                                     14 	.globl _GPIO_Init
                                     15 	.globl _lcd_store_symbol
                                     16 	.globl _lcd_puts
                                     17 	.globl _lcd_init
                                     18 	.globl _lcd_gotoxy
                                     19 	.globl _lcd_init_hw
                                     20 	.globl _lcd_bus_outputs
                                     21 	.globl _lcd_bus_inputs
                                     22 	.globl _lcd_deinit_hw
                                     23 	.globl _lcd_bus_set
                                     24 	.globl _lcd_bus_read
                                     25 	.globl _lcd_e_tick
                                     26 	.globl _lcd_command
                                     27 	.globl _lcd_data
                                     28 	.globl _lcd_read
                                     29 	.globl _lcd_bus_sleep
                                     30 	.globl _lcd_bus_wakeup
                                     31 	.globl _lcd_busy_wait
                                     32 ;--------------------------------------------------------
                                     33 ; ram data
                                     34 ;--------------------------------------------------------
                                     35 	.area DATA
                                     36 ;--------------------------------------------------------
                                     37 ; ram data
                                     38 ;--------------------------------------------------------
                                     39 	.area INITIALIZED
                                     40 ;--------------------------------------------------------
                                     41 ; absolute external ram data
                                     42 ;--------------------------------------------------------
                                     43 	.area DABS (ABS)
                                     44 
                                     45 ; default segment ordering for linker
                                     46 	.area HOME
                                     47 	.area GSINIT
                                     48 	.area GSFINAL
                                     49 	.area CONST
                                     50 	.area INITIALIZER
                                     51 	.area CODE
                                     52 
                                     53 ;--------------------------------------------------------
                                     54 ; global & static initialisations
                                     55 ;--------------------------------------------------------
                                     56 	.area HOME
                                     57 	.area GSINIT
                                     58 	.area GSFINAL
                                     59 	.area GSINIT
                                     60 ;--------------------------------------------------------
                                     61 ; Home
                                     62 ;--------------------------------------------------------
                                     63 	.area HOME
                                     64 	.area HOME
                                     65 ;--------------------------------------------------------
                                     66 ; code
                                     67 ;--------------------------------------------------------
                                     68 	.area CODE
                           000000    69 	Sstm8_hd44780$_delay_cycl$0 ==.
                                     70 ;	inc/delay.h: 14: static @inline void _delay_cycl( unsigned short __ticks )
                                     71 ; genLabel
                                     72 ;	-----------------------------------------
                                     73 ;	 function _delay_cycl
                                     74 ;	-----------------------------------------
                                     75 ;	Register assignment is optimal.
                                     76 ;	Stack space usage: 0 bytes.
      000000                         77 __delay_cycl:
                           000000    78 	Sstm8_hd44780$_delay_cycl$1 ==.
                           000000    79 	Sstm8_hd44780$_delay_cycl$2 ==.
                                     80 ;	inc/delay.h: 25: __asm__("nop\n nop\n"); 
                                     81 ;	genInline
      000000 9D               [ 1]   82 	nop
      000001 9D               [ 1]   83 	nop
                           000002    84 	Sstm8_hd44780$_delay_cycl$3 ==.
                                     85 ;	inc/delay.h: 26: do { 		// ASM: ldw X, #tick; lab$: decw X; tnzw X; jrne lab$
                                     86 ; genAssign
      000002 1E 03            [ 2]   87 	ldw	x, (0x03, sp)
                                     88 ; genLabel
      000004                         89 00101$:
                           000004    90 	Sstm8_hd44780$_delay_cycl$4 ==.
                           000004    91 	Sstm8_hd44780$_delay_cycl$5 ==.
                                     92 ;	inc/delay.h: 27: __ticks--;//      2c;                 1c;     2c    ; 1/2c   
                                     93 ; genMinus
      000004 5A               [ 2]   94 	decw	x
                           000005    95 	Sstm8_hd44780$_delay_cycl$6 ==.
                           000005    96 	Sstm8_hd44780$_delay_cycl$7 ==.
                                     97 ;	inc/delay.h: 28: } while ( __ticks );
                                     98 ; genIfx
      000005 5D               [ 2]   99 	tnzw	x
      000006 27 03            [ 1]  100 	jreq	00117$
      000008 CCr00r04         [ 2]  101 	jp	00101$
      00000B                        102 00117$:
                           00000B   103 	Sstm8_hd44780$_delay_cycl$8 ==.
                                    104 ;	inc/delay.h: 29: __asm__("nop\n");
                                    105 ;	genInline
      00000B 9D               [ 1]  106 	nop
                                    107 ; genLabel
      00000C                        108 00104$:
                           00000C   109 	Sstm8_hd44780$_delay_cycl$9 ==.
                                    110 ;	inc/delay.h: 39: }
                                    111 ; genEndFunction
                           00000C   112 	Sstm8_hd44780$_delay_cycl$10 ==.
                           00000C   113 	XFstm8_hd44780$_delay_cycl$0$0 ==.
      00000C 81               [ 4]  114 	ret
                           00000D   115 	Sstm8_hd44780$_delay_cycl$11 ==.
                           00000D   116 	Sstm8_hd44780$_delay_us$12 ==.
                                    117 ;	inc/delay.h: 41: static @inline void _delay_us( const unsigned short __us ){
                                    118 ; genLabel
                                    119 ;	-----------------------------------------
                                    120 ;	 function _delay_us
                                    121 ;	-----------------------------------------
                                    122 ;	Register assignment might be sub-optimal.
                                    123 ;	Stack space usage: 0 bytes.
      00000D                        124 __delay_us:
                           00000D   125 	Sstm8_hd44780$_delay_us$13 ==.
                           00000D   126 	Sstm8_hd44780$_delay_us$14 ==.
                                    127 ;	inc/delay.h: 42: _delay_cycl( (unsigned short)( T_COUNT(__us) ));
                                    128 ; genCast
                                    129 ; genAssign
      00000D 16 03            [ 2]  130 	ldw	y, (0x03, sp)
      00000F 5F               [ 1]  131 	clrw	x
                                    132 ; genIPush
      000010 90 89            [ 2]  133 	pushw	y
                           000012   134 	Sstm8_hd44780$_delay_us$15 ==.
      000012 89               [ 2]  135 	pushw	x
                           000013   136 	Sstm8_hd44780$_delay_us$16 ==.
                                    137 ; genIPush
      000013 4B 00            [ 1]  138 	push	#0x00
                           000015   139 	Sstm8_hd44780$_delay_us$17 ==.
      000015 4B 24            [ 1]  140 	push	#0x24
                           000017   141 	Sstm8_hd44780$_delay_us$18 ==.
      000017 4B F4            [ 1]  142 	push	#0xf4
                           000019   143 	Sstm8_hd44780$_delay_us$19 ==.
      000019 4B 00            [ 1]  144 	push	#0x00
                           00001B   145 	Sstm8_hd44780$_delay_us$20 ==.
                                    146 ; genCall
      00001B CDr00r00         [ 4]  147 	call	__mullong
      00001E 5B 08            [ 2]  148 	addw	sp, #8
                           000020   149 	Sstm8_hd44780$_delay_us$21 ==.
                           000020   150 	Sstm8_hd44780$_delay_us$22 ==.
                                    151 ; genCast
                                    152 ; genAssign
                                    153 ; genIPush
      000020 4B 40            [ 1]  154 	push	#0x40
                           000022   155 	Sstm8_hd44780$_delay_us$23 ==.
      000022 4B 42            [ 1]  156 	push	#0x42
                           000024   157 	Sstm8_hd44780$_delay_us$24 ==.
      000024 4B 0F            [ 1]  158 	push	#0x0f
                           000026   159 	Sstm8_hd44780$_delay_us$25 ==.
      000026 4B 00            [ 1]  160 	push	#0x00
                           000028   161 	Sstm8_hd44780$_delay_us$26 ==.
                                    162 ; genIPush
      000028 89               [ 2]  163 	pushw	x
                           000029   164 	Sstm8_hd44780$_delay_us$27 ==.
      000029 90 89            [ 2]  165 	pushw	y
                           00002B   166 	Sstm8_hd44780$_delay_us$28 ==.
                                    167 ; genCall
      00002B CDr00r00         [ 4]  168 	call	__divulong
      00002E 5B 08            [ 2]  169 	addw	sp, #8
                           000030   170 	Sstm8_hd44780$_delay_us$29 ==.
                           000030   171 	Sstm8_hd44780$_delay_us$30 ==.
                                    172 ; genRightShiftLiteral
      000030 90 54            [ 2]  173 	srlw	y
      000032 56               [ 2]  174 	rrcw	x
      000033 90 54            [ 2]  175 	srlw	y
      000035 56               [ 2]  176 	rrcw	x
      000036 90 54            [ 2]  177 	srlw	y
      000038 56               [ 2]  178 	rrcw	x
                                    179 ; genCast
                                    180 ; genAssign
                           000039   181 	Sstm8_hd44780$_delay_us$31 ==.
                                    182 ; genPlus
      000039 5C               [ 1]  183 	incw	x
                                    184 ; genAssign
                                    185 ; genAssign
                           00003A   186 	Sstm8_hd44780$_delay_us$32 ==.
                                    187 ; genAssign
                           00003A   188 	Sstm8_hd44780$_delay_us$33 ==.
                                    189 ;	inc/delay.h: 25: __asm__("nop\n nop\n"); 
                                    190 ;	genInline
      00003A 9D               [ 1]  191 	nop
      00003B 9D               [ 1]  192 	nop
                           00003C   193 	Sstm8_hd44780$_delay_us$34 ==.
                           00003C   194 	Sstm8_hd44780$_delay_us$35 ==.
                                    195 ;	inc/delay.h: 26: do { 		// ASM: ldw X, #tick; lab$: decw X; tnzw X; jrne lab$
                                    196 ; genAssign
                                    197 ; genLabel
      00003C                        198 00101$:
                           00003C   199 	Sstm8_hd44780$_delay_us$36 ==.
                                    200 ;	inc/delay.h: 27: __ticks--;//      2c;                 1c;     2c    ; 1/2c   
                                    201 ; genMinus
      00003C 5A               [ 2]  202 	decw	x
                           00003D   203 	Sstm8_hd44780$_delay_us$37 ==.
                                    204 ;	inc/delay.h: 28: } while ( __ticks );
                                    205 ; genIfx
      00003D 5D               [ 2]  206 	tnzw	x
      00003E 27 03            [ 1]  207 	jreq	00118$
      000040 CCr00r3C         [ 2]  208 	jp	00101$
      000043                        209 00118$:
                                    210 ;	inc/delay.h: 29: __asm__("nop\n");
                                    211 ;	genInline
      000043 9D               [ 1]  212 	nop
                           000044   213 	Sstm8_hd44780$_delay_us$38 ==.
                           000044   214 	Sstm8_hd44780$_delay_us$39 ==.
                                    215 ;	inc/delay.h: 42: _delay_cycl( (unsigned short)( T_COUNT(__us) ));
                                    216 ; genLabel
      000044                        217 00105$:
                           000044   218 	Sstm8_hd44780$_delay_us$40 ==.
                                    219 ;	inc/delay.h: 43: }
                                    220 ; genEndFunction
                           000044   221 	Sstm8_hd44780$_delay_us$41 ==.
                           000044   222 	XFstm8_hd44780$_delay_us$0$0 ==.
      000044 81               [ 4]  223 	ret
                           000045   224 	Sstm8_hd44780$_delay_us$42 ==.
                           000045   225 	Sstm8_hd44780$lcd_store_symbol$43 ==.
                                    226 ;	./src/stm8_hd44780.c: 13: void lcd_store_symbol(uint8_t pos, uint8_t* charmap){
                                    227 ; genLabel
                                    228 ;	-----------------------------------------
                                    229 ;	 function lcd_store_symbol
                                    230 ;	-----------------------------------------
                                    231 ;	Register assignment is optimal.
                                    232 ;	Stack space usage: 1 bytes.
      000045                        233 _lcd_store_symbol:
                           000045   234 	Sstm8_hd44780$lcd_store_symbol$44 ==.
      000045 88               [ 1]  235 	push	a
                           000046   236 	Sstm8_hd44780$lcd_store_symbol$45 ==.
                           000046   237 	Sstm8_hd44780$lcd_store_symbol$46 ==.
                                    238 ;	./src/stm8_hd44780.c: 15: if(pos>7) return;
                                    239 ; genCmp
                                    240 ; genCmpTop
      000046 7B 04            [ 1]  241 	ld	a, (0x04, sp)
      000048 A1 07            [ 1]  242 	cp	a, #0x07
      00004A 22 03            [ 1]  243 	jrugt	00124$
      00004C CCr00r52         [ 2]  244 	jp	00102$
      00004F                        245 00124$:
                                    246 ; skipping generated iCode
                                    247 ; genReturn
      00004F CCr00r7B         [ 2]  248 	jp	00106$
                                    249 ; genLabel
      000052                        250 00102$:
                           000052   251 	Sstm8_hd44780$lcd_store_symbol$47 ==.
                                    252 ;	./src/stm8_hd44780.c: 16: lcd_command(LCD_SET_CGRAM | pos);
                                    253 ; genOr
      000052 7B 04            [ 1]  254 	ld	a, (0x04, sp)
      000054 AA 40            [ 1]  255 	or	a, #0x40
                                    256 ; genIPush
      000056 88               [ 1]  257 	push	a
                           000057   258 	Sstm8_hd44780$lcd_store_symbol$48 ==.
                                    259 ; genCall
      000057 CDr03r54         [ 4]  260 	call	_lcd_command
      00005A 84               [ 1]  261 	pop	a
                           00005B   262 	Sstm8_hd44780$lcd_store_symbol$49 ==.
                           00005B   263 	Sstm8_hd44780$lcd_store_symbol$50 ==.
                                    264 ;	./src/stm8_hd44780.c: 17: for(i=0;i<8;i++){
                                    265 ; genAssign
      00005B 0F 01            [ 1]  266 	clr	(0x01, sp)
                                    267 ; genLabel
      00005D                        268 00104$:
                           00005D   269 	Sstm8_hd44780$lcd_store_symbol$51 ==.
                           00005D   270 	Sstm8_hd44780$lcd_store_symbol$52 ==.
                                    271 ;	./src/stm8_hd44780.c: 18: lcd_data(charmap[i]);
                                    272 ; genPlus
      00005D 5F               [ 1]  273 	clrw	x
      00005E 7B 01            [ 1]  274 	ld	a, (0x01, sp)
      000060 97               [ 1]  275 	ld	xl, a
      000061 72 FB 05         [ 2]  276 	addw	x, (0x05, sp)
                                    277 ; genPointerGet
      000064 F6               [ 1]  278 	ld	a, (x)
                                    279 ; genIPush
      000065 88               [ 1]  280 	push	a
                           000066   281 	Sstm8_hd44780$lcd_store_symbol$53 ==.
                                    282 ; genCall
      000066 CDr03r8B         [ 4]  283 	call	_lcd_data
      000069 84               [ 1]  284 	pop	a
                           00006A   285 	Sstm8_hd44780$lcd_store_symbol$54 ==.
                           00006A   286 	Sstm8_hd44780$lcd_store_symbol$55 ==.
                           00006A   287 	Sstm8_hd44780$lcd_store_symbol$56 ==.
                                    288 ;	./src/stm8_hd44780.c: 17: for(i=0;i<8;i++){
                                    289 ; genPlus
      00006A 0C 01            [ 1]  290 	inc	(0x01, sp)
                                    291 ; genCmp
                                    292 ; genCmpTop
      00006C 7B 01            [ 1]  293 	ld	a, (0x01, sp)
      00006E A1 08            [ 1]  294 	cp	a, #0x08
      000070 24 03            [ 1]  295 	jrnc	00125$
      000072 CCr00r5D         [ 2]  296 	jp	00104$
      000075                        297 00125$:
                                    298 ; skipping generated iCode
                           000075   299 	Sstm8_hd44780$lcd_store_symbol$57 ==.
                                    300 ;	./src/stm8_hd44780.c: 20: lcd_command(LCD_SET_DDRAM | 0); // other funtions (like lcd_puts) relies that address counter points into DDRAM
                                    301 ; genIPush
      000075 4B 80            [ 1]  302 	push	#0x80
                           000077   303 	Sstm8_hd44780$lcd_store_symbol$58 ==.
                                    304 ; genCall
      000077 CDr03r54         [ 4]  305 	call	_lcd_command
      00007A 84               [ 1]  306 	pop	a
                           00007B   307 	Sstm8_hd44780$lcd_store_symbol$59 ==.
                                    308 ; genLabel
      00007B                        309 00106$:
                           00007B   310 	Sstm8_hd44780$lcd_store_symbol$60 ==.
                                    311 ;	./src/stm8_hd44780.c: 21: }
                                    312 ; genEndFunction
      00007B 84               [ 1]  313 	pop	a
                           00007C   314 	Sstm8_hd44780$lcd_store_symbol$61 ==.
                           00007C   315 	Sstm8_hd44780$lcd_store_symbol$62 ==.
                           00007C   316 	XG$lcd_store_symbol$0$0 ==.
      00007C 81               [ 4]  317 	ret
                           00007D   318 	Sstm8_hd44780$lcd_store_symbol$63 ==.
                           00007D   319 	Sstm8_hd44780$lcd_puts$64 ==.
                                    320 ;	./src/stm8_hd44780.c: 25: void lcd_puts(char* text){
                                    321 ; genLabel
                                    322 ;	-----------------------------------------
                                    323 ;	 function lcd_puts
                                    324 ;	-----------------------------------------
                                    325 ;	Register assignment is optimal.
                                    326 ;	Stack space usage: 0 bytes.
      00007D                        327 _lcd_puts:
                           00007D   328 	Sstm8_hd44780$lcd_puts$65 ==.
                           00007D   329 	Sstm8_hd44780$lcd_puts$66 ==.
                                    330 ;	./src/stm8_hd44780.c: 26: while(*text){
                                    331 ; genAssign
      00007D 1E 03            [ 2]  332 	ldw	x, (0x03, sp)
                                    333 ; genLabel
      00007F                        334 00101$:
                                    335 ; genPointerGet
      00007F F6               [ 1]  336 	ld	a, (x)
                                    337 ; genIfx
      000080 4D               [ 1]  338 	tnz	a
      000081 26 03            [ 1]  339 	jrne	00117$
      000083 CCr00r91         [ 2]  340 	jp	00104$
      000086                        341 00117$:
                           000086   342 	Sstm8_hd44780$lcd_puts$67 ==.
                           000086   343 	Sstm8_hd44780$lcd_puts$68 ==.
                                    344 ;	./src/stm8_hd44780.c: 27: lcd_data(*text);
                                    345 ; genIPush
      000086 89               [ 2]  346 	pushw	x
                           000087   347 	Sstm8_hd44780$lcd_puts$69 ==.
      000087 88               [ 1]  348 	push	a
                           000088   349 	Sstm8_hd44780$lcd_puts$70 ==.
                                    350 ; genCall
      000088 CDr03r8B         [ 4]  351 	call	_lcd_data
      00008B 84               [ 1]  352 	pop	a
                           00008C   353 	Sstm8_hd44780$lcd_puts$71 ==.
      00008C 85               [ 2]  354 	popw	x
                           00008D   355 	Sstm8_hd44780$lcd_puts$72 ==.
                           00008D   356 	Sstm8_hd44780$lcd_puts$73 ==.
                                    357 ;	./src/stm8_hd44780.c: 28: text++;
                                    358 ; genPlus
      00008D 5C               [ 1]  359 	incw	x
                           00008E   360 	Sstm8_hd44780$lcd_puts$74 ==.
                                    361 ; genGoto
      00008E CCr00r7F         [ 2]  362 	jp	00101$
                                    363 ; genLabel
      000091                        364 00104$:
                           000091   365 	Sstm8_hd44780$lcd_puts$75 ==.
                                    366 ;	./src/stm8_hd44780.c: 30: }
                                    367 ; genEndFunction
                           000091   368 	Sstm8_hd44780$lcd_puts$76 ==.
                           000091   369 	XG$lcd_puts$0$0 ==.
      000091 81               [ 4]  370 	ret
                           000092   371 	Sstm8_hd44780$lcd_puts$77 ==.
                           000092   372 	Sstm8_hd44780$lcd_init$78 ==.
                                    373 ;	./src/stm8_hd44780.c: 32: void lcd_init(void){
                                    374 ; genLabel
                                    375 ;	-----------------------------------------
                                    376 ;	 function lcd_init
                                    377 ;	-----------------------------------------
                                    378 ;	Register assignment is optimal.
                                    379 ;	Stack space usage: 0 bytes.
      000092                        380 _lcd_init:
                           000092   381 	Sstm8_hd44780$lcd_init$79 ==.
                           000092   382 	Sstm8_hd44780$lcd_init$80 ==.
                                    383 ;	./src/stm8_hd44780.c: 33: lcd_init_hw();
                                    384 ; genCall
      000092 CDr01r47         [ 4]  385 	call	_lcd_init_hw
                           000095   386 	Sstm8_hd44780$lcd_init$81 ==.
                                    387 ;	./src/stm8_hd44780.c: 35: lcd_bus_outputs();
                                    388 ; genCall
      000095 CDr01r72         [ 4]  389 	call	_lcd_bus_outputs
                           000098   390 	Sstm8_hd44780$lcd_init$82 ==.
                                    391 ;	inc/delay.h: 42: _delay_cycl( (unsigned short)( T_COUNT(__us) ));
                                    392 ; genAssign
      000098 AE 01 D9         [ 2]  393 	ldw	x, #0x01d9
                           00009B   394 	Sstm8_hd44780$lcd_init$83 ==.
                                    395 ;	inc/delay.h: 25: __asm__("nop\n nop\n"); 
                                    396 ;	genInline
      00009B 9D               [ 1]  397 	nop
      00009C 9D               [ 1]  398 	nop
                           00009D   399 	Sstm8_hd44780$lcd_init$84 ==.
                           00009D   400 	Sstm8_hd44780$lcd_init$85 ==.
                                    401 ;	inc/delay.h: 26: do { 		// ASM: ldw X, #tick; lab$: decw X; tnzw X; jrne lab$
                                    402 ; genAssign
                                    403 ; genLabel
      00009D                        404 00101$:
                           00009D   405 	Sstm8_hd44780$lcd_init$86 ==.
                                    406 ;	inc/delay.h: 27: __ticks--;//      2c;                 1c;     2c    ; 1/2c   
                                    407 ; genMinus
      00009D 5A               [ 2]  408 	decw	x
                           00009E   409 	Sstm8_hd44780$lcd_init$87 ==.
                                    410 ;	inc/delay.h: 28: } while ( __ticks );
                                    411 ; genIfx
      00009E 5D               [ 2]  412 	tnzw	x
      00009F 27 03            [ 1]  413 	jreq	00167$
      0000A1 CCr00r9D         [ 2]  414 	jp	00101$
      0000A4                        415 00167$:
                                    416 ;	inc/delay.h: 29: __asm__("nop\n");
                                    417 ;	genInline
      0000A4 9D               [ 1]  418 	nop
                           0000A5   419 	Sstm8_hd44780$lcd_init$88 ==.
                           0000A5   420 	Sstm8_hd44780$lcd_init$89 ==.
                                    421 ;	./src/stm8_hd44780.c: 38: lcd_bus_set(0b0011);
                                    422 ; genIPush
      0000A5 4B 03            [ 1]  423 	push	#0x03
                           0000A7   424 	Sstm8_hd44780$lcd_init$90 ==.
                                    425 ; genCall
      0000A7 CDr02r38         [ 4]  426 	call	_lcd_bus_set
      0000AA 84               [ 1]  427 	pop	a
                           0000AB   428 	Sstm8_hd44780$lcd_init$91 ==.
                           0000AB   429 	Sstm8_hd44780$lcd_init$92 ==.
                                    430 ;	./src/stm8_hd44780.c: 39: lcd_e_tick();
                                    431 ; genCall
      0000AB CDr03r23         [ 4]  432 	call	_lcd_e_tick
                           0000AE   433 	Sstm8_hd44780$lcd_init$93 ==.
                                    434 ;	inc/delay.h: 42: _delay_cycl( (unsigned short)( T_COUNT(__us) ));
                                    435 ; genAssign
      0000AE AE 00 93         [ 2]  436 	ldw	x, #0x0093
                           0000B1   437 	Sstm8_hd44780$lcd_init$94 ==.
                                    438 ;	inc/delay.h: 25: __asm__("nop\n nop\n"); 
                                    439 ;	genInline
      0000B1 9D               [ 1]  440 	nop
      0000B2 9D               [ 1]  441 	nop
                           0000B3   442 	Sstm8_hd44780$lcd_init$95 ==.
                           0000B3   443 	Sstm8_hd44780$lcd_init$96 ==.
                                    444 ;	inc/delay.h: 26: do { 		// ASM: ldw X, #tick; lab$: decw X; tnzw X; jrne lab$
                                    445 ; genAssign
                                    446 ; genLabel
      0000B3                        447 00106$:
                           0000B3   448 	Sstm8_hd44780$lcd_init$97 ==.
                                    449 ;	inc/delay.h: 27: __ticks--;//      2c;                 1c;     2c    ; 1/2c   
                                    450 ; genMinus
      0000B3 5A               [ 2]  451 	decw	x
                           0000B4   452 	Sstm8_hd44780$lcd_init$98 ==.
                                    453 ;	inc/delay.h: 28: } while ( __ticks );
                                    454 ; genIfx
      0000B4 5D               [ 2]  455 	tnzw	x
      0000B5 27 03            [ 1]  456 	jreq	00168$
      0000B7 CCr00rB3         [ 2]  457 	jp	00106$
      0000BA                        458 00168$:
                                    459 ;	inc/delay.h: 29: __asm__("nop\n");
                                    460 ;	genInline
      0000BA 9D               [ 1]  461 	nop
                           0000BB   462 	Sstm8_hd44780$lcd_init$99 ==.
                           0000BB   463 	Sstm8_hd44780$lcd_init$100 ==.
                                    464 ;	./src/stm8_hd44780.c: 42: lcd_bus_set(0b0011);
                                    465 ; genIPush
      0000BB 4B 03            [ 1]  466 	push	#0x03
                           0000BD   467 	Sstm8_hd44780$lcd_init$101 ==.
                                    468 ; genCall
      0000BD CDr02r38         [ 4]  469 	call	_lcd_bus_set
      0000C0 84               [ 1]  470 	pop	a
                           0000C1   471 	Sstm8_hd44780$lcd_init$102 ==.
                           0000C1   472 	Sstm8_hd44780$lcd_init$103 ==.
                                    473 ;	./src/stm8_hd44780.c: 43: lcd_e_tick();
                                    474 ; genCall
      0000C1 CDr03r23         [ 4]  475 	call	_lcd_e_tick
                           0000C4   476 	Sstm8_hd44780$lcd_init$104 ==.
                                    477 ;	inc/delay.h: 42: _delay_cycl( (unsigned short)( T_COUNT(__us) ));
                                    478 ; genAssign
      0000C4 AE 00 C9         [ 2]  479 	ldw	x, #0x00c9
                           0000C7   480 	Sstm8_hd44780$lcd_init$105 ==.
                                    481 ;	inc/delay.h: 25: __asm__("nop\n nop\n"); 
                                    482 ;	genInline
      0000C7 9D               [ 1]  483 	nop
      0000C8 9D               [ 1]  484 	nop
                           0000C9   485 	Sstm8_hd44780$lcd_init$106 ==.
                           0000C9   486 	Sstm8_hd44780$lcd_init$107 ==.
                                    487 ;	inc/delay.h: 26: do { 		// ASM: ldw X, #tick; lab$: decw X; tnzw X; jrne lab$
                                    488 ; genAssign
                                    489 ; genLabel
      0000C9                        490 00111$:
                           0000C9   491 	Sstm8_hd44780$lcd_init$108 ==.
                                    492 ;	inc/delay.h: 27: __ticks--;//      2c;                 1c;     2c    ; 1/2c   
                                    493 ; genMinus
      0000C9 5A               [ 2]  494 	decw	x
                           0000CA   495 	Sstm8_hd44780$lcd_init$109 ==.
                                    496 ;	inc/delay.h: 28: } while ( __ticks );
                                    497 ; genIfx
      0000CA 5D               [ 2]  498 	tnzw	x
      0000CB 27 03            [ 1]  499 	jreq	00169$
      0000CD CCr00rC9         [ 2]  500 	jp	00111$
      0000D0                        501 00169$:
                                    502 ;	inc/delay.h: 29: __asm__("nop\n");
                                    503 ;	genInline
      0000D0 9D               [ 1]  504 	nop
                           0000D1   505 	Sstm8_hd44780$lcd_init$110 ==.
                           0000D1   506 	Sstm8_hd44780$lcd_init$111 ==.
                                    507 ;	./src/stm8_hd44780.c: 46: lcd_bus_set(0b0011);
                                    508 ; genIPush
      0000D1 4B 03            [ 1]  509 	push	#0x03
                           0000D3   510 	Sstm8_hd44780$lcd_init$112 ==.
                                    511 ; genCall
      0000D3 CDr02r38         [ 4]  512 	call	_lcd_bus_set
      0000D6 84               [ 1]  513 	pop	a
                           0000D7   514 	Sstm8_hd44780$lcd_init$113 ==.
                           0000D7   515 	Sstm8_hd44780$lcd_init$114 ==.
                                    516 ;	./src/stm8_hd44780.c: 47: lcd_e_tick();
                                    517 ; genCall
      0000D7 CDr03r23         [ 4]  518 	call	_lcd_e_tick
                           0000DA   519 	Sstm8_hd44780$lcd_init$115 ==.
                                    520 ;	./src/stm8_hd44780.c: 48: lcd_bus_set(0b0010);
                                    521 ; genIPush
      0000DA 4B 02            [ 1]  522 	push	#0x02
                           0000DC   523 	Sstm8_hd44780$lcd_init$116 ==.
                                    524 ; genCall
      0000DC CDr02r38         [ 4]  525 	call	_lcd_bus_set
      0000DF 84               [ 1]  526 	pop	a
                           0000E0   527 	Sstm8_hd44780$lcd_init$117 ==.
                           0000E0   528 	Sstm8_hd44780$lcd_init$118 ==.
                                    529 ;	./src/stm8_hd44780.c: 49: lcd_e_tick();
                                    530 ; genCall
      0000E0 CDr03r23         [ 4]  531 	call	_lcd_e_tick
                           0000E3   532 	Sstm8_hd44780$lcd_init$119 ==.
                                    533 ;	inc/delay.h: 42: _delay_cycl( (unsigned short)( T_COUNT(__us) ));
                                    534 ; genAssign
      0000E3 AE 00 51         [ 2]  535 	ldw	x, #0x0051
                           0000E6   536 	Sstm8_hd44780$lcd_init$120 ==.
                                    537 ;	inc/delay.h: 25: __asm__("nop\n nop\n"); 
                                    538 ;	genInline
      0000E6 9D               [ 1]  539 	nop
      0000E7 9D               [ 1]  540 	nop
                           0000E8   541 	Sstm8_hd44780$lcd_init$121 ==.
                           0000E8   542 	Sstm8_hd44780$lcd_init$122 ==.
                                    543 ;	inc/delay.h: 26: do { 		// ASM: ldw X, #tick; lab$: decw X; tnzw X; jrne lab$
                                    544 ; genAssign
                                    545 ; genLabel
      0000E8                        546 00116$:
                           0000E8   547 	Sstm8_hd44780$lcd_init$123 ==.
                                    548 ;	inc/delay.h: 27: __ticks--;//      2c;                 1c;     2c    ; 1/2c   
                                    549 ; genMinus
      0000E8 5A               [ 2]  550 	decw	x
                           0000E9   551 	Sstm8_hd44780$lcd_init$124 ==.
                                    552 ;	inc/delay.h: 28: } while ( __ticks );
                                    553 ; genIfx
      0000E9 5D               [ 2]  554 	tnzw	x
      0000EA 27 03            [ 1]  555 	jreq	00170$
      0000EC CCr00rE8         [ 2]  556 	jp	00116$
      0000EF                        557 00170$:
                                    558 ;	inc/delay.h: 29: __asm__("nop\n");
                                    559 ;	genInline
      0000EF 9D               [ 1]  560 	nop
                           0000F0   561 	Sstm8_hd44780$lcd_init$125 ==.
                           0000F0   562 	Sstm8_hd44780$lcd_init$126 ==.
                                    563 ;	./src/stm8_hd44780.c: 55: lcd_command(LCD_FUNCTION_SET | LCD_4BITS | LCD_2LINES | USED_FONT);
                                    564 ; genIPush
      0000F0 4B 28            [ 1]  565 	push	#0x28
                           0000F2   566 	Sstm8_hd44780$lcd_init$127 ==.
                                    567 ; genCall
      0000F2 CDr03r54         [ 4]  568 	call	_lcd_command
      0000F5 84               [ 1]  569 	pop	a
                           0000F6   570 	Sstm8_hd44780$lcd_init$128 ==.
                           0000F6   571 	Sstm8_hd44780$lcd_init$129 ==.
                                    572 ;	./src/stm8_hd44780.c: 57: lcd_command(LCD_ENTRY_MODE_SET | LCD_INCREMENT | LCD_DISPLAY_NOSHIFT);
                                    573 ; genIPush
      0000F6 4B 06            [ 1]  574 	push	#0x06
                           0000F8   575 	Sstm8_hd44780$lcd_init$130 ==.
                                    576 ; genCall
      0000F8 CDr03r54         [ 4]  577 	call	_lcd_command
      0000FB 84               [ 1]  578 	pop	a
                           0000FC   579 	Sstm8_hd44780$lcd_init$131 ==.
                           0000FC   580 	Sstm8_hd44780$lcd_init$132 ==.
                                    581 ;	./src/stm8_hd44780.c: 58: lcd_command(LCD_DISPLAY_ONOFF | LCD_ON | LCD_CURSOR_OFF | LCD_BLINK_OFF);
                                    582 ; genIPush
      0000FC 4B 0C            [ 1]  583 	push	#0x0c
                           0000FE   584 	Sstm8_hd44780$lcd_init$133 ==.
                                    585 ; genCall
      0000FE CDr03r54         [ 4]  586 	call	_lcd_command
      000101 84               [ 1]  587 	pop	a
                           000102   588 	Sstm8_hd44780$lcd_init$134 ==.
                           000102   589 	Sstm8_hd44780$lcd_init$135 ==.
                                    590 ;	./src/stm8_hd44780.c: 59: lcd_command(LCD_CURSOR_OR_DISPLAY_SHIFT | LCD_CURSOR_SHIFT | LCD_SHIFT_RIGHT);
                                    591 ; genIPush
      000102 4B 14            [ 1]  592 	push	#0x14
                           000104   593 	Sstm8_hd44780$lcd_init$136 ==.
                                    594 ; genCall
      000104 CDr03r54         [ 4]  595 	call	_lcd_command
      000107 84               [ 1]  596 	pop	a
                           000108   597 	Sstm8_hd44780$lcd_init$137 ==.
                           000108   598 	Sstm8_hd44780$lcd_init$138 ==.
                                    599 ;	./src/stm8_hd44780.c: 60: lcd_command(LCD_DISPLAY_CLEAR);
                                    600 ; genIPush
      000108 4B 01            [ 1]  601 	push	#0x01
                           00010A   602 	Sstm8_hd44780$lcd_init$139 ==.
                                    603 ; genCall
      00010A CDr03r54         [ 4]  604 	call	_lcd_command
      00010D 84               [ 1]  605 	pop	a
                           00010E   606 	Sstm8_hd44780$lcd_init$140 ==.
                           00010E   607 	Sstm8_hd44780$lcd_init$141 ==.
                                    608 ;	./src/stm8_hd44780.c: 61: lcd_command(LCD_RETURN_HOME);
                                    609 ; genIPush
      00010E 4B 02            [ 1]  610 	push	#0x02
                           000110   611 	Sstm8_hd44780$lcd_init$142 ==.
                                    612 ; genCall
      000110 CDr03r54         [ 4]  613 	call	_lcd_command
      000113 84               [ 1]  614 	pop	a
                           000114   615 	Sstm8_hd44780$lcd_init$143 ==.
                                    616 ; genLabel
      000114                        617 00121$:
                           000114   618 	Sstm8_hd44780$lcd_init$144 ==.
                                    619 ;	./src/stm8_hd44780.c: 62: }
                                    620 ; genEndFunction
                           000114   621 	Sstm8_hd44780$lcd_init$145 ==.
                           000114   622 	XG$lcd_init$0$0 ==.
      000114 81               [ 4]  623 	ret
                           000115   624 	Sstm8_hd44780$lcd_init$146 ==.
                           000115   625 	Sstm8_hd44780$lcd_gotoxy$147 ==.
                                    626 ;	./src/stm8_hd44780.c: 64: void lcd_gotoxy(uint8_t column, uint8_t line){
                                    627 ; genLabel
                                    628 ;	-----------------------------------------
                                    629 ;	 function lcd_gotoxy
                                    630 ;	-----------------------------------------
                                    631 ;	Register assignment is optimal.
                                    632 ;	Stack space usage: 0 bytes.
      000115                        633 _lcd_gotoxy:
                           000115   634 	Sstm8_hd44780$lcd_gotoxy$148 ==.
                           000115   635 	Sstm8_hd44780$lcd_gotoxy$149 ==.
                                    636 ;	./src/stm8_hd44780.c: 65: uint8_t tmp=0;
                                    637 ; genAssign
      000115 5F               [ 1]  638 	clrw	x
                           000116   639 	Sstm8_hd44780$lcd_gotoxy$150 ==.
                                    640 ;	./src/stm8_hd44780.c: 77: if(column > (LCD_COLUMNS-1)){column=LCD_COLUMNS-1;}
                                    641 ; genCmp
                                    642 ; genCmpTop
      000116 7B 03            [ 1]  643 	ld	a, (0x03, sp)
      000118 A1 0F            [ 1]  644 	cp	a, #0x0f
      00011A 22 03            [ 1]  645 	jrugt	00125$
      00011C CCr01r23         [ 2]  646 	jp	00102$
      00011F                        647 00125$:
                                    648 ; skipping generated iCode
                           00011F   649 	Sstm8_hd44780$lcd_gotoxy$151 ==.
                                    650 ; genAssign
      00011F A6 0F            [ 1]  651 	ld	a, #0x0f
      000121 6B 03            [ 1]  652 	ld	(0x03, sp), a
                           000123   653 	Sstm8_hd44780$lcd_gotoxy$152 ==.
                                    654 ; genLabel
      000123                        655 00102$:
                           000123   656 	Sstm8_hd44780$lcd_gotoxy$153 ==.
                                    657 ;	./src/stm8_hd44780.c: 78: if(line == 0){tmp=0x00;}
                                    658 ; genIfx
      000123 0D 04            [ 1]  659 	tnz	(0x04, sp)
      000125 27 03            [ 1]  660 	jreq	00126$
      000127 CCr01r2E         [ 2]  661 	jp	00106$
      00012A                        662 00126$:
                           00012A   663 	Sstm8_hd44780$lcd_gotoxy$154 ==.
                                    664 ; genAssign
      00012A 5F               [ 1]  665 	clrw	x
                           00012B   666 	Sstm8_hd44780$lcd_gotoxy$155 ==.
                                    667 ; genGoto
      00012B CCr01r3C         [ 2]  668 	jp	00107$
                                    669 ; genLabel
      00012E                        670 00106$:
                           00012E   671 	Sstm8_hd44780$lcd_gotoxy$156 ==.
                                    672 ;	./src/stm8_hd44780.c: 79: else if(line==1){tmp = 0x40;}
                                    673 ; genCmpEQorNE
      00012E 7B 04            [ 1]  674 	ld	a, (0x04, sp)
      000130 4A               [ 1]  675 	dec	a
      000131 26 03            [ 1]  676 	jrne	00128$
      000133 CCr01r39         [ 2]  677 	jp	00129$
      000136                        678 00128$:
      000136 CCr01r3C         [ 2]  679 	jp	00107$
      000139                        680 00129$:
                           000139   681 	Sstm8_hd44780$lcd_gotoxy$157 ==.
                                    682 ; skipping generated iCode
                           000139   683 	Sstm8_hd44780$lcd_gotoxy$158 ==.
                                    684 ; genAssign
      000139 A6 40            [ 1]  685 	ld	a, #0x40
      00013B 97               [ 1]  686 	ld	xl, a
                           00013C   687 	Sstm8_hd44780$lcd_gotoxy$159 ==.
                                    688 ; genLabel
      00013C                        689 00107$:
                           00013C   690 	Sstm8_hd44780$lcd_gotoxy$160 ==.
                                    691 ;	./src/stm8_hd44780.c: 80: tmp = tmp + column;
                                    692 ; genPlus
      00013C 9F               [ 1]  693 	ld	a, xl
      00013D 1B 03            [ 1]  694 	add	a, (0x03, sp)
                                    695 ; genAssign
                           00013F   696 	Sstm8_hd44780$lcd_gotoxy$161 ==.
                                    697 ;	./src/stm8_hd44780.c: 87: lcd_command(LCD_SET_DDRAM | tmp);
                                    698 ; genOr
      00013F AA 80            [ 1]  699 	or	a, #0x80
                                    700 ; genIPush
      000141 88               [ 1]  701 	push	a
                           000142   702 	Sstm8_hd44780$lcd_gotoxy$162 ==.
                                    703 ; genCall
      000142 CDr03r54         [ 4]  704 	call	_lcd_command
      000145 84               [ 1]  705 	pop	a
                           000146   706 	Sstm8_hd44780$lcd_gotoxy$163 ==.
                                    707 ; genLabel
      000146                        708 00108$:
                           000146   709 	Sstm8_hd44780$lcd_gotoxy$164 ==.
                                    710 ;	./src/stm8_hd44780.c: 88: }
                                    711 ; genEndFunction
                           000146   712 	Sstm8_hd44780$lcd_gotoxy$165 ==.
                           000146   713 	XG$lcd_gotoxy$0$0 ==.
      000146 81               [ 4]  714 	ret
                           000147   715 	Sstm8_hd44780$lcd_gotoxy$166 ==.
                           000147   716 	Sstm8_hd44780$lcd_init_hw$167 ==.
                                    717 ;	./src/stm8_hd44780.c: 91: void lcd_init_hw(void){
                                    718 ; genLabel
                                    719 ;	-----------------------------------------
                                    720 ;	 function lcd_init_hw
                                    721 ;	-----------------------------------------
                                    722 ;	Register assignment is optimal.
                                    723 ;	Stack space usage: 0 bytes.
      000147                        724 _lcd_init_hw:
                           000147   725 	Sstm8_hd44780$lcd_init_hw$168 ==.
                           000147   726 	Sstm8_hd44780$lcd_init_hw$169 ==.
                                    727 ;	./src/stm8_hd44780.c: 110: GPIO_Init(LCD_RS_PORT,LCD_RS_PIN,GPIO_MODE_OUT_PP_LOW_SLOW);
                                    728 ; genIPush
      000147 4B C0            [ 1]  729 	push	#0xc0
                           000149   730 	Sstm8_hd44780$lcd_init_hw$170 ==.
                                    731 ; genIPush
      000149 4B 80            [ 1]  732 	push	#0x80
                           00014B   733 	Sstm8_hd44780$lcd_init_hw$171 ==.
                                    734 ; genIPush
      00014B 4B 19            [ 1]  735 	push	#0x19
                           00014D   736 	Sstm8_hd44780$lcd_init_hw$172 ==.
      00014D 4B 50            [ 1]  737 	push	#0x50
                           00014F   738 	Sstm8_hd44780$lcd_init_hw$173 ==.
                                    739 ; genCall
      00014F CDr00r00         [ 4]  740 	call	_GPIO_Init
      000152 5B 04            [ 2]  741 	addw	sp, #4
                           000154   742 	Sstm8_hd44780$lcd_init_hw$174 ==.
                           000154   743 	Sstm8_hd44780$lcd_init_hw$175 ==.
                                    744 ;	./src/stm8_hd44780.c: 111: GPIO_Init(LCD_RW_PORT,LCD_RW_PIN,GPIO_MODE_OUT_PP_LOW_SLOW);
                                    745 ; genIPush
      000154 4B C0            [ 1]  746 	push	#0xc0
                           000156   747 	Sstm8_hd44780$lcd_init_hw$176 ==.
                                    748 ; genIPush
      000156 4B 40            [ 1]  749 	push	#0x40
                           000158   750 	Sstm8_hd44780$lcd_init_hw$177 ==.
                                    751 ; genIPush
      000158 4B 19            [ 1]  752 	push	#0x19
                           00015A   753 	Sstm8_hd44780$lcd_init_hw$178 ==.
      00015A 4B 50            [ 1]  754 	push	#0x50
                           00015C   755 	Sstm8_hd44780$lcd_init_hw$179 ==.
                                    756 ; genCall
      00015C CDr00r00         [ 4]  757 	call	_GPIO_Init
      00015F 5B 04            [ 2]  758 	addw	sp, #4
                           000161   759 	Sstm8_hd44780$lcd_init_hw$180 ==.
                           000161   760 	Sstm8_hd44780$lcd_init_hw$181 ==.
                                    761 ;	./src/stm8_hd44780.c: 112: GPIO_Init(LCD_E_PORT,LCD_E_PIN,GPIO_MODE_OUT_PP_HIGH_SLOW);
                                    762 ; genIPush
      000161 4B D0            [ 1]  763 	push	#0xd0
                           000163   764 	Sstm8_hd44780$lcd_init_hw$182 ==.
                                    765 ; genIPush
      000163 4B 20            [ 1]  766 	push	#0x20
                           000165   767 	Sstm8_hd44780$lcd_init_hw$183 ==.
                                    768 ; genIPush
      000165 4B 19            [ 1]  769 	push	#0x19
                           000167   770 	Sstm8_hd44780$lcd_init_hw$184 ==.
      000167 4B 50            [ 1]  771 	push	#0x50
                           000169   772 	Sstm8_hd44780$lcd_init_hw$185 ==.
                                    773 ; genCall
      000169 CDr00r00         [ 4]  774 	call	_GPIO_Init
      00016C 5B 04            [ 2]  775 	addw	sp, #4
                           00016E   776 	Sstm8_hd44780$lcd_init_hw$186 ==.
                           00016E   777 	Sstm8_hd44780$lcd_init_hw$187 ==.
                                    778 ;	./src/stm8_hd44780.c: 115: lcd_bus_outputs();
                                    779 ; genCall
      00016E CCr01r72         [ 2]  780 	jp	_lcd_bus_outputs
                                    781 ; genLabel
      000171                        782 00101$:
                           000171   783 	Sstm8_hd44780$lcd_init_hw$188 ==.
                                    784 ;	./src/stm8_hd44780.c: 116: }
                                    785 ; genEndFunction
                           000171   786 	Sstm8_hd44780$lcd_init_hw$189 ==.
                           000171   787 	XG$lcd_init_hw$0$0 ==.
      000171 81               [ 4]  788 	ret
                           000172   789 	Sstm8_hd44780$lcd_init_hw$190 ==.
                           000172   790 	Sstm8_hd44780$lcd_bus_outputs$191 ==.
                                    791 ;	./src/stm8_hd44780.c: 119: void lcd_bus_outputs(void){
                                    792 ; genLabel
                                    793 ;	-----------------------------------------
                                    794 ;	 function lcd_bus_outputs
                                    795 ;	-----------------------------------------
                                    796 ;	Register assignment is optimal.
                                    797 ;	Stack space usage: 0 bytes.
      000172                        798 _lcd_bus_outputs:
                           000172   799 	Sstm8_hd44780$lcd_bus_outputs$192 ==.
                           000172   800 	Sstm8_hd44780$lcd_bus_outputs$193 ==.
                                    801 ;	./src/stm8_hd44780.c: 123: GPIO_Init(LCD_D4_PORT,LCD_D4_PIN,GPIO_MODE_OUT_PP_LOW_SLOW);
                                    802 ; genIPush
      000172 4B C0            [ 1]  803 	push	#0xc0
                           000174   804 	Sstm8_hd44780$lcd_bus_outputs$194 ==.
                                    805 ; genIPush
      000174 4B 01            [ 1]  806 	push	#0x01
                           000176   807 	Sstm8_hd44780$lcd_bus_outputs$195 ==.
                                    808 ; genIPush
      000176 4B 1E            [ 1]  809 	push	#0x1e
                           000178   810 	Sstm8_hd44780$lcd_bus_outputs$196 ==.
      000178 4B 50            [ 1]  811 	push	#0x50
                           00017A   812 	Sstm8_hd44780$lcd_bus_outputs$197 ==.
                                    813 ; genCall
      00017A CDr00r00         [ 4]  814 	call	_GPIO_Init
      00017D 5B 04            [ 2]  815 	addw	sp, #4
                           00017F   816 	Sstm8_hd44780$lcd_bus_outputs$198 ==.
                           00017F   817 	Sstm8_hd44780$lcd_bus_outputs$199 ==.
                                    818 ;	./src/stm8_hd44780.c: 124: GPIO_Init(LCD_D5_PORT,LCD_D5_PIN,GPIO_MODE_OUT_PP_LOW_SLOW);
                                    819 ; genIPush
      00017F 4B C0            [ 1]  820 	push	#0xc0
                           000181   821 	Sstm8_hd44780$lcd_bus_outputs$200 ==.
                                    822 ; genIPush
      000181 4B 02            [ 1]  823 	push	#0x02
                           000183   824 	Sstm8_hd44780$lcd_bus_outputs$201 ==.
                                    825 ; genIPush
      000183 4B 1E            [ 1]  826 	push	#0x1e
                           000185   827 	Sstm8_hd44780$lcd_bus_outputs$202 ==.
      000185 4B 50            [ 1]  828 	push	#0x50
                           000187   829 	Sstm8_hd44780$lcd_bus_outputs$203 ==.
                                    830 ; genCall
      000187 CDr00r00         [ 4]  831 	call	_GPIO_Init
      00018A 5B 04            [ 2]  832 	addw	sp, #4
                           00018C   833 	Sstm8_hd44780$lcd_bus_outputs$204 ==.
                           00018C   834 	Sstm8_hd44780$lcd_bus_outputs$205 ==.
                                    835 ;	./src/stm8_hd44780.c: 125: GPIO_Init(LCD_D6_PORT,LCD_D6_PIN,GPIO_MODE_OUT_PP_LOW_SLOW);
                                    836 ; genIPush
      00018C 4B C0            [ 1]  837 	push	#0xc0
                           00018E   838 	Sstm8_hd44780$lcd_bus_outputs$206 ==.
                                    839 ; genIPush
      00018E 4B 04            [ 1]  840 	push	#0x04
                           000190   841 	Sstm8_hd44780$lcd_bus_outputs$207 ==.
                                    842 ; genIPush
      000190 4B 1E            [ 1]  843 	push	#0x1e
                           000192   844 	Sstm8_hd44780$lcd_bus_outputs$208 ==.
      000192 4B 50            [ 1]  845 	push	#0x50
                           000194   846 	Sstm8_hd44780$lcd_bus_outputs$209 ==.
                                    847 ; genCall
      000194 CDr00r00         [ 4]  848 	call	_GPIO_Init
      000197 5B 04            [ 2]  849 	addw	sp, #4
                           000199   850 	Sstm8_hd44780$lcd_bus_outputs$210 ==.
                           000199   851 	Sstm8_hd44780$lcd_bus_outputs$211 ==.
                                    852 ;	./src/stm8_hd44780.c: 126: GPIO_Init(LCD_D7_PORT,LCD_D7_PIN,GPIO_MODE_OUT_PP_LOW_SLOW);
                                    853 ; genIPush
      000199 4B C0            [ 1]  854 	push	#0xc0
                           00019B   855 	Sstm8_hd44780$lcd_bus_outputs$212 ==.
                                    856 ; genIPush
      00019B 4B 08            [ 1]  857 	push	#0x08
                           00019D   858 	Sstm8_hd44780$lcd_bus_outputs$213 ==.
                                    859 ; genIPush
      00019D 4B 1E            [ 1]  860 	push	#0x1e
                           00019F   861 	Sstm8_hd44780$lcd_bus_outputs$214 ==.
      00019F 4B 50            [ 1]  862 	push	#0x50
                           0001A1   863 	Sstm8_hd44780$lcd_bus_outputs$215 ==.
                                    864 ; genCall
      0001A1 CDr00r00         [ 4]  865 	call	_GPIO_Init
      0001A4 5B 04            [ 2]  866 	addw	sp, #4
                           0001A6   867 	Sstm8_hd44780$lcd_bus_outputs$216 ==.
                                    868 ; genLabel
      0001A6                        869 00101$:
                           0001A6   870 	Sstm8_hd44780$lcd_bus_outputs$217 ==.
                                    871 ;	./src/stm8_hd44780.c: 128: }
                                    872 ; genEndFunction
                           0001A6   873 	Sstm8_hd44780$lcd_bus_outputs$218 ==.
                           0001A6   874 	XG$lcd_bus_outputs$0$0 ==.
      0001A6 81               [ 4]  875 	ret
                           0001A7   876 	Sstm8_hd44780$lcd_bus_outputs$219 ==.
                           0001A7   877 	Sstm8_hd44780$lcd_bus_inputs$220 ==.
                                    878 ;	./src/stm8_hd44780.c: 131: void lcd_bus_inputs(void){
                                    879 ; genLabel
                                    880 ;	-----------------------------------------
                                    881 ;	 function lcd_bus_inputs
                                    882 ;	-----------------------------------------
                                    883 ;	Register assignment is optimal.
                                    884 ;	Stack space usage: 0 bytes.
      0001A7                        885 _lcd_bus_inputs:
                           0001A7   886 	Sstm8_hd44780$lcd_bus_inputs$221 ==.
                           0001A7   887 	Sstm8_hd44780$lcd_bus_inputs$222 ==.
                                    888 ;	./src/stm8_hd44780.c: 139: GPIO_Init(LCD_D4_PORT,LCD_D4_PIN,GPIO_MODE_IN_FL_NO_IT);
                                    889 ; genIPush
      0001A7 4B 00            [ 1]  890 	push	#0x00
                           0001A9   891 	Sstm8_hd44780$lcd_bus_inputs$223 ==.
                                    892 ; genIPush
      0001A9 4B 01            [ 1]  893 	push	#0x01
                           0001AB   894 	Sstm8_hd44780$lcd_bus_inputs$224 ==.
                                    895 ; genIPush
      0001AB 4B 1E            [ 1]  896 	push	#0x1e
                           0001AD   897 	Sstm8_hd44780$lcd_bus_inputs$225 ==.
      0001AD 4B 50            [ 1]  898 	push	#0x50
                           0001AF   899 	Sstm8_hd44780$lcd_bus_inputs$226 ==.
                                    900 ; genCall
      0001AF CDr00r00         [ 4]  901 	call	_GPIO_Init
      0001B2 5B 04            [ 2]  902 	addw	sp, #4
                           0001B4   903 	Sstm8_hd44780$lcd_bus_inputs$227 ==.
                           0001B4   904 	Sstm8_hd44780$lcd_bus_inputs$228 ==.
                                    905 ;	./src/stm8_hd44780.c: 140: GPIO_Init(LCD_D5_PORT,LCD_D5_PIN,GPIO_MODE_IN_FL_NO_IT);
                                    906 ; genIPush
      0001B4 4B 00            [ 1]  907 	push	#0x00
                           0001B6   908 	Sstm8_hd44780$lcd_bus_inputs$229 ==.
                                    909 ; genIPush
      0001B6 4B 02            [ 1]  910 	push	#0x02
                           0001B8   911 	Sstm8_hd44780$lcd_bus_inputs$230 ==.
                                    912 ; genIPush
      0001B8 4B 1E            [ 1]  913 	push	#0x1e
                           0001BA   914 	Sstm8_hd44780$lcd_bus_inputs$231 ==.
      0001BA 4B 50            [ 1]  915 	push	#0x50
                           0001BC   916 	Sstm8_hd44780$lcd_bus_inputs$232 ==.
                                    917 ; genCall
      0001BC CDr00r00         [ 4]  918 	call	_GPIO_Init
      0001BF 5B 04            [ 2]  919 	addw	sp, #4
                           0001C1   920 	Sstm8_hd44780$lcd_bus_inputs$233 ==.
                           0001C1   921 	Sstm8_hd44780$lcd_bus_inputs$234 ==.
                                    922 ;	./src/stm8_hd44780.c: 141: GPIO_Init(LCD_D6_PORT,LCD_D6_PIN,GPIO_MODE_IN_FL_NO_IT);
                                    923 ; genIPush
      0001C1 4B 00            [ 1]  924 	push	#0x00
                           0001C3   925 	Sstm8_hd44780$lcd_bus_inputs$235 ==.
                                    926 ; genIPush
      0001C3 4B 04            [ 1]  927 	push	#0x04
                           0001C5   928 	Sstm8_hd44780$lcd_bus_inputs$236 ==.
                                    929 ; genIPush
      0001C5 4B 1E            [ 1]  930 	push	#0x1e
                           0001C7   931 	Sstm8_hd44780$lcd_bus_inputs$237 ==.
      0001C7 4B 50            [ 1]  932 	push	#0x50
                           0001C9   933 	Sstm8_hd44780$lcd_bus_inputs$238 ==.
                                    934 ; genCall
      0001C9 CDr00r00         [ 4]  935 	call	_GPIO_Init
      0001CC 5B 04            [ 2]  936 	addw	sp, #4
                           0001CE   937 	Sstm8_hd44780$lcd_bus_inputs$239 ==.
                           0001CE   938 	Sstm8_hd44780$lcd_bus_inputs$240 ==.
                                    939 ;	./src/stm8_hd44780.c: 142: GPIO_Init(LCD_D7_PORT,LCD_D7_PIN,GPIO_MODE_IN_FL_NO_IT); 
                                    940 ; genIPush
      0001CE 4B 00            [ 1]  941 	push	#0x00
                           0001D0   942 	Sstm8_hd44780$lcd_bus_inputs$241 ==.
                                    943 ; genIPush
      0001D0 4B 08            [ 1]  944 	push	#0x08
                           0001D2   945 	Sstm8_hd44780$lcd_bus_inputs$242 ==.
                                    946 ; genIPush
      0001D2 4B 1E            [ 1]  947 	push	#0x1e
                           0001D4   948 	Sstm8_hd44780$lcd_bus_inputs$243 ==.
      0001D4 4B 50            [ 1]  949 	push	#0x50
                           0001D6   950 	Sstm8_hd44780$lcd_bus_inputs$244 ==.
                                    951 ; genCall
      0001D6 CDr00r00         [ 4]  952 	call	_GPIO_Init
      0001D9 5B 04            [ 2]  953 	addw	sp, #4
                           0001DB   954 	Sstm8_hd44780$lcd_bus_inputs$245 ==.
                                    955 ; genLabel
      0001DB                        956 00101$:
                           0001DB   957 	Sstm8_hd44780$lcd_bus_inputs$246 ==.
                                    958 ;	./src/stm8_hd44780.c: 144: }
                                    959 ; genEndFunction
                           0001DB   960 	Sstm8_hd44780$lcd_bus_inputs$247 ==.
                           0001DB   961 	XG$lcd_bus_inputs$0$0 ==.
      0001DB 81               [ 4]  962 	ret
                           0001DC   963 	Sstm8_hd44780$lcd_bus_inputs$248 ==.
                           0001DC   964 	Sstm8_hd44780$lcd_deinit_hw$249 ==.
                                    965 ;	./src/stm8_hd44780.c: 147: void lcd_deinit_hw(void){
                                    966 ; genLabel
                                    967 ;	-----------------------------------------
                                    968 ;	 function lcd_deinit_hw
                                    969 ;	-----------------------------------------
                                    970 ;	Register assignment is optimal.
                                    971 ;	Stack space usage: 0 bytes.
      0001DC                        972 _lcd_deinit_hw:
                           0001DC   973 	Sstm8_hd44780$lcd_deinit_hw$250 ==.
                           0001DC   974 	Sstm8_hd44780$lcd_deinit_hw$251 ==.
                                    975 ;	./src/stm8_hd44780.c: 148: GPIO_Init(LCD_RS_PORT,LCD_RS_PIN,GPIO_MODE_IN_FL_NO_IT);
                                    976 ; genIPush
      0001DC 4B 00            [ 1]  977 	push	#0x00
                           0001DE   978 	Sstm8_hd44780$lcd_deinit_hw$252 ==.
                                    979 ; genIPush
      0001DE 4B 80            [ 1]  980 	push	#0x80
                           0001E0   981 	Sstm8_hd44780$lcd_deinit_hw$253 ==.
                                    982 ; genIPush
      0001E0 4B 19            [ 1]  983 	push	#0x19
                           0001E2   984 	Sstm8_hd44780$lcd_deinit_hw$254 ==.
      0001E2 4B 50            [ 1]  985 	push	#0x50
                           0001E4   986 	Sstm8_hd44780$lcd_deinit_hw$255 ==.
                                    987 ; genCall
      0001E4 CDr00r00         [ 4]  988 	call	_GPIO_Init
      0001E7 5B 04            [ 2]  989 	addw	sp, #4
                           0001E9   990 	Sstm8_hd44780$lcd_deinit_hw$256 ==.
                           0001E9   991 	Sstm8_hd44780$lcd_deinit_hw$257 ==.
                                    992 ;	./src/stm8_hd44780.c: 149: GPIO_Init(LCD_RW_PORT,LCD_RW_PIN,GPIO_MODE_IN_FL_NO_IT);
                                    993 ; genIPush
      0001E9 4B 00            [ 1]  994 	push	#0x00
                           0001EB   995 	Sstm8_hd44780$lcd_deinit_hw$258 ==.
                                    996 ; genIPush
      0001EB 4B 40            [ 1]  997 	push	#0x40
                           0001ED   998 	Sstm8_hd44780$lcd_deinit_hw$259 ==.
                                    999 ; genIPush
      0001ED 4B 19            [ 1] 1000 	push	#0x19
                           0001EF  1001 	Sstm8_hd44780$lcd_deinit_hw$260 ==.
      0001EF 4B 50            [ 1] 1002 	push	#0x50
                           0001F1  1003 	Sstm8_hd44780$lcd_deinit_hw$261 ==.
                                   1004 ; genCall
      0001F1 CDr00r00         [ 4] 1005 	call	_GPIO_Init
      0001F4 5B 04            [ 2] 1006 	addw	sp, #4
                           0001F6  1007 	Sstm8_hd44780$lcd_deinit_hw$262 ==.
                           0001F6  1008 	Sstm8_hd44780$lcd_deinit_hw$263 ==.
                                   1009 ;	./src/stm8_hd44780.c: 150: GPIO_Init(LCD_E_PORT,LCD_E_PIN,GPIO_MODE_IN_FL_NO_IT);
                                   1010 ; genIPush
      0001F6 4B 00            [ 1] 1011 	push	#0x00
                           0001F8  1012 	Sstm8_hd44780$lcd_deinit_hw$264 ==.
                                   1013 ; genIPush
      0001F8 4B 20            [ 1] 1014 	push	#0x20
                           0001FA  1015 	Sstm8_hd44780$lcd_deinit_hw$265 ==.
                                   1016 ; genIPush
      0001FA 4B 19            [ 1] 1017 	push	#0x19
                           0001FC  1018 	Sstm8_hd44780$lcd_deinit_hw$266 ==.
      0001FC 4B 50            [ 1] 1019 	push	#0x50
                           0001FE  1020 	Sstm8_hd44780$lcd_deinit_hw$267 ==.
                                   1021 ; genCall
      0001FE CDr00r00         [ 4] 1022 	call	_GPIO_Init
      000201 5B 04            [ 2] 1023 	addw	sp, #4
                           000203  1024 	Sstm8_hd44780$lcd_deinit_hw$268 ==.
                           000203  1025 	Sstm8_hd44780$lcd_deinit_hw$269 ==.
                                   1026 ;	./src/stm8_hd44780.c: 151: GPIO_Init(LCD_D4_PORT,LCD_D4_PIN,GPIO_MODE_IN_FL_NO_IT);
                                   1027 ; genIPush
      000203 4B 00            [ 1] 1028 	push	#0x00
                           000205  1029 	Sstm8_hd44780$lcd_deinit_hw$270 ==.
                                   1030 ; genIPush
      000205 4B 01            [ 1] 1031 	push	#0x01
                           000207  1032 	Sstm8_hd44780$lcd_deinit_hw$271 ==.
                                   1033 ; genIPush
      000207 4B 1E            [ 1] 1034 	push	#0x1e
                           000209  1035 	Sstm8_hd44780$lcd_deinit_hw$272 ==.
      000209 4B 50            [ 1] 1036 	push	#0x50
                           00020B  1037 	Sstm8_hd44780$lcd_deinit_hw$273 ==.
                                   1038 ; genCall
      00020B CDr00r00         [ 4] 1039 	call	_GPIO_Init
      00020E 5B 04            [ 2] 1040 	addw	sp, #4
                           000210  1041 	Sstm8_hd44780$lcd_deinit_hw$274 ==.
                           000210  1042 	Sstm8_hd44780$lcd_deinit_hw$275 ==.
                                   1043 ;	./src/stm8_hd44780.c: 152: GPIO_Init(LCD_D5_PORT,LCD_D5_PIN,GPIO_MODE_IN_FL_NO_IT);
                                   1044 ; genIPush
      000210 4B 00            [ 1] 1045 	push	#0x00
                           000212  1046 	Sstm8_hd44780$lcd_deinit_hw$276 ==.
                                   1047 ; genIPush
      000212 4B 02            [ 1] 1048 	push	#0x02
                           000214  1049 	Sstm8_hd44780$lcd_deinit_hw$277 ==.
                                   1050 ; genIPush
      000214 4B 1E            [ 1] 1051 	push	#0x1e
                           000216  1052 	Sstm8_hd44780$lcd_deinit_hw$278 ==.
      000216 4B 50            [ 1] 1053 	push	#0x50
                           000218  1054 	Sstm8_hd44780$lcd_deinit_hw$279 ==.
                                   1055 ; genCall
      000218 CDr00r00         [ 4] 1056 	call	_GPIO_Init
      00021B 5B 04            [ 2] 1057 	addw	sp, #4
                           00021D  1058 	Sstm8_hd44780$lcd_deinit_hw$280 ==.
                           00021D  1059 	Sstm8_hd44780$lcd_deinit_hw$281 ==.
                                   1060 ;	./src/stm8_hd44780.c: 153: GPIO_Init(LCD_D6_PORT,LCD_D6_PIN,GPIO_MODE_IN_FL_NO_IT);
                                   1061 ; genIPush
      00021D 4B 00            [ 1] 1062 	push	#0x00
                           00021F  1063 	Sstm8_hd44780$lcd_deinit_hw$282 ==.
                                   1064 ; genIPush
      00021F 4B 04            [ 1] 1065 	push	#0x04
                           000221  1066 	Sstm8_hd44780$lcd_deinit_hw$283 ==.
                                   1067 ; genIPush
      000221 4B 1E            [ 1] 1068 	push	#0x1e
                           000223  1069 	Sstm8_hd44780$lcd_deinit_hw$284 ==.
      000223 4B 50            [ 1] 1070 	push	#0x50
                           000225  1071 	Sstm8_hd44780$lcd_deinit_hw$285 ==.
                                   1072 ; genCall
      000225 CDr00r00         [ 4] 1073 	call	_GPIO_Init
      000228 5B 04            [ 2] 1074 	addw	sp, #4
                           00022A  1075 	Sstm8_hd44780$lcd_deinit_hw$286 ==.
                           00022A  1076 	Sstm8_hd44780$lcd_deinit_hw$287 ==.
                                   1077 ;	./src/stm8_hd44780.c: 154: GPIO_Init(LCD_D7_PORT,LCD_D7_PIN,GPIO_MODE_IN_FL_NO_IT); 
                                   1078 ; genIPush
      00022A 4B 00            [ 1] 1079 	push	#0x00
                           00022C  1080 	Sstm8_hd44780$lcd_deinit_hw$288 ==.
                                   1081 ; genIPush
      00022C 4B 08            [ 1] 1082 	push	#0x08
                           00022E  1083 	Sstm8_hd44780$lcd_deinit_hw$289 ==.
                                   1084 ; genIPush
      00022E 4B 1E            [ 1] 1085 	push	#0x1e
                           000230  1086 	Sstm8_hd44780$lcd_deinit_hw$290 ==.
      000230 4B 50            [ 1] 1087 	push	#0x50
                           000232  1088 	Sstm8_hd44780$lcd_deinit_hw$291 ==.
                                   1089 ; genCall
      000232 CDr00r00         [ 4] 1090 	call	_GPIO_Init
      000235 5B 04            [ 2] 1091 	addw	sp, #4
                           000237  1092 	Sstm8_hd44780$lcd_deinit_hw$292 ==.
                                   1093 ; genLabel
      000237                       1094 00101$:
                           000237  1095 	Sstm8_hd44780$lcd_deinit_hw$293 ==.
                                   1096 ;	./src/stm8_hd44780.c: 155: }
                                   1097 ; genEndFunction
                           000237  1098 	Sstm8_hd44780$lcd_deinit_hw$294 ==.
                           000237  1099 	XG$lcd_deinit_hw$0$0 ==.
      000237 81               [ 4] 1100 	ret
                           000238  1101 	Sstm8_hd44780$lcd_deinit_hw$295 ==.
                           000238  1102 	Sstm8_hd44780$lcd_bus_set$296 ==.
                                   1103 ;	./src/stm8_hd44780.c: 158: void lcd_bus_set(uint8_t data){
                                   1104 ; genLabel
                                   1105 ;	-----------------------------------------
                                   1106 ;	 function lcd_bus_set
                                   1107 ;	-----------------------------------------
                                   1108 ;	Register assignment is optimal.
                                   1109 ;	Stack space usage: 0 bytes.
      000238                       1110 _lcd_bus_set:
                           000238  1111 	Sstm8_hd44780$lcd_bus_set$297 ==.
                           000238  1112 	Sstm8_hd44780$lcd_bus_set$298 ==.
                                   1113 ;	./src/stm8_hd44780.c: 159: if(data & (1<<0)){LCD_D4_H;}else{LCD_D4_L;}
                                   1114 ; genAnd
      000238 7B 03            [ 1] 1115 	ld	a, (0x03, sp)
      00023A 44               [ 1] 1116 	srl	a
      00023B 25 03            [ 1] 1117 	jrc	00135$
      00023D CCr02r4E         [ 2] 1118 	jp	00102$
      000240                       1119 00135$:
                                   1120 ; skipping generated iCode
                           000240  1121 	Sstm8_hd44780$lcd_bus_set$299 ==.
                                   1122 ; genIPush
      000240 4B 01            [ 1] 1123 	push	#0x01
                           000242  1124 	Sstm8_hd44780$lcd_bus_set$300 ==.
                                   1125 ; genIPush
      000242 4B 1E            [ 1] 1126 	push	#0x1e
                           000244  1127 	Sstm8_hd44780$lcd_bus_set$301 ==.
      000244 4B 50            [ 1] 1128 	push	#0x50
                           000246  1129 	Sstm8_hd44780$lcd_bus_set$302 ==.
                                   1130 ; genCall
      000246 CDr00r00         [ 4] 1131 	call	_GPIO_WriteHigh
      000249 5B 03            [ 2] 1132 	addw	sp, #3
                           00024B  1133 	Sstm8_hd44780$lcd_bus_set$303 ==.
                           00024B  1134 	Sstm8_hd44780$lcd_bus_set$304 ==.
                                   1135 ; genGoto
      00024B CCr02r59         [ 2] 1136 	jp	00103$
                                   1137 ; genLabel
      00024E                       1138 00102$:
                           00024E  1139 	Sstm8_hd44780$lcd_bus_set$305 ==.
                                   1140 ; genIPush
      00024E 4B 01            [ 1] 1141 	push	#0x01
                           000250  1142 	Sstm8_hd44780$lcd_bus_set$306 ==.
                                   1143 ; genIPush
      000250 4B 1E            [ 1] 1144 	push	#0x1e
                           000252  1145 	Sstm8_hd44780$lcd_bus_set$307 ==.
      000252 4B 50            [ 1] 1146 	push	#0x50
                           000254  1147 	Sstm8_hd44780$lcd_bus_set$308 ==.
                                   1148 ; genCall
      000254 CDr00r00         [ 4] 1149 	call	_GPIO_WriteLow
      000257 5B 03            [ 2] 1150 	addw	sp, #3
                           000259  1151 	Sstm8_hd44780$lcd_bus_set$309 ==.
                           000259  1152 	Sstm8_hd44780$lcd_bus_set$310 ==.
                                   1153 ; genLabel
      000259                       1154 00103$:
                           000259  1155 	Sstm8_hd44780$lcd_bus_set$311 ==.
                                   1156 ;	./src/stm8_hd44780.c: 160: if(data & (1<<1)){LCD_D5_H;}else{LCD_D5_L;}
                                   1157 ; genAnd
      000259 7B 03            [ 1] 1158 	ld	a, (0x03, sp)
      00025B A5 02            [ 1] 1159 	bcp	a, #0x02
      00025D 26 03            [ 1] 1160 	jrne	00136$
      00025F CCr02r70         [ 2] 1161 	jp	00105$
      000262                       1162 00136$:
                                   1163 ; skipping generated iCode
                           000262  1164 	Sstm8_hd44780$lcd_bus_set$312 ==.
                                   1165 ; genIPush
      000262 4B 02            [ 1] 1166 	push	#0x02
                           000264  1167 	Sstm8_hd44780$lcd_bus_set$313 ==.
                                   1168 ; genIPush
      000264 4B 1E            [ 1] 1169 	push	#0x1e
                           000266  1170 	Sstm8_hd44780$lcd_bus_set$314 ==.
      000266 4B 50            [ 1] 1171 	push	#0x50
                           000268  1172 	Sstm8_hd44780$lcd_bus_set$315 ==.
                                   1173 ; genCall
      000268 CDr00r00         [ 4] 1174 	call	_GPIO_WriteHigh
      00026B 5B 03            [ 2] 1175 	addw	sp, #3
                           00026D  1176 	Sstm8_hd44780$lcd_bus_set$316 ==.
                           00026D  1177 	Sstm8_hd44780$lcd_bus_set$317 ==.
                                   1178 ; genGoto
      00026D CCr02r7B         [ 2] 1179 	jp	00106$
                                   1180 ; genLabel
      000270                       1181 00105$:
                           000270  1182 	Sstm8_hd44780$lcd_bus_set$318 ==.
                                   1183 ; genIPush
      000270 4B 02            [ 1] 1184 	push	#0x02
                           000272  1185 	Sstm8_hd44780$lcd_bus_set$319 ==.
                                   1186 ; genIPush
      000272 4B 1E            [ 1] 1187 	push	#0x1e
                           000274  1188 	Sstm8_hd44780$lcd_bus_set$320 ==.
      000274 4B 50            [ 1] 1189 	push	#0x50
                           000276  1190 	Sstm8_hd44780$lcd_bus_set$321 ==.
                                   1191 ; genCall
      000276 CDr00r00         [ 4] 1192 	call	_GPIO_WriteLow
      000279 5B 03            [ 2] 1193 	addw	sp, #3
                           00027B  1194 	Sstm8_hd44780$lcd_bus_set$322 ==.
                           00027B  1195 	Sstm8_hd44780$lcd_bus_set$323 ==.
                                   1196 ; genLabel
      00027B                       1197 00106$:
                           00027B  1198 	Sstm8_hd44780$lcd_bus_set$324 ==.
                                   1199 ;	./src/stm8_hd44780.c: 161: if(data & (1<<2)){LCD_D6_H;}else{LCD_D6_L;}
                                   1200 ; genAnd
      00027B 7B 03            [ 1] 1201 	ld	a, (0x03, sp)
      00027D A5 04            [ 1] 1202 	bcp	a, #0x04
      00027F 26 03            [ 1] 1203 	jrne	00137$
      000281 CCr02r92         [ 2] 1204 	jp	00108$
      000284                       1205 00137$:
                                   1206 ; skipping generated iCode
                           000284  1207 	Sstm8_hd44780$lcd_bus_set$325 ==.
                                   1208 ; genIPush
      000284 4B 04            [ 1] 1209 	push	#0x04
                           000286  1210 	Sstm8_hd44780$lcd_bus_set$326 ==.
                                   1211 ; genIPush
      000286 4B 1E            [ 1] 1212 	push	#0x1e
                           000288  1213 	Sstm8_hd44780$lcd_bus_set$327 ==.
      000288 4B 50            [ 1] 1214 	push	#0x50
                           00028A  1215 	Sstm8_hd44780$lcd_bus_set$328 ==.
                                   1216 ; genCall
      00028A CDr00r00         [ 4] 1217 	call	_GPIO_WriteHigh
      00028D 5B 03            [ 2] 1218 	addw	sp, #3
                           00028F  1219 	Sstm8_hd44780$lcd_bus_set$329 ==.
                           00028F  1220 	Sstm8_hd44780$lcd_bus_set$330 ==.
                                   1221 ; genGoto
      00028F CCr02r9D         [ 2] 1222 	jp	00109$
                                   1223 ; genLabel
      000292                       1224 00108$:
                           000292  1225 	Sstm8_hd44780$lcd_bus_set$331 ==.
                                   1226 ; genIPush
      000292 4B 04            [ 1] 1227 	push	#0x04
                           000294  1228 	Sstm8_hd44780$lcd_bus_set$332 ==.
                                   1229 ; genIPush
      000294 4B 1E            [ 1] 1230 	push	#0x1e
                           000296  1231 	Sstm8_hd44780$lcd_bus_set$333 ==.
      000296 4B 50            [ 1] 1232 	push	#0x50
                           000298  1233 	Sstm8_hd44780$lcd_bus_set$334 ==.
                                   1234 ; genCall
      000298 CDr00r00         [ 4] 1235 	call	_GPIO_WriteLow
      00029B 5B 03            [ 2] 1236 	addw	sp, #3
                           00029D  1237 	Sstm8_hd44780$lcd_bus_set$335 ==.
                           00029D  1238 	Sstm8_hd44780$lcd_bus_set$336 ==.
                                   1239 ; genLabel
      00029D                       1240 00109$:
                           00029D  1241 	Sstm8_hd44780$lcd_bus_set$337 ==.
                                   1242 ;	./src/stm8_hd44780.c: 162: if(data & (1<<3)){LCD_D7_H;}else{LCD_D7_L;}
                                   1243 ; genAnd
      00029D 7B 03            [ 1] 1244 	ld	a, (0x03, sp)
      00029F A5 08            [ 1] 1245 	bcp	a, #0x08
      0002A1 26 03            [ 1] 1246 	jrne	00138$
      0002A3 CCr02rB4         [ 2] 1247 	jp	00111$
      0002A6                       1248 00138$:
                                   1249 ; skipping generated iCode
                           0002A6  1250 	Sstm8_hd44780$lcd_bus_set$338 ==.
                                   1251 ; genIPush
      0002A6 4B 08            [ 1] 1252 	push	#0x08
                           0002A8  1253 	Sstm8_hd44780$lcd_bus_set$339 ==.
                                   1254 ; genIPush
      0002A8 4B 1E            [ 1] 1255 	push	#0x1e
                           0002AA  1256 	Sstm8_hd44780$lcd_bus_set$340 ==.
      0002AA 4B 50            [ 1] 1257 	push	#0x50
                           0002AC  1258 	Sstm8_hd44780$lcd_bus_set$341 ==.
                                   1259 ; genCall
      0002AC CDr00r00         [ 4] 1260 	call	_GPIO_WriteHigh
      0002AF 5B 03            [ 2] 1261 	addw	sp, #3
                           0002B1  1262 	Sstm8_hd44780$lcd_bus_set$342 ==.
                           0002B1  1263 	Sstm8_hd44780$lcd_bus_set$343 ==.
                                   1264 ; genGoto
      0002B1 CCr02rBF         [ 2] 1265 	jp	00113$
                                   1266 ; genLabel
      0002B4                       1267 00111$:
                           0002B4  1268 	Sstm8_hd44780$lcd_bus_set$344 ==.
                                   1269 ; genIPush
      0002B4 4B 08            [ 1] 1270 	push	#0x08
                           0002B6  1271 	Sstm8_hd44780$lcd_bus_set$345 ==.
                                   1272 ; genIPush
      0002B6 4B 1E            [ 1] 1273 	push	#0x1e
                           0002B8  1274 	Sstm8_hd44780$lcd_bus_set$346 ==.
      0002B8 4B 50            [ 1] 1275 	push	#0x50
                           0002BA  1276 	Sstm8_hd44780$lcd_bus_set$347 ==.
                                   1277 ; genCall
      0002BA CDr00r00         [ 4] 1278 	call	_GPIO_WriteLow
      0002BD 5B 03            [ 2] 1279 	addw	sp, #3
                           0002BF  1280 	Sstm8_hd44780$lcd_bus_set$348 ==.
                           0002BF  1281 	Sstm8_hd44780$lcd_bus_set$349 ==.
                                   1282 ; genLabel
      0002BF                       1283 00113$:
                           0002BF  1284 	Sstm8_hd44780$lcd_bus_set$350 ==.
                                   1285 ;	./src/stm8_hd44780.c: 163: }
                                   1286 ; genEndFunction
                           0002BF  1287 	Sstm8_hd44780$lcd_bus_set$351 ==.
                           0002BF  1288 	XG$lcd_bus_set$0$0 ==.
      0002BF 81               [ 4] 1289 	ret
                           0002C0  1290 	Sstm8_hd44780$lcd_bus_set$352 ==.
                           0002C0  1291 	Sstm8_hd44780$lcd_bus_read$353 ==.
                                   1292 ;	./src/stm8_hd44780.c: 166: uint8_t lcd_bus_read(void){
                                   1293 ; genLabel
                                   1294 ;	-----------------------------------------
                                   1295 ;	 function lcd_bus_read
                                   1296 ;	-----------------------------------------
                                   1297 ;	Register assignment is optimal.
                                   1298 ;	Stack space usage: 1 bytes.
      0002C0                       1299 _lcd_bus_read:
                           0002C0  1300 	Sstm8_hd44780$lcd_bus_read$354 ==.
      0002C0 88               [ 1] 1301 	push	a
                           0002C1  1302 	Sstm8_hd44780$lcd_bus_read$355 ==.
                           0002C1  1303 	Sstm8_hd44780$lcd_bus_read$356 ==.
                                   1304 ;	./src/stm8_hd44780.c: 167: uint8_t tmp=0;
                                   1305 ; genAssign
      0002C1 0F 01            [ 1] 1306 	clr	(0x01, sp)
                           0002C3  1307 	Sstm8_hd44780$lcd_bus_read$357 ==.
                                   1308 ;	./src/stm8_hd44780.c: 168: if(GPIO_ReadInputPin(LCD_D4_PORT,LCD_D4_PIN)){tmp |= 1<<0;}
                                   1309 ; genIPush
      0002C3 4B 01            [ 1] 1310 	push	#0x01
                           0002C5  1311 	Sstm8_hd44780$lcd_bus_read$358 ==.
                                   1312 ; genIPush
      0002C5 4B 1E            [ 1] 1313 	push	#0x1e
                           0002C7  1314 	Sstm8_hd44780$lcd_bus_read$359 ==.
      0002C7 4B 50            [ 1] 1315 	push	#0x50
                           0002C9  1316 	Sstm8_hd44780$lcd_bus_read$360 ==.
                                   1317 ; genCall
      0002C9 CDr00r00         [ 4] 1318 	call	_GPIO_ReadInputPin
      0002CC 5B 03            [ 2] 1319 	addw	sp, #3
                           0002CE  1320 	Sstm8_hd44780$lcd_bus_read$361 ==.
                                   1321 ; genIfx
      0002CE 4D               [ 1] 1322 	tnz	a
      0002CF 26 03            [ 1] 1323 	jrne	00131$
      0002D1 CCr02rD9         [ 2] 1324 	jp	00102$
      0002D4                       1325 00131$:
                           0002D4  1326 	Sstm8_hd44780$lcd_bus_read$362 ==.
                                   1327 ; genOr
      0002D4 04 01            [ 1] 1328 	srl	(0x01, sp)
      0002D6 99               [ 1] 1329 	scf
      0002D7 09 01            [ 1] 1330 	rlc	(0x01, sp)
                           0002D9  1331 	Sstm8_hd44780$lcd_bus_read$363 ==.
                                   1332 ; genLabel
      0002D9                       1333 00102$:
                           0002D9  1334 	Sstm8_hd44780$lcd_bus_read$364 ==.
                                   1335 ;	./src/stm8_hd44780.c: 169: if(GPIO_ReadInputPin(LCD_D5_PORT,LCD_D5_PIN)){tmp |= 1<<1;}
                                   1336 ; genIPush
      0002D9 4B 02            [ 1] 1337 	push	#0x02
                           0002DB  1338 	Sstm8_hd44780$lcd_bus_read$365 ==.
                                   1339 ; genIPush
      0002DB 4B 1E            [ 1] 1340 	push	#0x1e
                           0002DD  1341 	Sstm8_hd44780$lcd_bus_read$366 ==.
      0002DD 4B 50            [ 1] 1342 	push	#0x50
                           0002DF  1343 	Sstm8_hd44780$lcd_bus_read$367 ==.
                                   1344 ; genCall
      0002DF CDr00r00         [ 4] 1345 	call	_GPIO_ReadInputPin
      0002E2 5B 03            [ 2] 1346 	addw	sp, #3
                           0002E4  1347 	Sstm8_hd44780$lcd_bus_read$368 ==.
                                   1348 ; genIfx
      0002E4 4D               [ 1] 1349 	tnz	a
      0002E5 26 03            [ 1] 1350 	jrne	00132$
      0002E7 CCr02rF0         [ 2] 1351 	jp	00104$
      0002EA                       1352 00132$:
                           0002EA  1353 	Sstm8_hd44780$lcd_bus_read$369 ==.
                                   1354 ; genOr
      0002EA 7B 01            [ 1] 1355 	ld	a, (0x01, sp)
      0002EC AA 02            [ 1] 1356 	or	a, #0x02
      0002EE 6B 01            [ 1] 1357 	ld	(0x01, sp), a
                           0002F0  1358 	Sstm8_hd44780$lcd_bus_read$370 ==.
                                   1359 ; genLabel
      0002F0                       1360 00104$:
                           0002F0  1361 	Sstm8_hd44780$lcd_bus_read$371 ==.
                                   1362 ;	./src/stm8_hd44780.c: 170: if(GPIO_ReadInputPin(LCD_D6_PORT,LCD_D6_PIN)){tmp |= 1<<2;}
                                   1363 ; genIPush
      0002F0 4B 04            [ 1] 1364 	push	#0x04
                           0002F2  1365 	Sstm8_hd44780$lcd_bus_read$372 ==.
                                   1366 ; genIPush
      0002F2 4B 1E            [ 1] 1367 	push	#0x1e
                           0002F4  1368 	Sstm8_hd44780$lcd_bus_read$373 ==.
      0002F4 4B 50            [ 1] 1369 	push	#0x50
                           0002F6  1370 	Sstm8_hd44780$lcd_bus_read$374 ==.
                                   1371 ; genCall
      0002F6 CDr00r00         [ 4] 1372 	call	_GPIO_ReadInputPin
      0002F9 5B 03            [ 2] 1373 	addw	sp, #3
                           0002FB  1374 	Sstm8_hd44780$lcd_bus_read$375 ==.
                                   1375 ; genIfx
      0002FB 4D               [ 1] 1376 	tnz	a
      0002FC 26 03            [ 1] 1377 	jrne	00133$
      0002FE CCr03r07         [ 2] 1378 	jp	00106$
      000301                       1379 00133$:
                           000301  1380 	Sstm8_hd44780$lcd_bus_read$376 ==.
                                   1381 ; genOr
      000301 7B 01            [ 1] 1382 	ld	a, (0x01, sp)
      000303 AA 04            [ 1] 1383 	or	a, #0x04
      000305 6B 01            [ 1] 1384 	ld	(0x01, sp), a
                           000307  1385 	Sstm8_hd44780$lcd_bus_read$377 ==.
                                   1386 ; genLabel
      000307                       1387 00106$:
                           000307  1388 	Sstm8_hd44780$lcd_bus_read$378 ==.
                                   1389 ;	./src/stm8_hd44780.c: 171: if(GPIO_ReadInputPin(LCD_D7_PORT,LCD_D7_PIN)){tmp |= 1<<3;}
                                   1390 ; genIPush
      000307 4B 08            [ 1] 1391 	push	#0x08
                           000309  1392 	Sstm8_hd44780$lcd_bus_read$379 ==.
                                   1393 ; genIPush
      000309 4B 1E            [ 1] 1394 	push	#0x1e
                           00030B  1395 	Sstm8_hd44780$lcd_bus_read$380 ==.
      00030B 4B 50            [ 1] 1396 	push	#0x50
                           00030D  1397 	Sstm8_hd44780$lcd_bus_read$381 ==.
                                   1398 ; genCall
      00030D CDr00r00         [ 4] 1399 	call	_GPIO_ReadInputPin
      000310 5B 03            [ 2] 1400 	addw	sp, #3
                           000312  1401 	Sstm8_hd44780$lcd_bus_read$382 ==.
                                   1402 ; genIfx
      000312 4D               [ 1] 1403 	tnz	a
      000313 26 03            [ 1] 1404 	jrne	00134$
      000315 CCr03r1E         [ 2] 1405 	jp	00108$
      000318                       1406 00134$:
                           000318  1407 	Sstm8_hd44780$lcd_bus_read$383 ==.
                                   1408 ; genOr
      000318 7B 01            [ 1] 1409 	ld	a, (0x01, sp)
      00031A AA 08            [ 1] 1410 	or	a, #0x08
      00031C 6B 01            [ 1] 1411 	ld	(0x01, sp), a
                           00031E  1412 	Sstm8_hd44780$lcd_bus_read$384 ==.
                                   1413 ; genLabel
      00031E                       1414 00108$:
                           00031E  1415 	Sstm8_hd44780$lcd_bus_read$385 ==.
                                   1416 ;	./src/stm8_hd44780.c: 172: return tmp;
                                   1417 ; genReturn
      00031E 7B 01            [ 1] 1418 	ld	a, (0x01, sp)
                                   1419 ; genLabel
      000320                       1420 00109$:
                           000320  1421 	Sstm8_hd44780$lcd_bus_read$386 ==.
                                   1422 ;	./src/stm8_hd44780.c: 173: }
                                   1423 ; genEndFunction
      000320 5B 01            [ 2] 1424 	addw	sp, #1
                           000322  1425 	Sstm8_hd44780$lcd_bus_read$387 ==.
                           000322  1426 	Sstm8_hd44780$lcd_bus_read$388 ==.
                           000322  1427 	XG$lcd_bus_read$0$0 ==.
      000322 81               [ 4] 1428 	ret
                           000323  1429 	Sstm8_hd44780$lcd_bus_read$389 ==.
                           000323  1430 	Sstm8_hd44780$lcd_e_tick$390 ==.
                                   1431 ;	./src/stm8_hd44780.c: 176: void lcd_e_tick(void){
                                   1432 ; genLabel
                                   1433 ;	-----------------------------------------
                                   1434 ;	 function lcd_e_tick
                                   1435 ;	-----------------------------------------
                                   1436 ;	Register assignment is optimal.
                                   1437 ;	Stack space usage: 0 bytes.
      000323                       1438 _lcd_e_tick:
                           000323  1439 	Sstm8_hd44780$lcd_e_tick$391 ==.
                           000323  1440 	Sstm8_hd44780$lcd_e_tick$392 ==.
                                   1441 ;	./src/stm8_hd44780.c: 177: LCD_E_H;
                                   1442 ; genIPush
      000323 4B 20            [ 1] 1443 	push	#0x20
                           000325  1444 	Sstm8_hd44780$lcd_e_tick$393 ==.
                                   1445 ; genIPush
      000325 4B 19            [ 1] 1446 	push	#0x19
                           000327  1447 	Sstm8_hd44780$lcd_e_tick$394 ==.
      000327 4B 50            [ 1] 1448 	push	#0x50
                           000329  1449 	Sstm8_hd44780$lcd_e_tick$395 ==.
                                   1450 ; genCall
      000329 CDr00r00         [ 4] 1451 	call	_GPIO_WriteHigh
      00032C 5B 03            [ 2] 1452 	addw	sp, #3
                           00032E  1453 	Sstm8_hd44780$lcd_e_tick$396 ==.
                           00032E  1454 	Sstm8_hd44780$lcd_e_tick$397 ==.
                                   1455 ;	inc/delay.h: 42: _delay_cycl( (unsigned short)( T_COUNT(__us) ));
                                   1456 ; genAssign
      00032E AE 00 03         [ 2] 1457 	ldw	x, #0x0003
                           000331  1458 	Sstm8_hd44780$lcd_e_tick$398 ==.
                                   1459 ;	inc/delay.h: 25: __asm__("nop\n nop\n"); 
                                   1460 ;	genInline
      000331 9D               [ 1] 1461 	nop
      000332 9D               [ 1] 1462 	nop
                           000333  1463 	Sstm8_hd44780$lcd_e_tick$399 ==.
                           000333  1464 	Sstm8_hd44780$lcd_e_tick$400 ==.
                                   1465 ;	inc/delay.h: 26: do { 		// ASM: ldw X, #tick; lab$: decw X; tnzw X; jrne lab$
                                   1466 ; genAssign
                                   1467 ; genLabel
      000333                       1468 00101$:
                           000333  1469 	Sstm8_hd44780$lcd_e_tick$401 ==.
                                   1470 ;	inc/delay.h: 27: __ticks--;//      2c;                 1c;     2c    ; 1/2c   
                                   1471 ; genMinus
      000333 5A               [ 2] 1472 	decw	x
                           000334  1473 	Sstm8_hd44780$lcd_e_tick$402 ==.
                                   1474 ;	inc/delay.h: 28: } while ( __ticks );
                                   1475 ; genIfx
      000334 5D               [ 2] 1476 	tnzw	x
      000335 27 03            [ 1] 1477 	jreq	00135$
      000337 CCr03r33         [ 2] 1478 	jp	00101$
      00033A                       1479 00135$:
                                   1480 ;	inc/delay.h: 29: __asm__("nop\n");
                                   1481 ;	genInline
      00033A 9D               [ 1] 1482 	nop
                           00033B  1483 	Sstm8_hd44780$lcd_e_tick$403 ==.
                           00033B  1484 	Sstm8_hd44780$lcd_e_tick$404 ==.
                                   1485 ;	./src/stm8_hd44780.c: 179: LCD_E_L;
                                   1486 ; genIPush
      00033B 4B 20            [ 1] 1487 	push	#0x20
                           00033D  1488 	Sstm8_hd44780$lcd_e_tick$405 ==.
                                   1489 ; genIPush
      00033D 4B 19            [ 1] 1490 	push	#0x19
                           00033F  1491 	Sstm8_hd44780$lcd_e_tick$406 ==.
      00033F 4B 50            [ 1] 1492 	push	#0x50
                           000341  1493 	Sstm8_hd44780$lcd_e_tick$407 ==.
                                   1494 ; genCall
      000341 CDr00r00         [ 4] 1495 	call	_GPIO_WriteLow
      000344 5B 03            [ 2] 1496 	addw	sp, #3
                           000346  1497 	Sstm8_hd44780$lcd_e_tick$408 ==.
                           000346  1498 	Sstm8_hd44780$lcd_e_tick$409 ==.
                                   1499 ;	inc/delay.h: 42: _delay_cycl( (unsigned short)( T_COUNT(__us) ));
                                   1500 ; genAssign
      000346 AE 00 03         [ 2] 1501 	ldw	x, #0x0003
                           000349  1502 	Sstm8_hd44780$lcd_e_tick$410 ==.
                                   1503 ;	inc/delay.h: 25: __asm__("nop\n nop\n"); 
                                   1504 ;	genInline
      000349 9D               [ 1] 1505 	nop
      00034A 9D               [ 1] 1506 	nop
                           00034B  1507 	Sstm8_hd44780$lcd_e_tick$411 ==.
                           00034B  1508 	Sstm8_hd44780$lcd_e_tick$412 ==.
                                   1509 ;	inc/delay.h: 26: do { 		// ASM: ldw X, #tick; lab$: decw X; tnzw X; jrne lab$
                                   1510 ; genAssign
                                   1511 ; genLabel
      00034B                       1512 00106$:
                           00034B  1513 	Sstm8_hd44780$lcd_e_tick$413 ==.
                                   1514 ;	inc/delay.h: 27: __ticks--;//      2c;                 1c;     2c    ; 1/2c   
                                   1515 ; genMinus
      00034B 5A               [ 2] 1516 	decw	x
                           00034C  1517 	Sstm8_hd44780$lcd_e_tick$414 ==.
                                   1518 ;	inc/delay.h: 28: } while ( __ticks );
                                   1519 ; genIfx
      00034C 5D               [ 2] 1520 	tnzw	x
      00034D 27 03            [ 1] 1521 	jreq	00136$
      00034F CCr03r4B         [ 2] 1522 	jp	00106$
      000352                       1523 00136$:
                                   1524 ;	inc/delay.h: 29: __asm__("nop\n");
                                   1525 ;	genInline
      000352 9D               [ 1] 1526 	nop
                           000353  1527 	Sstm8_hd44780$lcd_e_tick$415 ==.
                           000353  1528 	Sstm8_hd44780$lcd_e_tick$416 ==.
                                   1529 ;	./src/stm8_hd44780.c: 180: _delay_us(LCD_E_DELAY);
                                   1530 ; genLabel
      000353                       1531 00111$:
                           000353  1532 	Sstm8_hd44780$lcd_e_tick$417 ==.
                                   1533 ;	./src/stm8_hd44780.c: 181: }
                                   1534 ; genEndFunction
                           000353  1535 	Sstm8_hd44780$lcd_e_tick$418 ==.
                           000353  1536 	XG$lcd_e_tick$0$0 ==.
      000353 81               [ 4] 1537 	ret
                           000354  1538 	Sstm8_hd44780$lcd_e_tick$419 ==.
                           000354  1539 	Sstm8_hd44780$lcd_command$420 ==.
                                   1540 ;	./src/stm8_hd44780.c: 184: void lcd_command(uint8_t command){
                                   1541 ; genLabel
                                   1542 ;	-----------------------------------------
                                   1543 ;	 function lcd_command
                                   1544 ;	-----------------------------------------
                                   1545 ;	Register assignment is optimal.
                                   1546 ;	Stack space usage: 0 bytes.
      000354                       1547 _lcd_command:
                           000354  1548 	Sstm8_hd44780$lcd_command$421 ==.
                           000354  1549 	Sstm8_hd44780$lcd_command$422 ==.
                                   1550 ;	./src/stm8_hd44780.c: 185: LCD_RS_L;
                                   1551 ; genIPush
      000354 4B 80            [ 1] 1552 	push	#0x80
                           000356  1553 	Sstm8_hd44780$lcd_command$423 ==.
                                   1554 ; genIPush
      000356 4B 19            [ 1] 1555 	push	#0x19
                           000358  1556 	Sstm8_hd44780$lcd_command$424 ==.
      000358 4B 50            [ 1] 1557 	push	#0x50
                           00035A  1558 	Sstm8_hd44780$lcd_command$425 ==.
                                   1559 ; genCall
      00035A CDr00r00         [ 4] 1560 	call	_GPIO_WriteLow
      00035D 5B 03            [ 2] 1561 	addw	sp, #3
                           00035F  1562 	Sstm8_hd44780$lcd_command$426 ==.
                           00035F  1563 	Sstm8_hd44780$lcd_command$427 ==.
                                   1564 ;	inc/delay.h: 42: _delay_cycl( (unsigned short)( T_COUNT(__us) ));
                                   1565 ; genAssign
      00035F AE 00 03         [ 2] 1566 	ldw	x, #0x0003
                           000362  1567 	Sstm8_hd44780$lcd_command$428 ==.
                                   1568 ;	inc/delay.h: 25: __asm__("nop\n nop\n"); 
                                   1569 ;	genInline
      000362 9D               [ 1] 1570 	nop
      000363 9D               [ 1] 1571 	nop
                           000364  1572 	Sstm8_hd44780$lcd_command$429 ==.
                           000364  1573 	Sstm8_hd44780$lcd_command$430 ==.
                                   1574 ;	inc/delay.h: 26: do { 		// ASM: ldw X, #tick; lab$: decw X; tnzw X; jrne lab$
                                   1575 ; genAssign
                                   1576 ; genLabel
      000364                       1577 00101$:
                           000364  1578 	Sstm8_hd44780$lcd_command$431 ==.
                                   1579 ;	inc/delay.h: 27: __ticks--;//      2c;                 1c;     2c    ; 1/2c   
                                   1580 ; genMinus
      000364 5A               [ 2] 1581 	decw	x
                           000365  1582 	Sstm8_hd44780$lcd_command$432 ==.
                                   1583 ;	inc/delay.h: 28: } while ( __ticks );
                                   1584 ; genIfx
      000365 5D               [ 2] 1585 	tnzw	x
      000366 27 03            [ 1] 1586 	jreq	00119$
      000368 CCr03r64         [ 2] 1587 	jp	00101$
      00036B                       1588 00119$:
                                   1589 ;	inc/delay.h: 29: __asm__("nop\n");
                                   1590 ;	genInline
      00036B 9D               [ 1] 1591 	nop
                           00036C  1592 	Sstm8_hd44780$lcd_command$433 ==.
                           00036C  1593 	Sstm8_hd44780$lcd_command$434 ==.
                                   1594 ;	./src/stm8_hd44780.c: 187: lcd_bus_set((command >> 4) & 0b1111);
                                   1595 ; genRightShiftLiteral
      00036C 7B 03            [ 1] 1596 	ld	a, (0x03, sp)
      00036E 4E               [ 1] 1597 	swap	a
      00036F A4 0F            [ 1] 1598 	and	a, #0x0f
                                   1599 ; genAnd
      000371 A4 0F            [ 1] 1600 	and	a, #0x0f
                                   1601 ; genIPush
      000373 88               [ 1] 1602 	push	a
                           000374  1603 	Sstm8_hd44780$lcd_command$435 ==.
                                   1604 ; genCall
      000374 CDr02r38         [ 4] 1605 	call	_lcd_bus_set
      000377 84               [ 1] 1606 	pop	a
                           000378  1607 	Sstm8_hd44780$lcd_command$436 ==.
                           000378  1608 	Sstm8_hd44780$lcd_command$437 ==.
                                   1609 ;	./src/stm8_hd44780.c: 188: lcd_e_tick();
                                   1610 ; genCall
      000378 CDr03r23         [ 4] 1611 	call	_lcd_e_tick
                           00037B  1612 	Sstm8_hd44780$lcd_command$438 ==.
                                   1613 ;	./src/stm8_hd44780.c: 189: lcd_bus_set(command & 0b1111);
                                   1614 ; genAssign
      00037B 7B 03            [ 1] 1615 	ld	a, (0x03, sp)
                                   1616 ; genAnd
      00037D A4 0F            [ 1] 1617 	and	a, #0x0f
                                   1618 ; genIPush
      00037F 88               [ 1] 1619 	push	a
                           000380  1620 	Sstm8_hd44780$lcd_command$439 ==.
                                   1621 ; genCall
      000380 CDr02r38         [ 4] 1622 	call	_lcd_bus_set
      000383 84               [ 1] 1623 	pop	a
                           000384  1624 	Sstm8_hd44780$lcd_command$440 ==.
                           000384  1625 	Sstm8_hd44780$lcd_command$441 ==.
                                   1626 ;	./src/stm8_hd44780.c: 190: lcd_e_tick();
                                   1627 ; genCall
      000384 CDr03r23         [ 4] 1628 	call	_lcd_e_tick
                           000387  1629 	Sstm8_hd44780$lcd_command$442 ==.
                                   1630 ;	./src/stm8_hd44780.c: 191: lcd_busy_wait();
                                   1631 ; genCall
      000387 CCr04rC0         [ 2] 1632 	jp	_lcd_busy_wait
                                   1633 ; genLabel
      00038A                       1634 00106$:
                           00038A  1635 	Sstm8_hd44780$lcd_command$443 ==.
                                   1636 ;	./src/stm8_hd44780.c: 192: }
                                   1637 ; genEndFunction
                           00038A  1638 	Sstm8_hd44780$lcd_command$444 ==.
                           00038A  1639 	XG$lcd_command$0$0 ==.
      00038A 81               [ 4] 1640 	ret
                           00038B  1641 	Sstm8_hd44780$lcd_command$445 ==.
                           00038B  1642 	Sstm8_hd44780$lcd_data$446 ==.
                                   1643 ;	./src/stm8_hd44780.c: 195: void lcd_data(uint8_t data){
                                   1644 ; genLabel
                                   1645 ;	-----------------------------------------
                                   1646 ;	 function lcd_data
                                   1647 ;	-----------------------------------------
                                   1648 ;	Register assignment is optimal.
                                   1649 ;	Stack space usage: 0 bytes.
      00038B                       1650 _lcd_data:
                           00038B  1651 	Sstm8_hd44780$lcd_data$447 ==.
                           00038B  1652 	Sstm8_hd44780$lcd_data$448 ==.
                                   1653 ;	./src/stm8_hd44780.c: 196: LCD_RS_H;
                                   1654 ; genIPush
      00038B 4B 80            [ 1] 1655 	push	#0x80
                           00038D  1656 	Sstm8_hd44780$lcd_data$449 ==.
                                   1657 ; genIPush
      00038D 4B 19            [ 1] 1658 	push	#0x19
                           00038F  1659 	Sstm8_hd44780$lcd_data$450 ==.
      00038F 4B 50            [ 1] 1660 	push	#0x50
                           000391  1661 	Sstm8_hd44780$lcd_data$451 ==.
                                   1662 ; genCall
      000391 CDr00r00         [ 4] 1663 	call	_GPIO_WriteHigh
      000394 5B 03            [ 2] 1664 	addw	sp, #3
                           000396  1665 	Sstm8_hd44780$lcd_data$452 ==.
                           000396  1666 	Sstm8_hd44780$lcd_data$453 ==.
                                   1667 ;	inc/delay.h: 42: _delay_cycl( (unsigned short)( T_COUNT(__us) ));
                                   1668 ; genAssign
      000396 AE 00 03         [ 2] 1669 	ldw	x, #0x0003
                           000399  1670 	Sstm8_hd44780$lcd_data$454 ==.
                                   1671 ;	inc/delay.h: 25: __asm__("nop\n nop\n"); 
                                   1672 ;	genInline
      000399 9D               [ 1] 1673 	nop
      00039A 9D               [ 1] 1674 	nop
                           00039B  1675 	Sstm8_hd44780$lcd_data$455 ==.
                           00039B  1676 	Sstm8_hd44780$lcd_data$456 ==.
                                   1677 ;	inc/delay.h: 26: do { 		// ASM: ldw X, #tick; lab$: decw X; tnzw X; jrne lab$
                                   1678 ; genAssign
                                   1679 ; genLabel
      00039B                       1680 00101$:
                           00039B  1681 	Sstm8_hd44780$lcd_data$457 ==.
                                   1682 ;	inc/delay.h: 27: __ticks--;//      2c;                 1c;     2c    ; 1/2c   
                                   1683 ; genMinus
      00039B 5A               [ 2] 1684 	decw	x
                           00039C  1685 	Sstm8_hd44780$lcd_data$458 ==.
                                   1686 ;	inc/delay.h: 28: } while ( __ticks );
                                   1687 ; genIfx
      00039C 5D               [ 2] 1688 	tnzw	x
      00039D 27 03            [ 1] 1689 	jreq	00119$
      00039F CCr03r9B         [ 2] 1690 	jp	00101$
      0003A2                       1691 00119$:
                                   1692 ;	inc/delay.h: 29: __asm__("nop\n");
                                   1693 ;	genInline
      0003A2 9D               [ 1] 1694 	nop
                           0003A3  1695 	Sstm8_hd44780$lcd_data$459 ==.
                           0003A3  1696 	Sstm8_hd44780$lcd_data$460 ==.
                                   1697 ;	./src/stm8_hd44780.c: 198: lcd_bus_set((data >> 4) & 0b1111);
                                   1698 ; genRightShiftLiteral
      0003A3 7B 03            [ 1] 1699 	ld	a, (0x03, sp)
      0003A5 4E               [ 1] 1700 	swap	a
      0003A6 A4 0F            [ 1] 1701 	and	a, #0x0f
                                   1702 ; genAnd
      0003A8 A4 0F            [ 1] 1703 	and	a, #0x0f
                                   1704 ; genIPush
      0003AA 88               [ 1] 1705 	push	a
                           0003AB  1706 	Sstm8_hd44780$lcd_data$461 ==.
                                   1707 ; genCall
      0003AB CDr02r38         [ 4] 1708 	call	_lcd_bus_set
      0003AE 84               [ 1] 1709 	pop	a
                           0003AF  1710 	Sstm8_hd44780$lcd_data$462 ==.
                           0003AF  1711 	Sstm8_hd44780$lcd_data$463 ==.
                                   1712 ;	./src/stm8_hd44780.c: 199: lcd_e_tick();
                                   1713 ; genCall
      0003AF CDr03r23         [ 4] 1714 	call	_lcd_e_tick
                           0003B2  1715 	Sstm8_hd44780$lcd_data$464 ==.
                                   1716 ;	./src/stm8_hd44780.c: 200: lcd_bus_set(data & 0b1111);
                                   1717 ; genAssign
      0003B2 7B 03            [ 1] 1718 	ld	a, (0x03, sp)
                                   1719 ; genAnd
      0003B4 A4 0F            [ 1] 1720 	and	a, #0x0f
                                   1721 ; genIPush
      0003B6 88               [ 1] 1722 	push	a
                           0003B7  1723 	Sstm8_hd44780$lcd_data$465 ==.
                                   1724 ; genCall
      0003B7 CDr02r38         [ 4] 1725 	call	_lcd_bus_set
      0003BA 84               [ 1] 1726 	pop	a
                           0003BB  1727 	Sstm8_hd44780$lcd_data$466 ==.
                           0003BB  1728 	Sstm8_hd44780$lcd_data$467 ==.
                                   1729 ;	./src/stm8_hd44780.c: 201: lcd_e_tick();
                                   1730 ; genCall
      0003BB CDr03r23         [ 4] 1731 	call	_lcd_e_tick
                           0003BE  1732 	Sstm8_hd44780$lcd_data$468 ==.
                                   1733 ;	./src/stm8_hd44780.c: 202: lcd_busy_wait();
                                   1734 ; genCall
      0003BE CCr04rC0         [ 2] 1735 	jp	_lcd_busy_wait
                                   1736 ; genLabel
      0003C1                       1737 00106$:
                           0003C1  1738 	Sstm8_hd44780$lcd_data$469 ==.
                                   1739 ;	./src/stm8_hd44780.c: 203: }
                                   1740 ; genEndFunction
                           0003C1  1741 	Sstm8_hd44780$lcd_data$470 ==.
                           0003C1  1742 	XG$lcd_data$0$0 ==.
      0003C1 81               [ 4] 1743 	ret
                           0003C2  1744 	Sstm8_hd44780$lcd_data$471 ==.
                           0003C2  1745 	Sstm8_hd44780$lcd_read$472 ==.
                                   1746 ;	./src/stm8_hd44780.c: 206: uint8_t lcd_read(void){
                                   1747 ; genLabel
                                   1748 ;	-----------------------------------------
                                   1749 ;	 function lcd_read
                                   1750 ;	-----------------------------------------
                                   1751 ;	Register assignment might be sub-optimal.
                                   1752 ;	Stack space usage: 1 bytes.
      0003C2                       1753 _lcd_read:
                           0003C2  1754 	Sstm8_hd44780$lcd_read$473 ==.
      0003C2 88               [ 1] 1755 	push	a
                           0003C3  1756 	Sstm8_hd44780$lcd_read$474 ==.
                           0003C3  1757 	Sstm8_hd44780$lcd_read$475 ==.
                                   1758 ;	./src/stm8_hd44780.c: 208: LCD_RS_L;
                                   1759 ; genIPush
      0003C3 4B 80            [ 1] 1760 	push	#0x80
                           0003C5  1761 	Sstm8_hd44780$lcd_read$476 ==.
                                   1762 ; genIPush
      0003C5 4B 19            [ 1] 1763 	push	#0x19
                           0003C7  1764 	Sstm8_hd44780$lcd_read$477 ==.
      0003C7 4B 50            [ 1] 1765 	push	#0x50
                           0003C9  1766 	Sstm8_hd44780$lcd_read$478 ==.
                                   1767 ; genCall
      0003C9 CDr00r00         [ 4] 1768 	call	_GPIO_WriteLow
      0003CC 5B 03            [ 2] 1769 	addw	sp, #3
                           0003CE  1770 	Sstm8_hd44780$lcd_read$479 ==.
                           0003CE  1771 	Sstm8_hd44780$lcd_read$480 ==.
                                   1772 ;	./src/stm8_hd44780.c: 209: lcd_bus_inputs();
                                   1773 ; genCall
      0003CE CDr01rA7         [ 4] 1774 	call	_lcd_bus_inputs
                           0003D1  1775 	Sstm8_hd44780$lcd_read$481 ==.
                                   1776 ;	./src/stm8_hd44780.c: 210: LCD_RW_H;
                                   1777 ; genIPush
      0003D1 4B 40            [ 1] 1778 	push	#0x40
                           0003D3  1779 	Sstm8_hd44780$lcd_read$482 ==.
                                   1780 ; genIPush
      0003D3 4B 19            [ 1] 1781 	push	#0x19
                           0003D5  1782 	Sstm8_hd44780$lcd_read$483 ==.
      0003D5 4B 50            [ 1] 1783 	push	#0x50
                           0003D7  1784 	Sstm8_hd44780$lcd_read$484 ==.
                                   1785 ; genCall
      0003D7 CDr00r00         [ 4] 1786 	call	_GPIO_WriteHigh
      0003DA 5B 03            [ 2] 1787 	addw	sp, #3
                           0003DC  1788 	Sstm8_hd44780$lcd_read$485 ==.
                           0003DC  1789 	Sstm8_hd44780$lcd_read$486 ==.
                                   1790 ;	inc/delay.h: 42: _delay_cycl( (unsigned short)( T_COUNT(__us) ));
                                   1791 ; genAssign
      0003DC AE 00 03         [ 2] 1792 	ldw	x, #0x0003
                           0003DF  1793 	Sstm8_hd44780$lcd_read$487 ==.
                                   1794 ;	inc/delay.h: 25: __asm__("nop\n nop\n"); 
                                   1795 ;	genInline
      0003DF 9D               [ 1] 1796 	nop
      0003E0 9D               [ 1] 1797 	nop
                           0003E1  1798 	Sstm8_hd44780$lcd_read$488 ==.
                           0003E1  1799 	Sstm8_hd44780$lcd_read$489 ==.
                                   1800 ;	inc/delay.h: 26: do { 		// ASM: ldw X, #tick; lab$: decw X; tnzw X; jrne lab$
                                   1801 ; genAssign
                                   1802 ; genLabel
      0003E1                       1803 00101$:
                           0003E1  1804 	Sstm8_hd44780$lcd_read$490 ==.
                                   1805 ;	inc/delay.h: 27: __ticks--;//      2c;                 1c;     2c    ; 1/2c   
                                   1806 ; genMinus
      0003E1 5A               [ 2] 1807 	decw	x
                           0003E2  1808 	Sstm8_hd44780$lcd_read$491 ==.
                                   1809 ;	inc/delay.h: 28: } while ( __ticks );
                                   1810 ; genIfx
      0003E2 5D               [ 2] 1811 	tnzw	x
      0003E3 27 03            [ 1] 1812 	jreq	00183$
      0003E5 CCr03rE1         [ 2] 1813 	jp	00101$
      0003E8                       1814 00183$:
                                   1815 ;	inc/delay.h: 29: __asm__("nop\n");
                                   1816 ;	genInline
      0003E8 9D               [ 1] 1817 	nop
                           0003E9  1818 	Sstm8_hd44780$lcd_read$492 ==.
                           0003E9  1819 	Sstm8_hd44780$lcd_read$493 ==.
                                   1820 ;	./src/stm8_hd44780.c: 212: LCD_E_H;
                                   1821 ; genIPush
      0003E9 4B 20            [ 1] 1822 	push	#0x20
                           0003EB  1823 	Sstm8_hd44780$lcd_read$494 ==.
                                   1824 ; genIPush
      0003EB 4B 19            [ 1] 1825 	push	#0x19
                           0003ED  1826 	Sstm8_hd44780$lcd_read$495 ==.
      0003ED 4B 50            [ 1] 1827 	push	#0x50
                           0003EF  1828 	Sstm8_hd44780$lcd_read$496 ==.
                                   1829 ; genCall
      0003EF CDr00r00         [ 4] 1830 	call	_GPIO_WriteHigh
      0003F2 5B 03            [ 2] 1831 	addw	sp, #3
                           0003F4  1832 	Sstm8_hd44780$lcd_read$497 ==.
                           0003F4  1833 	Sstm8_hd44780$lcd_read$498 ==.
                                   1834 ;	inc/delay.h: 42: _delay_cycl( (unsigned short)( T_COUNT(__us) ));
                                   1835 ; genAssign
      0003F4 AE 00 03         [ 2] 1836 	ldw	x, #0x0003
                           0003F7  1837 	Sstm8_hd44780$lcd_read$499 ==.
                                   1838 ;	inc/delay.h: 25: __asm__("nop\n nop\n"); 
                                   1839 ;	genInline
      0003F7 9D               [ 1] 1840 	nop
      0003F8 9D               [ 1] 1841 	nop
                           0003F9  1842 	Sstm8_hd44780$lcd_read$500 ==.
                           0003F9  1843 	Sstm8_hd44780$lcd_read$501 ==.
                                   1844 ;	inc/delay.h: 26: do { 		// ASM: ldw X, #tick; lab$: decw X; tnzw X; jrne lab$
                                   1845 ; genAssign
                                   1846 ; genLabel
      0003F9                       1847 00106$:
                           0003F9  1848 	Sstm8_hd44780$lcd_read$502 ==.
                                   1849 ;	inc/delay.h: 27: __ticks--;//      2c;                 1c;     2c    ; 1/2c   
                                   1850 ; genMinus
      0003F9 5A               [ 2] 1851 	decw	x
                           0003FA  1852 	Sstm8_hd44780$lcd_read$503 ==.
                                   1853 ;	inc/delay.h: 28: } while ( __ticks );
                                   1854 ; genIfx
      0003FA 5D               [ 2] 1855 	tnzw	x
      0003FB 27 03            [ 1] 1856 	jreq	00184$
      0003FD CCr03rF9         [ 2] 1857 	jp	00106$
      000400                       1858 00184$:
                                   1859 ;	inc/delay.h: 29: __asm__("nop\n");
                                   1860 ;	genInline
      000400 9D               [ 1] 1861 	nop
                           000401  1862 	Sstm8_hd44780$lcd_read$504 ==.
                           000401  1863 	Sstm8_hd44780$lcd_read$505 ==.
                                   1864 ;	./src/stm8_hd44780.c: 214: tmp = lcd_bus_read()<<4;
                                   1865 ; genCall
      000401 CDr02rC0         [ 4] 1866 	call	_lcd_bus_read
                                   1867 ; genCast
                                   1868 ; genAssign
                                   1869 ; genLeftShiftLiteral
      000404 4E               [ 1] 1870 	swap	a
      000405 A4 F0            [ 1] 1871 	and	a, #0xf0
      000407 6B 01            [ 1] 1872 	ld	(0x01, sp), a
                           000409  1873 	Sstm8_hd44780$lcd_read$506 ==.
                                   1874 ;	./src/stm8_hd44780.c: 215: LCD_E_L;
                                   1875 ; genIPush
      000409 4B 20            [ 1] 1876 	push	#0x20
                           00040B  1877 	Sstm8_hd44780$lcd_read$507 ==.
                                   1878 ; genIPush
      00040B 4B 19            [ 1] 1879 	push	#0x19
                           00040D  1880 	Sstm8_hd44780$lcd_read$508 ==.
      00040D 4B 50            [ 1] 1881 	push	#0x50
                           00040F  1882 	Sstm8_hd44780$lcd_read$509 ==.
                                   1883 ; genCall
      00040F CDr00r00         [ 4] 1884 	call	_GPIO_WriteLow
      000412 5B 03            [ 2] 1885 	addw	sp, #3
                           000414  1886 	Sstm8_hd44780$lcd_read$510 ==.
                           000414  1887 	Sstm8_hd44780$lcd_read$511 ==.
                                   1888 ;	inc/delay.h: 42: _delay_cycl( (unsigned short)( T_COUNT(__us) ));
                                   1889 ; genAssign
      000414 AE 00 03         [ 2] 1890 	ldw	x, #0x0003
                           000417  1891 	Sstm8_hd44780$lcd_read$512 ==.
                                   1892 ;	inc/delay.h: 25: __asm__("nop\n nop\n"); 
                                   1893 ;	genInline
      000417 9D               [ 1] 1894 	nop
      000418 9D               [ 1] 1895 	nop
                           000419  1896 	Sstm8_hd44780$lcd_read$513 ==.
                           000419  1897 	Sstm8_hd44780$lcd_read$514 ==.
                                   1898 ;	inc/delay.h: 26: do { 		// ASM: ldw X, #tick; lab$: decw X; tnzw X; jrne lab$
                                   1899 ; genAssign
                                   1900 ; genLabel
      000419                       1901 00111$:
                           000419  1902 	Sstm8_hd44780$lcd_read$515 ==.
                                   1903 ;	inc/delay.h: 27: __ticks--;//      2c;                 1c;     2c    ; 1/2c   
                                   1904 ; genMinus
      000419 5A               [ 2] 1905 	decw	x
                           00041A  1906 	Sstm8_hd44780$lcd_read$516 ==.
                                   1907 ;	inc/delay.h: 28: } while ( __ticks );
                                   1908 ; genIfx
      00041A 5D               [ 2] 1909 	tnzw	x
      00041B 27 03            [ 1] 1910 	jreq	00185$
      00041D CCr04r19         [ 2] 1911 	jp	00111$
      000420                       1912 00185$:
                                   1913 ;	inc/delay.h: 29: __asm__("nop\n");
                                   1914 ;	genInline
      000420 9D               [ 1] 1915 	nop
                           000421  1916 	Sstm8_hd44780$lcd_read$517 ==.
                           000421  1917 	Sstm8_hd44780$lcd_read$518 ==.
                                   1918 ;	./src/stm8_hd44780.c: 217: LCD_E_H;
                                   1919 ; genIPush
      000421 4B 20            [ 1] 1920 	push	#0x20
                           000423  1921 	Sstm8_hd44780$lcd_read$519 ==.
                                   1922 ; genIPush
      000423 4B 19            [ 1] 1923 	push	#0x19
                           000425  1924 	Sstm8_hd44780$lcd_read$520 ==.
      000425 4B 50            [ 1] 1925 	push	#0x50
                           000427  1926 	Sstm8_hd44780$lcd_read$521 ==.
                                   1927 ; genCall
      000427 CDr00r00         [ 4] 1928 	call	_GPIO_WriteHigh
      00042A 5B 03            [ 2] 1929 	addw	sp, #3
                           00042C  1930 	Sstm8_hd44780$lcd_read$522 ==.
                           00042C  1931 	Sstm8_hd44780$lcd_read$523 ==.
                                   1932 ;	inc/delay.h: 42: _delay_cycl( (unsigned short)( T_COUNT(__us) ));
                                   1933 ; genAssign
      00042C AE 00 03         [ 2] 1934 	ldw	x, #0x0003
                           00042F  1935 	Sstm8_hd44780$lcd_read$524 ==.
                                   1936 ;	inc/delay.h: 25: __asm__("nop\n nop\n"); 
                                   1937 ;	genInline
      00042F 9D               [ 1] 1938 	nop
      000430 9D               [ 1] 1939 	nop
                           000431  1940 	Sstm8_hd44780$lcd_read$525 ==.
                           000431  1941 	Sstm8_hd44780$lcd_read$526 ==.
                                   1942 ;	inc/delay.h: 26: do { 		// ASM: ldw X, #tick; lab$: decw X; tnzw X; jrne lab$
                                   1943 ; genAssign
                                   1944 ; genLabel
      000431                       1945 00116$:
                           000431  1946 	Sstm8_hd44780$lcd_read$527 ==.
                                   1947 ;	inc/delay.h: 27: __ticks--;//      2c;                 1c;     2c    ; 1/2c   
                                   1948 ; genMinus
      000431 5A               [ 2] 1949 	decw	x
                           000432  1950 	Sstm8_hd44780$lcd_read$528 ==.
                                   1951 ;	inc/delay.h: 28: } while ( __ticks );
                                   1952 ; genIfx
      000432 5D               [ 2] 1953 	tnzw	x
      000433 27 03            [ 1] 1954 	jreq	00186$
      000435 CCr04r31         [ 2] 1955 	jp	00116$
      000438                       1956 00186$:
                                   1957 ;	inc/delay.h: 29: __asm__("nop\n");
                                   1958 ;	genInline
      000438 9D               [ 1] 1959 	nop
                           000439  1960 	Sstm8_hd44780$lcd_read$529 ==.
                           000439  1961 	Sstm8_hd44780$lcd_read$530 ==.
                                   1962 ;	./src/stm8_hd44780.c: 219: tmp |= lcd_bus_read();
                                   1963 ; genCall
      000439 CDr02rC0         [ 4] 1964 	call	_lcd_bus_read
                                   1965 ; genOr
      00043C 1A 01            [ 1] 1966 	or	a, (0x01, sp)
                                   1967 ; genAssign
      00043E 6B 01            [ 1] 1968 	ld	(0x01, sp), a
                           000440  1969 	Sstm8_hd44780$lcd_read$531 ==.
                                   1970 ;	./src/stm8_hd44780.c: 220: LCD_E_L;
                                   1971 ; genIPush
      000440 4B 20            [ 1] 1972 	push	#0x20
                           000442  1973 	Sstm8_hd44780$lcd_read$532 ==.
                                   1974 ; genIPush
      000442 4B 19            [ 1] 1975 	push	#0x19
                           000444  1976 	Sstm8_hd44780$lcd_read$533 ==.
      000444 4B 50            [ 1] 1977 	push	#0x50
                           000446  1978 	Sstm8_hd44780$lcd_read$534 ==.
                                   1979 ; genCall
      000446 CDr00r00         [ 4] 1980 	call	_GPIO_WriteLow
      000449 5B 03            [ 2] 1981 	addw	sp, #3
                           00044B  1982 	Sstm8_hd44780$lcd_read$535 ==.
                           00044B  1983 	Sstm8_hd44780$lcd_read$536 ==.
                                   1984 ;	inc/delay.h: 42: _delay_cycl( (unsigned short)( T_COUNT(__us) ));
                                   1985 ; genAssign
      00044B AE 00 03         [ 2] 1986 	ldw	x, #0x0003
                           00044E  1987 	Sstm8_hd44780$lcd_read$537 ==.
                                   1988 ;	inc/delay.h: 25: __asm__("nop\n nop\n"); 
                                   1989 ;	genInline
      00044E 9D               [ 1] 1990 	nop
      00044F 9D               [ 1] 1991 	nop
                           000450  1992 	Sstm8_hd44780$lcd_read$538 ==.
                           000450  1993 	Sstm8_hd44780$lcd_read$539 ==.
                                   1994 ;	inc/delay.h: 26: do { 		// ASM: ldw X, #tick; lab$: decw X; tnzw X; jrne lab$
                                   1995 ; genAssign
                                   1996 ; genLabel
      000450                       1997 00121$:
                           000450  1998 	Sstm8_hd44780$lcd_read$540 ==.
                                   1999 ;	inc/delay.h: 27: __ticks--;//      2c;                 1c;     2c    ; 1/2c   
                                   2000 ; genMinus
      000450 5A               [ 2] 2001 	decw	x
                           000451  2002 	Sstm8_hd44780$lcd_read$541 ==.
                                   2003 ;	inc/delay.h: 28: } while ( __ticks );
                                   2004 ; genIfx
      000451 5D               [ 2] 2005 	tnzw	x
      000452 27 03            [ 1] 2006 	jreq	00187$
      000454 CCr04r50         [ 2] 2007 	jp	00121$
      000457                       2008 00187$:
                                   2009 ;	inc/delay.h: 29: __asm__("nop\n");
                                   2010 ;	genInline
      000457 9D               [ 1] 2011 	nop
                           000458  2012 	Sstm8_hd44780$lcd_read$542 ==.
                           000458  2013 	Sstm8_hd44780$lcd_read$543 ==.
                                   2014 ;	./src/stm8_hd44780.c: 222: LCD_RW_L;
                                   2015 ; genIPush
      000458 4B 40            [ 1] 2016 	push	#0x40
                           00045A  2017 	Sstm8_hd44780$lcd_read$544 ==.
                                   2018 ; genIPush
      00045A 4B 19            [ 1] 2019 	push	#0x19
                           00045C  2020 	Sstm8_hd44780$lcd_read$545 ==.
      00045C 4B 50            [ 1] 2021 	push	#0x50
                           00045E  2022 	Sstm8_hd44780$lcd_read$546 ==.
                                   2023 ; genCall
      00045E CDr00r00         [ 4] 2024 	call	_GPIO_WriteLow
      000461 5B 03            [ 2] 2025 	addw	sp, #3
                           000463  2026 	Sstm8_hd44780$lcd_read$547 ==.
                           000463  2027 	Sstm8_hd44780$lcd_read$548 ==.
                                   2028 ;	./src/stm8_hd44780.c: 223: lcd_bus_outputs();
                                   2029 ; genCall
      000463 CDr01r72         [ 4] 2030 	call	_lcd_bus_outputs
                           000466  2031 	Sstm8_hd44780$lcd_read$549 ==.
                                   2032 ;	./src/stm8_hd44780.c: 224: return tmp;
                                   2033 ; genReturn
      000466 7B 01            [ 1] 2034 	ld	a, (0x01, sp)
                                   2035 ; genLabel
      000468                       2036 00126$:
                           000468  2037 	Sstm8_hd44780$lcd_read$550 ==.
                                   2038 ;	./src/stm8_hd44780.c: 225: }
                                   2039 ; genEndFunction
      000468 5B 01            [ 2] 2040 	addw	sp, #1
                           00046A  2041 	Sstm8_hd44780$lcd_read$551 ==.
                           00046A  2042 	Sstm8_hd44780$lcd_read$552 ==.
                           00046A  2043 	XG$lcd_read$0$0 ==.
      00046A 81               [ 4] 2044 	ret
                           00046B  2045 	Sstm8_hd44780$lcd_read$553 ==.
                           00046B  2046 	Sstm8_hd44780$lcd_bus_sleep$554 ==.
                                   2047 ;	./src/stm8_hd44780.c: 229: void lcd_bus_sleep(void){
                                   2048 ; genLabel
                                   2049 ;	-----------------------------------------
                                   2050 ;	 function lcd_bus_sleep
                                   2051 ;	-----------------------------------------
                                   2052 ;	Register assignment is optimal.
                                   2053 ;	Stack space usage: 0 bytes.
      00046B                       2054 _lcd_bus_sleep:
                           00046B  2055 	Sstm8_hd44780$lcd_bus_sleep$555 ==.
                           00046B  2056 	Sstm8_hd44780$lcd_bus_sleep$556 ==.
                                   2057 ;	./src/stm8_hd44780.c: 230: LCD_RS_H;
                                   2058 ; genIPush
      00046B 4B 80            [ 1] 2059 	push	#0x80
                           00046D  2060 	Sstm8_hd44780$lcd_bus_sleep$557 ==.
                                   2061 ; genIPush
      00046D 4B 19            [ 1] 2062 	push	#0x19
                           00046F  2063 	Sstm8_hd44780$lcd_bus_sleep$558 ==.
      00046F 4B 50            [ 1] 2064 	push	#0x50
                           000471  2065 	Sstm8_hd44780$lcd_bus_sleep$559 ==.
                                   2066 ; genCall
      000471 CDr00r00         [ 4] 2067 	call	_GPIO_WriteHigh
      000474 5B 03            [ 2] 2068 	addw	sp, #3
                           000476  2069 	Sstm8_hd44780$lcd_bus_sleep$560 ==.
                           000476  2070 	Sstm8_hd44780$lcd_bus_sleep$561 ==.
                                   2071 ;	./src/stm8_hd44780.c: 231: LCD_RW_H;
                                   2072 ; genIPush
      000476 4B 40            [ 1] 2073 	push	#0x40
                           000478  2074 	Sstm8_hd44780$lcd_bus_sleep$562 ==.
                                   2075 ; genIPush
      000478 4B 19            [ 1] 2076 	push	#0x19
                           00047A  2077 	Sstm8_hd44780$lcd_bus_sleep$563 ==.
      00047A 4B 50            [ 1] 2078 	push	#0x50
                           00047C  2079 	Sstm8_hd44780$lcd_bus_sleep$564 ==.
                                   2080 ; genCall
      00047C CDr00r00         [ 4] 2081 	call	_GPIO_WriteHigh
      00047F 5B 03            [ 2] 2082 	addw	sp, #3
                           000481  2083 	Sstm8_hd44780$lcd_bus_sleep$565 ==.
                           000481  2084 	Sstm8_hd44780$lcd_bus_sleep$566 ==.
                                   2085 ;	./src/stm8_hd44780.c: 232: lcd_bus_inputs();
                                   2086 ; genCall
      000481 CCr01rA7         [ 2] 2087 	jp	_lcd_bus_inputs
                                   2088 ; genLabel
      000484                       2089 00101$:
                           000484  2090 	Sstm8_hd44780$lcd_bus_sleep$567 ==.
                                   2091 ;	./src/stm8_hd44780.c: 233: }
                                   2092 ; genEndFunction
                           000484  2093 	Sstm8_hd44780$lcd_bus_sleep$568 ==.
                           000484  2094 	XG$lcd_bus_sleep$0$0 ==.
      000484 81               [ 4] 2095 	ret
                           000485  2096 	Sstm8_hd44780$lcd_bus_sleep$569 ==.
                           000485  2097 	Sstm8_hd44780$lcd_bus_wakeup$570 ==.
                                   2098 ;	./src/stm8_hd44780.c: 236: void lcd_bus_wakeup(void){
                                   2099 ; genLabel
                                   2100 ;	-----------------------------------------
                                   2101 ;	 function lcd_bus_wakeup
                                   2102 ;	-----------------------------------------
                                   2103 ;	Register assignment is optimal.
                                   2104 ;	Stack space usage: 0 bytes.
      000485                       2105 _lcd_bus_wakeup:
                           000485  2106 	Sstm8_hd44780$lcd_bus_wakeup$571 ==.
                           000485  2107 	Sstm8_hd44780$lcd_bus_wakeup$572 ==.
                                   2108 ;	./src/stm8_hd44780.c: 237: LCD_RW_L;
                                   2109 ; genIPush
      000485 4B 40            [ 1] 2110 	push	#0x40
                           000487  2111 	Sstm8_hd44780$lcd_bus_wakeup$573 ==.
                                   2112 ; genIPush
      000487 4B 19            [ 1] 2113 	push	#0x19
                           000489  2114 	Sstm8_hd44780$lcd_bus_wakeup$574 ==.
      000489 4B 50            [ 1] 2115 	push	#0x50
                           00048B  2116 	Sstm8_hd44780$lcd_bus_wakeup$575 ==.
                                   2117 ; genCall
      00048B CDr00r00         [ 4] 2118 	call	_GPIO_WriteLow
      00048E 5B 03            [ 2] 2119 	addw	sp, #3
                           000490  2120 	Sstm8_hd44780$lcd_bus_wakeup$576 ==.
                           000490  2121 	Sstm8_hd44780$lcd_bus_wakeup$577 ==.
                                   2122 ;	./src/stm8_hd44780.c: 238: LCD_D4_H;
                                   2123 ; genIPush
      000490 4B 01            [ 1] 2124 	push	#0x01
                           000492  2125 	Sstm8_hd44780$lcd_bus_wakeup$578 ==.
                                   2126 ; genIPush
      000492 4B 1E            [ 1] 2127 	push	#0x1e
                           000494  2128 	Sstm8_hd44780$lcd_bus_wakeup$579 ==.
      000494 4B 50            [ 1] 2129 	push	#0x50
                           000496  2130 	Sstm8_hd44780$lcd_bus_wakeup$580 ==.
                                   2131 ; genCall
      000496 CDr00r00         [ 4] 2132 	call	_GPIO_WriteHigh
      000499 5B 03            [ 2] 2133 	addw	sp, #3
                           00049B  2134 	Sstm8_hd44780$lcd_bus_wakeup$581 ==.
                           00049B  2135 	Sstm8_hd44780$lcd_bus_wakeup$582 ==.
                                   2136 ;	./src/stm8_hd44780.c: 239: LCD_D5_H;
                                   2137 ; genIPush
      00049B 4B 02            [ 1] 2138 	push	#0x02
                           00049D  2139 	Sstm8_hd44780$lcd_bus_wakeup$583 ==.
                                   2140 ; genIPush
      00049D 4B 1E            [ 1] 2141 	push	#0x1e
                           00049F  2142 	Sstm8_hd44780$lcd_bus_wakeup$584 ==.
      00049F 4B 50            [ 1] 2143 	push	#0x50
                           0004A1  2144 	Sstm8_hd44780$lcd_bus_wakeup$585 ==.
                                   2145 ; genCall
      0004A1 CDr00r00         [ 4] 2146 	call	_GPIO_WriteHigh
      0004A4 5B 03            [ 2] 2147 	addw	sp, #3
                           0004A6  2148 	Sstm8_hd44780$lcd_bus_wakeup$586 ==.
                           0004A6  2149 	Sstm8_hd44780$lcd_bus_wakeup$587 ==.
                                   2150 ;	./src/stm8_hd44780.c: 240: LCD_D6_H;
                                   2151 ; genIPush
      0004A6 4B 04            [ 1] 2152 	push	#0x04
                           0004A8  2153 	Sstm8_hd44780$lcd_bus_wakeup$588 ==.
                                   2154 ; genIPush
      0004A8 4B 1E            [ 1] 2155 	push	#0x1e
                           0004AA  2156 	Sstm8_hd44780$lcd_bus_wakeup$589 ==.
      0004AA 4B 50            [ 1] 2157 	push	#0x50
                           0004AC  2158 	Sstm8_hd44780$lcd_bus_wakeup$590 ==.
                                   2159 ; genCall
      0004AC CDr00r00         [ 4] 2160 	call	_GPIO_WriteHigh
      0004AF 5B 03            [ 2] 2161 	addw	sp, #3
                           0004B1  2162 	Sstm8_hd44780$lcd_bus_wakeup$591 ==.
                           0004B1  2163 	Sstm8_hd44780$lcd_bus_wakeup$592 ==.
                                   2164 ;	./src/stm8_hd44780.c: 241: LCD_D7_H;
                                   2165 ; genIPush
      0004B1 4B 08            [ 1] 2166 	push	#0x08
                           0004B3  2167 	Sstm8_hd44780$lcd_bus_wakeup$593 ==.
                                   2168 ; genIPush
      0004B3 4B 1E            [ 1] 2169 	push	#0x1e
                           0004B5  2170 	Sstm8_hd44780$lcd_bus_wakeup$594 ==.
      0004B5 4B 50            [ 1] 2171 	push	#0x50
                           0004B7  2172 	Sstm8_hd44780$lcd_bus_wakeup$595 ==.
                                   2173 ; genCall
      0004B7 CDr00r00         [ 4] 2174 	call	_GPIO_WriteHigh
      0004BA 5B 03            [ 2] 2175 	addw	sp, #3
                           0004BC  2176 	Sstm8_hd44780$lcd_bus_wakeup$596 ==.
                           0004BC  2177 	Sstm8_hd44780$lcd_bus_wakeup$597 ==.
                                   2178 ;	./src/stm8_hd44780.c: 242: lcd_bus_outputs();
                                   2179 ; genCall
      0004BC CCr01r72         [ 2] 2180 	jp	_lcd_bus_outputs
                                   2181 ; genLabel
      0004BF                       2182 00101$:
                           0004BF  2183 	Sstm8_hd44780$lcd_bus_wakeup$598 ==.
                                   2184 ;	./src/stm8_hd44780.c: 243: }	
                                   2185 ; genEndFunction
                           0004BF  2186 	Sstm8_hd44780$lcd_bus_wakeup$599 ==.
                           0004BF  2187 	XG$lcd_bus_wakeup$0$0 ==.
      0004BF 81               [ 4] 2188 	ret
                           0004C0  2189 	Sstm8_hd44780$lcd_bus_wakeup$600 ==.
                           0004C0  2190 	Sstm8_hd44780$lcd_busy_wait$601 ==.
                                   2191 ;	./src/stm8_hd44780.c: 246: uint8_t lcd_busy_wait(void){
                                   2192 ; genLabel
                                   2193 ;	-----------------------------------------
                                   2194 ;	 function lcd_busy_wait
                                   2195 ;	-----------------------------------------
                                   2196 ;	Register assignment is optimal.
                                   2197 ;	Stack space usage: 0 bytes.
      0004C0                       2198 _lcd_busy_wait:
                           0004C0  2199 	Sstm8_hd44780$lcd_busy_wait$602 ==.
                           0004C0  2200 	Sstm8_hd44780$lcd_busy_wait$603 ==.
                                   2201 ;	./src/stm8_hd44780.c: 247: uint16_t timeout=LCD_BUSY_TIMEOUT;
                                   2202 ; genAssign
      0004C0 AE 01 F4         [ 2] 2203 	ldw	x, #0x01f4
                           0004C3  2204 	Sstm8_hd44780$lcd_busy_wait$604 ==.
                                   2205 ;	./src/stm8_hd44780.c: 248: while(timeout && lcd_busy()){
                                   2206 ; genAssign
                                   2207 ; genLabel
      0004C3                       2208 00102$:
                                   2209 ; genIfx
      0004C3 5D               [ 2] 2210 	tnzw	x
      0004C4 26 03            [ 1] 2211 	jrne	00131$
      0004C6 CCr04rD8         [ 2] 2212 	jp	00114$
      0004C9                       2213 00131$:
                                   2214 ; genCall
      0004C9 89               [ 2] 2215 	pushw	x
                           0004CA  2216 	Sstm8_hd44780$lcd_busy_wait$605 ==.
      0004CA CDr03rC2         [ 4] 2217 	call	_lcd_read
      0004CD 85               [ 2] 2218 	popw	x
                           0004CE  2219 	Sstm8_hd44780$lcd_busy_wait$606 ==.
                                   2220 ; genAnd
      0004CE 4D               [ 1] 2221 	tnz	a
      0004CF 2B 03            [ 1] 2222 	jrmi	00132$
      0004D1 CCr04rD8         [ 2] 2223 	jp	00114$
      0004D4                       2224 00132$:
                                   2225 ; skipping generated iCode
                           0004D4  2226 	Sstm8_hd44780$lcd_busy_wait$607 ==.
                           0004D4  2227 	Sstm8_hd44780$lcd_busy_wait$608 ==.
                                   2228 ;	./src/stm8_hd44780.c: 249: timeout--;
                                   2229 ; genMinus
      0004D4 5A               [ 2] 2230 	decw	x
                           0004D5  2231 	Sstm8_hd44780$lcd_busy_wait$609 ==.
                                   2232 ; genGoto
      0004D5 CCr04rC3         [ 2] 2233 	jp	00102$
                                   2234 ; genLabel
      0004D8                       2235 00114$:
                                   2236 ; genAssign
                           0004D8  2237 	Sstm8_hd44780$lcd_busy_wait$610 ==.
                                   2238 ;	./src/stm8_hd44780.c: 251: if(timeout==0){return 1;} // error, busy still ==1
                                   2239 ; genIfx
      0004D8 5D               [ 2] 2240 	tnzw	x
      0004D9 27 03            [ 1] 2241 	jreq	00133$
      0004DB CCr04rE3         [ 2] 2242 	jp	00106$
      0004DE                       2243 00133$:
                           0004DE  2244 	Sstm8_hd44780$lcd_busy_wait$611 ==.
                                   2245 ; genReturn
      0004DE A6 01            [ 1] 2246 	ld	a, #0x01
      0004E0 CCr04rE4         [ 2] 2247 	jp	00108$
                           0004E3  2248 	Sstm8_hd44780$lcd_busy_wait$612 ==.
                                   2249 ; genLabel
      0004E3                       2250 00106$:
                           0004E3  2251 	Sstm8_hd44780$lcd_busy_wait$613 ==.
                           0004E3  2252 	Sstm8_hd44780$lcd_busy_wait$614 ==.
                                   2253 ;	./src/stm8_hd44780.c: 252: else{return 0;}
                                   2254 ; genReturn
      0004E3 4F               [ 1] 2255 	clr	a
                           0004E4  2256 	Sstm8_hd44780$lcd_busy_wait$615 ==.
                                   2257 ; genLabel
      0004E4                       2258 00108$:
                           0004E4  2259 	Sstm8_hd44780$lcd_busy_wait$616 ==.
                                   2260 ;	./src/stm8_hd44780.c: 253: }
                                   2261 ; genEndFunction
                           0004E4  2262 	Sstm8_hd44780$lcd_busy_wait$617 ==.
                           0004E4  2263 	XG$lcd_busy_wait$0$0 ==.
      0004E4 81               [ 4] 2264 	ret
                           0004E5  2265 	Sstm8_hd44780$lcd_busy_wait$618 ==.
                                   2266 	.area CODE
                                   2267 	.area CONST
                                   2268 	.area INITIALIZER
                                   2269 	.area CABS (ABS)
                                   2270 
                                   2271 	.area .debug_line (NOLOAD)
      000000 00 00 05 77           2272 	.dw	0,Ldebug_line_end-Ldebug_line_start
      000004                       2273 Ldebug_line_start:
      000004 00 02                 2274 	.dw	2
      000006 00 00 00 84           2275 	.dw	0,Ldebug_line_stmt-6-Ldebug_line_start
      00000A 01                    2276 	.db	1
      00000B 01                    2277 	.db	1
      00000C FB                    2278 	.db	-5
      00000D 0F                    2279 	.db	15
      00000E 0A                    2280 	.db	10
      00000F 00                    2281 	.db	0
      000010 01                    2282 	.db	1
      000011 01                    2283 	.db	1
      000012 01                    2284 	.db	1
      000013 01                    2285 	.db	1
      000014 00                    2286 	.db	0
      000015 00                    2287 	.db	0
      000016 00                    2288 	.db	0
      000017 01                    2289 	.db	1
      000018 43 3A 5C 50 72 6F 67  2290 	.ascii "C:\Program Files\SDCC\bin\..\include\stm8"
             72 61 6D 20 46 69 6C
             65 73 5C 53 44 43 43
             08 69 6E 5C 2E 2E 5C
             69 6E 63 6C 75 64 65
             5C 73 74 6D 38
      000040 00                    2291 	.db	0
      000041 43 3A 5C 50 72 6F 67  2292 	.ascii "C:\Program Files\SDCC\bin\..\include"
             72 61 6D 20 46 69 6C
             65 73 5C 53 44 43 43
             08 69 6E 5C 2E 2E 5C
             69 6E 63 6C 75 64 65
      000064 00                    2293 	.db	0
      000065 00                    2294 	.db	0
      000066 69 6E 63 2F 64 65 6C  2295 	.ascii "inc/delay.h"
             61 79 2E 68
      000071 00                    2296 	.db	0
      000072 00                    2297 	.uleb128	0
      000073 00                    2298 	.uleb128	0
      000074 00                    2299 	.uleb128	0
      000075 2E 2F 73 72 63 2F 73  2300 	.ascii "./src/stm8_hd44780.c"
             74 6D 38 5F 68 64 34
             34 37 38 30 2E 63
      000089 00                    2301 	.db	0
      00008A 00                    2302 	.uleb128	0
      00008B 00                    2303 	.uleb128	0
      00008C 00                    2304 	.uleb128	0
      00008D 00                    2305 	.db	0
      00008E                       2306 Ldebug_line_stmt:
      00008E 00                    2307 	.db	0
      00008F 05                    2308 	.uleb128	5
      000090 02                    2309 	.db	2
      000091 00 00r00r00           2310 	.dw	0,(Sstm8_hd44780$_delay_cycl$0)
      000095 03                    2311 	.db	3
      000096 0D                    2312 	.sleb128	13
      000097 01                    2313 	.db	1
      000098 09                    2314 	.db	9
      000099 00 00                 2315 	.dw	Sstm8_hd44780$_delay_cycl$2-Sstm8_hd44780$_delay_cycl$0
      00009B 03                    2316 	.db	3
      00009C 0B                    2317 	.sleb128	11
      00009D 01                    2318 	.db	1
      00009E 09                    2319 	.db	9
      00009F 00 02                 2320 	.dw	Sstm8_hd44780$_delay_cycl$3-Sstm8_hd44780$_delay_cycl$2
      0000A1 03                    2321 	.db	3
      0000A2 01                    2322 	.sleb128	1
      0000A3 01                    2323 	.db	1
      0000A4 09                    2324 	.db	9
      0000A5 00 02                 2325 	.dw	Sstm8_hd44780$_delay_cycl$5-Sstm8_hd44780$_delay_cycl$3
      0000A7 03                    2326 	.db	3
      0000A8 01                    2327 	.sleb128	1
      0000A9 01                    2328 	.db	1
      0000AA 09                    2329 	.db	9
      0000AB 00 01                 2330 	.dw	Sstm8_hd44780$_delay_cycl$7-Sstm8_hd44780$_delay_cycl$5
      0000AD 03                    2331 	.db	3
      0000AE 01                    2332 	.sleb128	1
      0000AF 01                    2333 	.db	1
      0000B0 09                    2334 	.db	9
      0000B1 00 06                 2335 	.dw	Sstm8_hd44780$_delay_cycl$8-Sstm8_hd44780$_delay_cycl$7
      0000B3 03                    2336 	.db	3
      0000B4 01                    2337 	.sleb128	1
      0000B5 01                    2338 	.db	1
      0000B6 09                    2339 	.db	9
      0000B7 00 01                 2340 	.dw	Sstm8_hd44780$_delay_cycl$9-Sstm8_hd44780$_delay_cycl$8
      0000B9 03                    2341 	.db	3
      0000BA 0A                    2342 	.sleb128	10
      0000BB 01                    2343 	.db	1
      0000BC 09                    2344 	.db	9
      0000BD 00 01                 2345 	.dw	1+Sstm8_hd44780$_delay_cycl$10-Sstm8_hd44780$_delay_cycl$9
      0000BF 00                    2346 	.db	0
      0000C0 01                    2347 	.uleb128	1
      0000C1 01                    2348 	.db	1
      0000C2 00                    2349 	.db	0
      0000C3 05                    2350 	.uleb128	5
      0000C4 02                    2351 	.db	2
      0000C5 00 00r00r0D           2352 	.dw	0,(Sstm8_hd44780$_delay_us$12)
      0000C9 03                    2353 	.db	3
      0000CA 28                    2354 	.sleb128	40
      0000CB 01                    2355 	.db	1
      0000CC 09                    2356 	.db	9
      0000CD 00 2F                 2357 	.dw	Sstm8_hd44780$_delay_us$35-Sstm8_hd44780$_delay_us$12
      0000CF 03                    2358 	.db	3
      0000D0 71                    2359 	.sleb128	-15
      0000D1 01                    2360 	.db	1
      0000D2 09                    2361 	.db	9
      0000D3 00 08                 2362 	.dw	Sstm8_hd44780$_delay_us$39-Sstm8_hd44780$_delay_us$35
      0000D5 03                    2363 	.db	3
      0000D6 10                    2364 	.sleb128	16
      0000D7 01                    2365 	.db	1
      0000D8 09                    2366 	.db	9
      0000D9 00 00                 2367 	.dw	Sstm8_hd44780$_delay_us$40-Sstm8_hd44780$_delay_us$39
      0000DB 03                    2368 	.db	3
      0000DC 01                    2369 	.sleb128	1
      0000DD 01                    2370 	.db	1
      0000DE 09                    2371 	.db	9
      0000DF 00 01                 2372 	.dw	1+Sstm8_hd44780$_delay_us$41-Sstm8_hd44780$_delay_us$40
      0000E1 00                    2373 	.db	0
      0000E2 01                    2374 	.uleb128	1
      0000E3 01                    2375 	.db	1
      0000E4 04                    2376 	.db	4
      0000E5 02                    2377 	.uleb128	2
      0000E6 00                    2378 	.db	0
      0000E7 05                    2379 	.uleb128	5
      0000E8 02                    2380 	.db	2
      0000E9 00 00r00r45           2381 	.dw	0,(Sstm8_hd44780$lcd_store_symbol$43)
      0000ED 03                    2382 	.db	3
      0000EE 0C                    2383 	.sleb128	12
      0000EF 01                    2384 	.db	1
      0000F0 09                    2385 	.db	9
      0000F1 00 01                 2386 	.dw	Sstm8_hd44780$lcd_store_symbol$46-Sstm8_hd44780$lcd_store_symbol$43
      0000F3 03                    2387 	.db	3
      0000F4 02                    2388 	.sleb128	2
      0000F5 01                    2389 	.db	1
      0000F6 09                    2390 	.db	9
      0000F7 00 0C                 2391 	.dw	Sstm8_hd44780$lcd_store_symbol$47-Sstm8_hd44780$lcd_store_symbol$46
      0000F9 03                    2392 	.db	3
      0000FA 01                    2393 	.sleb128	1
      0000FB 01                    2394 	.db	1
      0000FC 09                    2395 	.db	9
      0000FD 00 09                 2396 	.dw	Sstm8_hd44780$lcd_store_symbol$50-Sstm8_hd44780$lcd_store_symbol$47
      0000FF 03                    2397 	.db	3
      000100 01                    2398 	.sleb128	1
      000101 01                    2399 	.db	1
      000102 09                    2400 	.db	9
      000103 00 02                 2401 	.dw	Sstm8_hd44780$lcd_store_symbol$52-Sstm8_hd44780$lcd_store_symbol$50
      000105 03                    2402 	.db	3
      000106 01                    2403 	.sleb128	1
      000107 01                    2404 	.db	1
      000108 09                    2405 	.db	9
      000109 00 0D                 2406 	.dw	Sstm8_hd44780$lcd_store_symbol$56-Sstm8_hd44780$lcd_store_symbol$52
      00010B 03                    2407 	.db	3
      00010C 7F                    2408 	.sleb128	-1
      00010D 01                    2409 	.db	1
      00010E 09                    2410 	.db	9
      00010F 00 0B                 2411 	.dw	Sstm8_hd44780$lcd_store_symbol$57-Sstm8_hd44780$lcd_store_symbol$56
      000111 03                    2412 	.db	3
      000112 03                    2413 	.sleb128	3
      000113 01                    2414 	.db	1
      000114 09                    2415 	.db	9
      000115 00 06                 2416 	.dw	Sstm8_hd44780$lcd_store_symbol$60-Sstm8_hd44780$lcd_store_symbol$57
      000117 03                    2417 	.db	3
      000118 01                    2418 	.sleb128	1
      000119 01                    2419 	.db	1
      00011A 09                    2420 	.db	9
      00011B 00 02                 2421 	.dw	1+Sstm8_hd44780$lcd_store_symbol$62-Sstm8_hd44780$lcd_store_symbol$60
      00011D 00                    2422 	.db	0
      00011E 01                    2423 	.uleb128	1
      00011F 01                    2424 	.db	1
      000120 04                    2425 	.db	4
      000121 02                    2426 	.uleb128	2
      000122 00                    2427 	.db	0
      000123 05                    2428 	.uleb128	5
      000124 02                    2429 	.db	2
      000125 00 00r00r7D           2430 	.dw	0,(Sstm8_hd44780$lcd_puts$64)
      000129 03                    2431 	.db	3
      00012A 18                    2432 	.sleb128	24
      00012B 01                    2433 	.db	1
      00012C 09                    2434 	.db	9
      00012D 00 00                 2435 	.dw	Sstm8_hd44780$lcd_puts$66-Sstm8_hd44780$lcd_puts$64
      00012F 03                    2436 	.db	3
      000130 01                    2437 	.sleb128	1
      000131 01                    2438 	.db	1
      000132 09                    2439 	.db	9
      000133 00 09                 2440 	.dw	Sstm8_hd44780$lcd_puts$68-Sstm8_hd44780$lcd_puts$66
      000135 03                    2441 	.db	3
      000136 01                    2442 	.sleb128	1
      000137 01                    2443 	.db	1
      000138 09                    2444 	.db	9
      000139 00 07                 2445 	.dw	Sstm8_hd44780$lcd_puts$73-Sstm8_hd44780$lcd_puts$68
      00013B 03                    2446 	.db	3
      00013C 01                    2447 	.sleb128	1
      00013D 01                    2448 	.db	1
      00013E 09                    2449 	.db	9
      00013F 00 04                 2450 	.dw	Sstm8_hd44780$lcd_puts$75-Sstm8_hd44780$lcd_puts$73
      000141 03                    2451 	.db	3
      000142 02                    2452 	.sleb128	2
      000143 01                    2453 	.db	1
      000144 09                    2454 	.db	9
      000145 00 01                 2455 	.dw	1+Sstm8_hd44780$lcd_puts$76-Sstm8_hd44780$lcd_puts$75
      000147 00                    2456 	.db	0
      000148 01                    2457 	.uleb128	1
      000149 01                    2458 	.db	1
      00014A 04                    2459 	.db	4
      00014B 02                    2460 	.uleb128	2
      00014C 00                    2461 	.db	0
      00014D 05                    2462 	.uleb128	5
      00014E 02                    2463 	.db	2
      00014F 00 00r00r92           2464 	.dw	0,(Sstm8_hd44780$lcd_init$78)
      000153 03                    2465 	.db	3
      000154 1F                    2466 	.sleb128	31
      000155 01                    2467 	.db	1
      000156 09                    2468 	.db	9
      000157 00 00                 2469 	.dw	Sstm8_hd44780$lcd_init$80-Sstm8_hd44780$lcd_init$78
      000159 03                    2470 	.db	3
      00015A 01                    2471 	.sleb128	1
      00015B 01                    2472 	.db	1
      00015C 09                    2473 	.db	9
      00015D 00 03                 2474 	.dw	Sstm8_hd44780$lcd_init$81-Sstm8_hd44780$lcd_init$80
      00015F 03                    2475 	.db	3
      000160 02                    2476 	.sleb128	2
      000161 01                    2477 	.db	1
      000162 04                    2478 	.db	4
      000163 01                    2479 	.uleb128	1
      000164 09                    2480 	.db	9
      000165 00 08                 2481 	.dw	Sstm8_hd44780$lcd_init$85-Sstm8_hd44780$lcd_init$81
      000167 03                    2482 	.db	3
      000168 77                    2483 	.sleb128	-9
      000169 01                    2484 	.db	1
      00016A 04                    2485 	.db	4
      00016B 02                    2486 	.uleb128	2
      00016C 09                    2487 	.db	9
      00016D 00 08                 2488 	.dw	Sstm8_hd44780$lcd_init$89-Sstm8_hd44780$lcd_init$85
      00016F 03                    2489 	.db	3
      000170 0C                    2490 	.sleb128	12
      000171 01                    2491 	.db	1
      000172 09                    2492 	.db	9
      000173 00 06                 2493 	.dw	Sstm8_hd44780$lcd_init$92-Sstm8_hd44780$lcd_init$89
      000175 03                    2494 	.db	3
      000176 01                    2495 	.sleb128	1
      000177 01                    2496 	.db	1
      000178 04                    2497 	.db	4
      000179 01                    2498 	.uleb128	1
      00017A 09                    2499 	.db	9
      00017B 00 08                 2500 	.dw	Sstm8_hd44780$lcd_init$96-Sstm8_hd44780$lcd_init$92
      00017D 03                    2501 	.db	3
      00017E 73                    2502 	.sleb128	-13
      00017F 01                    2503 	.db	1
      000180 04                    2504 	.db	4
      000181 02                    2505 	.uleb128	2
      000182 09                    2506 	.db	9
      000183 00 08                 2507 	.dw	Sstm8_hd44780$lcd_init$100-Sstm8_hd44780$lcd_init$96
      000185 03                    2508 	.db	3
      000186 10                    2509 	.sleb128	16
      000187 01                    2510 	.db	1
      000188 09                    2511 	.db	9
      000189 00 06                 2512 	.dw	Sstm8_hd44780$lcd_init$103-Sstm8_hd44780$lcd_init$100
      00018B 03                    2513 	.db	3
      00018C 01                    2514 	.sleb128	1
      00018D 01                    2515 	.db	1
      00018E 04                    2516 	.db	4
      00018F 01                    2517 	.uleb128	1
      000190 09                    2518 	.db	9
      000191 00 08                 2519 	.dw	Sstm8_hd44780$lcd_init$107-Sstm8_hd44780$lcd_init$103
      000193 03                    2520 	.db	3
      000194 6F                    2521 	.sleb128	-17
      000195 01                    2522 	.db	1
      000196 04                    2523 	.db	4
      000197 02                    2524 	.uleb128	2
      000198 09                    2525 	.db	9
      000199 00 08                 2526 	.dw	Sstm8_hd44780$lcd_init$111-Sstm8_hd44780$lcd_init$107
      00019B 03                    2527 	.db	3
      00019C 14                    2528 	.sleb128	20
      00019D 01                    2529 	.db	1
      00019E 09                    2530 	.db	9
      00019F 00 06                 2531 	.dw	Sstm8_hd44780$lcd_init$114-Sstm8_hd44780$lcd_init$111
      0001A1 03                    2532 	.db	3
      0001A2 01                    2533 	.sleb128	1
      0001A3 01                    2534 	.db	1
      0001A4 09                    2535 	.db	9
      0001A5 00 03                 2536 	.dw	Sstm8_hd44780$lcd_init$115-Sstm8_hd44780$lcd_init$114
      0001A7 03                    2537 	.db	3
      0001A8 01                    2538 	.sleb128	1
      0001A9 01                    2539 	.db	1
      0001AA 09                    2540 	.db	9
      0001AB 00 06                 2541 	.dw	Sstm8_hd44780$lcd_init$118-Sstm8_hd44780$lcd_init$115
      0001AD 03                    2542 	.db	3
      0001AE 01                    2543 	.sleb128	1
      0001AF 01                    2544 	.db	1
      0001B0 04                    2545 	.db	4
      0001B1 01                    2546 	.uleb128	1
      0001B2 09                    2547 	.db	9
      0001B3 00 08                 2548 	.dw	Sstm8_hd44780$lcd_init$122-Sstm8_hd44780$lcd_init$118
      0001B5 03                    2549 	.db	3
      0001B6 69                    2550 	.sleb128	-23
      0001B7 01                    2551 	.db	1
      0001B8 04                    2552 	.db	4
      0001B9 02                    2553 	.uleb128	2
      0001BA 09                    2554 	.db	9
      0001BB 00 08                 2555 	.dw	Sstm8_hd44780$lcd_init$126-Sstm8_hd44780$lcd_init$122
      0001BD 03                    2556 	.db	3
      0001BE 1D                    2557 	.sleb128	29
      0001BF 01                    2558 	.db	1
      0001C0 09                    2559 	.db	9
      0001C1 00 06                 2560 	.dw	Sstm8_hd44780$lcd_init$129-Sstm8_hd44780$lcd_init$126
      0001C3 03                    2561 	.db	3
      0001C4 02                    2562 	.sleb128	2
      0001C5 01                    2563 	.db	1
      0001C6 09                    2564 	.db	9
      0001C7 00 06                 2565 	.dw	Sstm8_hd44780$lcd_init$132-Sstm8_hd44780$lcd_init$129
      0001C9 03                    2566 	.db	3
      0001CA 01                    2567 	.sleb128	1
      0001CB 01                    2568 	.db	1
      0001CC 09                    2569 	.db	9
      0001CD 00 06                 2570 	.dw	Sstm8_hd44780$lcd_init$135-Sstm8_hd44780$lcd_init$132
      0001CF 03                    2571 	.db	3
      0001D0 01                    2572 	.sleb128	1
      0001D1 01                    2573 	.db	1
      0001D2 09                    2574 	.db	9
      0001D3 00 06                 2575 	.dw	Sstm8_hd44780$lcd_init$138-Sstm8_hd44780$lcd_init$135
      0001D5 03                    2576 	.db	3
      0001D6 01                    2577 	.sleb128	1
      0001D7 01                    2578 	.db	1
      0001D8 09                    2579 	.db	9
      0001D9 00 06                 2580 	.dw	Sstm8_hd44780$lcd_init$141-Sstm8_hd44780$lcd_init$138
      0001DB 03                    2581 	.db	3
      0001DC 01                    2582 	.sleb128	1
      0001DD 01                    2583 	.db	1
      0001DE 09                    2584 	.db	9
      0001DF 00 06                 2585 	.dw	Sstm8_hd44780$lcd_init$144-Sstm8_hd44780$lcd_init$141
      0001E1 03                    2586 	.db	3
      0001E2 01                    2587 	.sleb128	1
      0001E3 01                    2588 	.db	1
      0001E4 09                    2589 	.db	9
      0001E5 00 01                 2590 	.dw	1+Sstm8_hd44780$lcd_init$145-Sstm8_hd44780$lcd_init$144
      0001E7 00                    2591 	.db	0
      0001E8 01                    2592 	.uleb128	1
      0001E9 01                    2593 	.db	1
      0001EA 04                    2594 	.db	4
      0001EB 02                    2595 	.uleb128	2
      0001EC 00                    2596 	.db	0
      0001ED 05                    2597 	.uleb128	5
      0001EE 02                    2598 	.db	2
      0001EF 00 00r01r15           2599 	.dw	0,(Sstm8_hd44780$lcd_gotoxy$147)
      0001F3 03                    2600 	.db	3
      0001F4 3F                    2601 	.sleb128	63
      0001F5 01                    2602 	.db	1
      0001F6 09                    2603 	.db	9
      0001F7 00 00                 2604 	.dw	Sstm8_hd44780$lcd_gotoxy$149-Sstm8_hd44780$lcd_gotoxy$147
      0001F9 03                    2605 	.db	3
      0001FA 01                    2606 	.sleb128	1
      0001FB 01                    2607 	.db	1
      0001FC 09                    2608 	.db	9
      0001FD 00 01                 2609 	.dw	Sstm8_hd44780$lcd_gotoxy$150-Sstm8_hd44780$lcd_gotoxy$149
      0001FF 03                    2610 	.db	3
      000200 0C                    2611 	.sleb128	12
      000201 01                    2612 	.db	1
      000202 09                    2613 	.db	9
      000203 00 0D                 2614 	.dw	Sstm8_hd44780$lcd_gotoxy$153-Sstm8_hd44780$lcd_gotoxy$150
      000205 03                    2615 	.db	3
      000206 01                    2616 	.sleb128	1
      000207 01                    2617 	.db	1
      000208 09                    2618 	.db	9
      000209 00 0B                 2619 	.dw	Sstm8_hd44780$lcd_gotoxy$156-Sstm8_hd44780$lcd_gotoxy$153
      00020B 03                    2620 	.db	3
      00020C 01                    2621 	.sleb128	1
      00020D 01                    2622 	.db	1
      00020E 09                    2623 	.db	9
      00020F 00 0E                 2624 	.dw	Sstm8_hd44780$lcd_gotoxy$160-Sstm8_hd44780$lcd_gotoxy$156
      000211 03                    2625 	.db	3
      000212 01                    2626 	.sleb128	1
      000213 01                    2627 	.db	1
      000214 09                    2628 	.db	9
      000215 00 03                 2629 	.dw	Sstm8_hd44780$lcd_gotoxy$161-Sstm8_hd44780$lcd_gotoxy$160
      000217 03                    2630 	.db	3
      000218 07                    2631 	.sleb128	7
      000219 01                    2632 	.db	1
      00021A 09                    2633 	.db	9
      00021B 00 07                 2634 	.dw	Sstm8_hd44780$lcd_gotoxy$164-Sstm8_hd44780$lcd_gotoxy$161
      00021D 03                    2635 	.db	3
      00021E 01                    2636 	.sleb128	1
      00021F 01                    2637 	.db	1
      000220 09                    2638 	.db	9
      000221 00 01                 2639 	.dw	1+Sstm8_hd44780$lcd_gotoxy$165-Sstm8_hd44780$lcd_gotoxy$164
      000223 00                    2640 	.db	0
      000224 01                    2641 	.uleb128	1
      000225 01                    2642 	.db	1
      000226 04                    2643 	.db	4
      000227 02                    2644 	.uleb128	2
      000228 00                    2645 	.db	0
      000229 05                    2646 	.uleb128	5
      00022A 02                    2647 	.db	2
      00022B 00 00r01r47           2648 	.dw	0,(Sstm8_hd44780$lcd_init_hw$167)
      00022F 03                    2649 	.db	3
      000230 DA 00                 2650 	.sleb128	90
      000232 01                    2651 	.db	1
      000233 09                    2652 	.db	9
      000234 00 00                 2653 	.dw	Sstm8_hd44780$lcd_init_hw$169-Sstm8_hd44780$lcd_init_hw$167
      000236 03                    2654 	.db	3
      000237 13                    2655 	.sleb128	19
      000238 01                    2656 	.db	1
      000239 09                    2657 	.db	9
      00023A 00 0D                 2658 	.dw	Sstm8_hd44780$lcd_init_hw$175-Sstm8_hd44780$lcd_init_hw$169
      00023C 03                    2659 	.db	3
      00023D 01                    2660 	.sleb128	1
      00023E 01                    2661 	.db	1
      00023F 09                    2662 	.db	9
      000240 00 0D                 2663 	.dw	Sstm8_hd44780$lcd_init_hw$181-Sstm8_hd44780$lcd_init_hw$175
      000242 03                    2664 	.db	3
      000243 01                    2665 	.sleb128	1
      000244 01                    2666 	.db	1
      000245 09                    2667 	.db	9
      000246 00 0D                 2668 	.dw	Sstm8_hd44780$lcd_init_hw$187-Sstm8_hd44780$lcd_init_hw$181
      000248 03                    2669 	.db	3
      000249 03                    2670 	.sleb128	3
      00024A 01                    2671 	.db	1
      00024B 09                    2672 	.db	9
      00024C 00 03                 2673 	.dw	Sstm8_hd44780$lcd_init_hw$188-Sstm8_hd44780$lcd_init_hw$187
      00024E 03                    2674 	.db	3
      00024F 01                    2675 	.sleb128	1
      000250 01                    2676 	.db	1
      000251 09                    2677 	.db	9
      000252 00 01                 2678 	.dw	1+Sstm8_hd44780$lcd_init_hw$189-Sstm8_hd44780$lcd_init_hw$188
      000254 00                    2679 	.db	0
      000255 01                    2680 	.uleb128	1
      000256 01                    2681 	.db	1
      000257 04                    2682 	.db	4
      000258 02                    2683 	.uleb128	2
      000259 00                    2684 	.db	0
      00025A 05                    2685 	.uleb128	5
      00025B 02                    2686 	.db	2
      00025C 00 00r01r72           2687 	.dw	0,(Sstm8_hd44780$lcd_bus_outputs$191)
      000260 03                    2688 	.db	3
      000261 F6 00                 2689 	.sleb128	118
      000263 01                    2690 	.db	1
      000264 09                    2691 	.db	9
      000265 00 00                 2692 	.dw	Sstm8_hd44780$lcd_bus_outputs$193-Sstm8_hd44780$lcd_bus_outputs$191
      000267 03                    2693 	.db	3
      000268 04                    2694 	.sleb128	4
      000269 01                    2695 	.db	1
      00026A 09                    2696 	.db	9
      00026B 00 0D                 2697 	.dw	Sstm8_hd44780$lcd_bus_outputs$199-Sstm8_hd44780$lcd_bus_outputs$193
      00026D 03                    2698 	.db	3
      00026E 01                    2699 	.sleb128	1
      00026F 01                    2700 	.db	1
      000270 09                    2701 	.db	9
      000271 00 0D                 2702 	.dw	Sstm8_hd44780$lcd_bus_outputs$205-Sstm8_hd44780$lcd_bus_outputs$199
      000273 03                    2703 	.db	3
      000274 01                    2704 	.sleb128	1
      000275 01                    2705 	.db	1
      000276 09                    2706 	.db	9
      000277 00 0D                 2707 	.dw	Sstm8_hd44780$lcd_bus_outputs$211-Sstm8_hd44780$lcd_bus_outputs$205
      000279 03                    2708 	.db	3
      00027A 01                    2709 	.sleb128	1
      00027B 01                    2710 	.db	1
      00027C 09                    2711 	.db	9
      00027D 00 0D                 2712 	.dw	Sstm8_hd44780$lcd_bus_outputs$217-Sstm8_hd44780$lcd_bus_outputs$211
      00027F 03                    2713 	.db	3
      000280 02                    2714 	.sleb128	2
      000281 01                    2715 	.db	1
      000282 09                    2716 	.db	9
      000283 00 01                 2717 	.dw	1+Sstm8_hd44780$lcd_bus_outputs$218-Sstm8_hd44780$lcd_bus_outputs$217
      000285 00                    2718 	.db	0
      000286 01                    2719 	.uleb128	1
      000287 01                    2720 	.db	1
      000288 04                    2721 	.db	4
      000289 02                    2722 	.uleb128	2
      00028A 00                    2723 	.db	0
      00028B 05                    2724 	.uleb128	5
      00028C 02                    2725 	.db	2
      00028D 00 00r01rA7           2726 	.dw	0,(Sstm8_hd44780$lcd_bus_inputs$220)
      000291 03                    2727 	.db	3
      000292 82 01                 2728 	.sleb128	130
      000294 01                    2729 	.db	1
      000295 09                    2730 	.db	9
      000296 00 00                 2731 	.dw	Sstm8_hd44780$lcd_bus_inputs$222-Sstm8_hd44780$lcd_bus_inputs$220
      000298 03                    2732 	.db	3
      000299 08                    2733 	.sleb128	8
      00029A 01                    2734 	.db	1
      00029B 09                    2735 	.db	9
      00029C 00 0D                 2736 	.dw	Sstm8_hd44780$lcd_bus_inputs$228-Sstm8_hd44780$lcd_bus_inputs$222
      00029E 03                    2737 	.db	3
      00029F 01                    2738 	.sleb128	1
      0002A0 01                    2739 	.db	1
      0002A1 09                    2740 	.db	9
      0002A2 00 0D                 2741 	.dw	Sstm8_hd44780$lcd_bus_inputs$234-Sstm8_hd44780$lcd_bus_inputs$228
      0002A4 03                    2742 	.db	3
      0002A5 01                    2743 	.sleb128	1
      0002A6 01                    2744 	.db	1
      0002A7 09                    2745 	.db	9
      0002A8 00 0D                 2746 	.dw	Sstm8_hd44780$lcd_bus_inputs$240-Sstm8_hd44780$lcd_bus_inputs$234
      0002AA 03                    2747 	.db	3
      0002AB 01                    2748 	.sleb128	1
      0002AC 01                    2749 	.db	1
      0002AD 09                    2750 	.db	9
      0002AE 00 0D                 2751 	.dw	Sstm8_hd44780$lcd_bus_inputs$246-Sstm8_hd44780$lcd_bus_inputs$240
      0002B0 03                    2752 	.db	3
      0002B1 02                    2753 	.sleb128	2
      0002B2 01                    2754 	.db	1
      0002B3 09                    2755 	.db	9
      0002B4 00 01                 2756 	.dw	1+Sstm8_hd44780$lcd_bus_inputs$247-Sstm8_hd44780$lcd_bus_inputs$246
      0002B6 00                    2757 	.db	0
      0002B7 01                    2758 	.uleb128	1
      0002B8 01                    2759 	.db	1
      0002B9 04                    2760 	.db	4
      0002BA 02                    2761 	.uleb128	2
      0002BB 00                    2762 	.db	0
      0002BC 05                    2763 	.uleb128	5
      0002BD 02                    2764 	.db	2
      0002BE 00 00r01rDC           2765 	.dw	0,(Sstm8_hd44780$lcd_deinit_hw$249)
      0002C2 03                    2766 	.db	3
      0002C3 92 01                 2767 	.sleb128	146
      0002C5 01                    2768 	.db	1
      0002C6 09                    2769 	.db	9
      0002C7 00 00                 2770 	.dw	Sstm8_hd44780$lcd_deinit_hw$251-Sstm8_hd44780$lcd_deinit_hw$249
      0002C9 03                    2771 	.db	3
      0002CA 01                    2772 	.sleb128	1
      0002CB 01                    2773 	.db	1
      0002CC 09                    2774 	.db	9
      0002CD 00 0D                 2775 	.dw	Sstm8_hd44780$lcd_deinit_hw$257-Sstm8_hd44780$lcd_deinit_hw$251
      0002CF 03                    2776 	.db	3
      0002D0 01                    2777 	.sleb128	1
      0002D1 01                    2778 	.db	1
      0002D2 09                    2779 	.db	9
      0002D3 00 0D                 2780 	.dw	Sstm8_hd44780$lcd_deinit_hw$263-Sstm8_hd44780$lcd_deinit_hw$257
      0002D5 03                    2781 	.db	3
      0002D6 01                    2782 	.sleb128	1
      0002D7 01                    2783 	.db	1
      0002D8 09                    2784 	.db	9
      0002D9 00 0D                 2785 	.dw	Sstm8_hd44780$lcd_deinit_hw$269-Sstm8_hd44780$lcd_deinit_hw$263
      0002DB 03                    2786 	.db	3
      0002DC 01                    2787 	.sleb128	1
      0002DD 01                    2788 	.db	1
      0002DE 09                    2789 	.db	9
      0002DF 00 0D                 2790 	.dw	Sstm8_hd44780$lcd_deinit_hw$275-Sstm8_hd44780$lcd_deinit_hw$269
      0002E1 03                    2791 	.db	3
      0002E2 01                    2792 	.sleb128	1
      0002E3 01                    2793 	.db	1
      0002E4 09                    2794 	.db	9
      0002E5 00 0D                 2795 	.dw	Sstm8_hd44780$lcd_deinit_hw$281-Sstm8_hd44780$lcd_deinit_hw$275
      0002E7 03                    2796 	.db	3
      0002E8 01                    2797 	.sleb128	1
      0002E9 01                    2798 	.db	1
      0002EA 09                    2799 	.db	9
      0002EB 00 0D                 2800 	.dw	Sstm8_hd44780$lcd_deinit_hw$287-Sstm8_hd44780$lcd_deinit_hw$281
      0002ED 03                    2801 	.db	3
      0002EE 01                    2802 	.sleb128	1
      0002EF 01                    2803 	.db	1
      0002F0 09                    2804 	.db	9
      0002F1 00 0D                 2805 	.dw	Sstm8_hd44780$lcd_deinit_hw$293-Sstm8_hd44780$lcd_deinit_hw$287
      0002F3 03                    2806 	.db	3
      0002F4 01                    2807 	.sleb128	1
      0002F5 01                    2808 	.db	1
      0002F6 09                    2809 	.db	9
      0002F7 00 01                 2810 	.dw	1+Sstm8_hd44780$lcd_deinit_hw$294-Sstm8_hd44780$lcd_deinit_hw$293
      0002F9 00                    2811 	.db	0
      0002FA 01                    2812 	.uleb128	1
      0002FB 01                    2813 	.db	1
      0002FC 04                    2814 	.db	4
      0002FD 02                    2815 	.uleb128	2
      0002FE 00                    2816 	.db	0
      0002FF 05                    2817 	.uleb128	5
      000300 02                    2818 	.db	2
      000301 00 00r02r38           2819 	.dw	0,(Sstm8_hd44780$lcd_bus_set$296)
      000305 03                    2820 	.db	3
      000306 9D 01                 2821 	.sleb128	157
      000308 01                    2822 	.db	1
      000309 09                    2823 	.db	9
      00030A 00 00                 2824 	.dw	Sstm8_hd44780$lcd_bus_set$298-Sstm8_hd44780$lcd_bus_set$296
      00030C 03                    2825 	.db	3
      00030D 01                    2826 	.sleb128	1
      00030E 01                    2827 	.db	1
      00030F 09                    2828 	.db	9
      000310 00 21                 2829 	.dw	Sstm8_hd44780$lcd_bus_set$311-Sstm8_hd44780$lcd_bus_set$298
      000312 03                    2830 	.db	3
      000313 01                    2831 	.sleb128	1
      000314 01                    2832 	.db	1
      000315 09                    2833 	.db	9
      000316 00 22                 2834 	.dw	Sstm8_hd44780$lcd_bus_set$324-Sstm8_hd44780$lcd_bus_set$311
      000318 03                    2835 	.db	3
      000319 01                    2836 	.sleb128	1
      00031A 01                    2837 	.db	1
      00031B 09                    2838 	.db	9
      00031C 00 22                 2839 	.dw	Sstm8_hd44780$lcd_bus_set$337-Sstm8_hd44780$lcd_bus_set$324
      00031E 03                    2840 	.db	3
      00031F 01                    2841 	.sleb128	1
      000320 01                    2842 	.db	1
      000321 09                    2843 	.db	9
      000322 00 22                 2844 	.dw	Sstm8_hd44780$lcd_bus_set$350-Sstm8_hd44780$lcd_bus_set$337
      000324 03                    2845 	.db	3
      000325 01                    2846 	.sleb128	1
      000326 01                    2847 	.db	1
      000327 09                    2848 	.db	9
      000328 00 01                 2849 	.dw	1+Sstm8_hd44780$lcd_bus_set$351-Sstm8_hd44780$lcd_bus_set$350
      00032A 00                    2850 	.db	0
      00032B 01                    2851 	.uleb128	1
      00032C 01                    2852 	.db	1
      00032D 04                    2853 	.db	4
      00032E 02                    2854 	.uleb128	2
      00032F 00                    2855 	.db	0
      000330 05                    2856 	.uleb128	5
      000331 02                    2857 	.db	2
      000332 00 00r02rC0           2858 	.dw	0,(Sstm8_hd44780$lcd_bus_read$353)
      000336 03                    2859 	.db	3
      000337 A5 01                 2860 	.sleb128	165
      000339 01                    2861 	.db	1
      00033A 09                    2862 	.db	9
      00033B 00 01                 2863 	.dw	Sstm8_hd44780$lcd_bus_read$356-Sstm8_hd44780$lcd_bus_read$353
      00033D 03                    2864 	.db	3
      00033E 01                    2865 	.sleb128	1
      00033F 01                    2866 	.db	1
      000340 09                    2867 	.db	9
      000341 00 02                 2868 	.dw	Sstm8_hd44780$lcd_bus_read$357-Sstm8_hd44780$lcd_bus_read$356
      000343 03                    2869 	.db	3
      000344 01                    2870 	.sleb128	1
      000345 01                    2871 	.db	1
      000346 09                    2872 	.db	9
      000347 00 16                 2873 	.dw	Sstm8_hd44780$lcd_bus_read$364-Sstm8_hd44780$lcd_bus_read$357
      000349 03                    2874 	.db	3
      00034A 01                    2875 	.sleb128	1
      00034B 01                    2876 	.db	1
      00034C 09                    2877 	.db	9
      00034D 00 17                 2878 	.dw	Sstm8_hd44780$lcd_bus_read$371-Sstm8_hd44780$lcd_bus_read$364
      00034F 03                    2879 	.db	3
      000350 01                    2880 	.sleb128	1
      000351 01                    2881 	.db	1
      000352 09                    2882 	.db	9
      000353 00 17                 2883 	.dw	Sstm8_hd44780$lcd_bus_read$378-Sstm8_hd44780$lcd_bus_read$371
      000355 03                    2884 	.db	3
      000356 01                    2885 	.sleb128	1
      000357 01                    2886 	.db	1
      000358 09                    2887 	.db	9
      000359 00 17                 2888 	.dw	Sstm8_hd44780$lcd_bus_read$385-Sstm8_hd44780$lcd_bus_read$378
      00035B 03                    2889 	.db	3
      00035C 01                    2890 	.sleb128	1
      00035D 01                    2891 	.db	1
      00035E 09                    2892 	.db	9
      00035F 00 02                 2893 	.dw	Sstm8_hd44780$lcd_bus_read$386-Sstm8_hd44780$lcd_bus_read$385
      000361 03                    2894 	.db	3
      000362 01                    2895 	.sleb128	1
      000363 01                    2896 	.db	1
      000364 09                    2897 	.db	9
      000365 00 03                 2898 	.dw	1+Sstm8_hd44780$lcd_bus_read$388-Sstm8_hd44780$lcd_bus_read$386
      000367 00                    2899 	.db	0
      000368 01                    2900 	.uleb128	1
      000369 01                    2901 	.db	1
      00036A 04                    2902 	.db	4
      00036B 02                    2903 	.uleb128	2
      00036C 00                    2904 	.db	0
      00036D 05                    2905 	.uleb128	5
      00036E 02                    2906 	.db	2
      00036F 00 00r03r23           2907 	.dw	0,(Sstm8_hd44780$lcd_e_tick$390)
      000373 03                    2908 	.db	3
      000374 AF 01                 2909 	.sleb128	175
      000376 01                    2910 	.db	1
      000377 09                    2911 	.db	9
      000378 00 00                 2912 	.dw	Sstm8_hd44780$lcd_e_tick$392-Sstm8_hd44780$lcd_e_tick$390
      00037A 03                    2913 	.db	3
      00037B 01                    2914 	.sleb128	1
      00037C 01                    2915 	.db	1
      00037D 04                    2916 	.db	4
      00037E 01                    2917 	.uleb128	1
      00037F 09                    2918 	.db	9
      000380 00 10                 2919 	.dw	Sstm8_hd44780$lcd_e_tick$400-Sstm8_hd44780$lcd_e_tick$392
      000382 03                    2920 	.db	3
      000383 E9 7E                 2921 	.sleb128	-151
      000385 01                    2922 	.db	1
      000386 04                    2923 	.db	4
      000387 02                    2924 	.uleb128	2
      000388 09                    2925 	.db	9
      000389 00 08                 2926 	.dw	Sstm8_hd44780$lcd_e_tick$404-Sstm8_hd44780$lcd_e_tick$400
      00038B 03                    2927 	.db	3
      00038C 99 01                 2928 	.sleb128	153
      00038E 01                    2929 	.db	1
      00038F 04                    2930 	.db	4
      000390 01                    2931 	.uleb128	1
      000391 09                    2932 	.db	9
      000392 00 10                 2933 	.dw	Sstm8_hd44780$lcd_e_tick$412-Sstm8_hd44780$lcd_e_tick$404
      000394 03                    2934 	.db	3
      000395 E7 7E                 2935 	.sleb128	-153
      000397 01                    2936 	.db	1
      000398 04                    2937 	.db	4
      000399 02                    2938 	.uleb128	2
      00039A 09                    2939 	.db	9
      00039B 00 08                 2940 	.dw	Sstm8_hd44780$lcd_e_tick$416-Sstm8_hd44780$lcd_e_tick$412
      00039D 03                    2941 	.db	3
      00039E 9A 01                 2942 	.sleb128	154
      0003A0 01                    2943 	.db	1
      0003A1 09                    2944 	.db	9
      0003A2 00 00                 2945 	.dw	Sstm8_hd44780$lcd_e_tick$417-Sstm8_hd44780$lcd_e_tick$416
      0003A4 03                    2946 	.db	3
      0003A5 01                    2947 	.sleb128	1
      0003A6 01                    2948 	.db	1
      0003A7 09                    2949 	.db	9
      0003A8 00 01                 2950 	.dw	1+Sstm8_hd44780$lcd_e_tick$418-Sstm8_hd44780$lcd_e_tick$417
      0003AA 00                    2951 	.db	0
      0003AB 01                    2952 	.uleb128	1
      0003AC 01                    2953 	.db	1
      0003AD 04                    2954 	.db	4
      0003AE 02                    2955 	.uleb128	2
      0003AF 00                    2956 	.db	0
      0003B0 05                    2957 	.uleb128	5
      0003B1 02                    2958 	.db	2
      0003B2 00 00r03r54           2959 	.dw	0,(Sstm8_hd44780$lcd_command$420)
      0003B6 03                    2960 	.db	3
      0003B7 B7 01                 2961 	.sleb128	183
      0003B9 01                    2962 	.db	1
      0003BA 09                    2963 	.db	9
      0003BB 00 00                 2964 	.dw	Sstm8_hd44780$lcd_command$422-Sstm8_hd44780$lcd_command$420
      0003BD 03                    2965 	.db	3
      0003BE 01                    2966 	.sleb128	1
      0003BF 01                    2967 	.db	1
      0003C0 04                    2968 	.db	4
      0003C1 01                    2969 	.uleb128	1
      0003C2 09                    2970 	.db	9
      0003C3 00 10                 2971 	.dw	Sstm8_hd44780$lcd_command$430-Sstm8_hd44780$lcd_command$422
      0003C5 03                    2972 	.db	3
      0003C6 E1 7E                 2973 	.sleb128	-159
      0003C8 01                    2974 	.db	1
      0003C9 04                    2975 	.db	4
      0003CA 02                    2976 	.uleb128	2
      0003CB 09                    2977 	.db	9
      0003CC 00 08                 2978 	.dw	Sstm8_hd44780$lcd_command$434-Sstm8_hd44780$lcd_command$430
      0003CE 03                    2979 	.db	3
      0003CF A1 01                 2980 	.sleb128	161
      0003D1 01                    2981 	.db	1
      0003D2 09                    2982 	.db	9
      0003D3 00 0C                 2983 	.dw	Sstm8_hd44780$lcd_command$437-Sstm8_hd44780$lcd_command$434
      0003D5 03                    2984 	.db	3
      0003D6 01                    2985 	.sleb128	1
      0003D7 01                    2986 	.db	1
      0003D8 09                    2987 	.db	9
      0003D9 00 03                 2988 	.dw	Sstm8_hd44780$lcd_command$438-Sstm8_hd44780$lcd_command$437
      0003DB 03                    2989 	.db	3
      0003DC 01                    2990 	.sleb128	1
      0003DD 01                    2991 	.db	1
      0003DE 09                    2992 	.db	9
      0003DF 00 09                 2993 	.dw	Sstm8_hd44780$lcd_command$441-Sstm8_hd44780$lcd_command$438
      0003E1 03                    2994 	.db	3
      0003E2 01                    2995 	.sleb128	1
      0003E3 01                    2996 	.db	1
      0003E4 09                    2997 	.db	9
      0003E5 00 03                 2998 	.dw	Sstm8_hd44780$lcd_command$442-Sstm8_hd44780$lcd_command$441
      0003E7 03                    2999 	.db	3
      0003E8 01                    3000 	.sleb128	1
      0003E9 01                    3001 	.db	1
      0003EA 09                    3002 	.db	9
      0003EB 00 03                 3003 	.dw	Sstm8_hd44780$lcd_command$443-Sstm8_hd44780$lcd_command$442
      0003ED 03                    3004 	.db	3
      0003EE 01                    3005 	.sleb128	1
      0003EF 01                    3006 	.db	1
      0003F0 09                    3007 	.db	9
      0003F1 00 01                 3008 	.dw	1+Sstm8_hd44780$lcd_command$444-Sstm8_hd44780$lcd_command$443
      0003F3 00                    3009 	.db	0
      0003F4 01                    3010 	.uleb128	1
      0003F5 01                    3011 	.db	1
      0003F6 04                    3012 	.db	4
      0003F7 02                    3013 	.uleb128	2
      0003F8 00                    3014 	.db	0
      0003F9 05                    3015 	.uleb128	5
      0003FA 02                    3016 	.db	2
      0003FB 00 00r03r8B           3017 	.dw	0,(Sstm8_hd44780$lcd_data$446)
      0003FF 03                    3018 	.db	3
      000400 C2 01                 3019 	.sleb128	194
      000402 01                    3020 	.db	1
      000403 09                    3021 	.db	9
      000404 00 00                 3022 	.dw	Sstm8_hd44780$lcd_data$448-Sstm8_hd44780$lcd_data$446
      000406 03                    3023 	.db	3
      000407 01                    3024 	.sleb128	1
      000408 01                    3025 	.db	1
      000409 04                    3026 	.db	4
      00040A 01                    3027 	.uleb128	1
      00040B 09                    3028 	.db	9
      00040C 00 10                 3029 	.dw	Sstm8_hd44780$lcd_data$456-Sstm8_hd44780$lcd_data$448
      00040E 03                    3030 	.db	3
      00040F D6 7E                 3031 	.sleb128	-170
      000411 01                    3032 	.db	1
      000412 04                    3033 	.db	4
      000413 02                    3034 	.uleb128	2
      000414 09                    3035 	.db	9
      000415 00 08                 3036 	.dw	Sstm8_hd44780$lcd_data$460-Sstm8_hd44780$lcd_data$456
      000417 03                    3037 	.db	3
      000418 AC 01                 3038 	.sleb128	172
      00041A 01                    3039 	.db	1
      00041B 09                    3040 	.db	9
      00041C 00 0C                 3041 	.dw	Sstm8_hd44780$lcd_data$463-Sstm8_hd44780$lcd_data$460
      00041E 03                    3042 	.db	3
      00041F 01                    3043 	.sleb128	1
      000420 01                    3044 	.db	1
      000421 09                    3045 	.db	9
      000422 00 03                 3046 	.dw	Sstm8_hd44780$lcd_data$464-Sstm8_hd44780$lcd_data$463
      000424 03                    3047 	.db	3
      000425 01                    3048 	.sleb128	1
      000426 01                    3049 	.db	1
      000427 09                    3050 	.db	9
      000428 00 09                 3051 	.dw	Sstm8_hd44780$lcd_data$467-Sstm8_hd44780$lcd_data$464
      00042A 03                    3052 	.db	3
      00042B 01                    3053 	.sleb128	1
      00042C 01                    3054 	.db	1
      00042D 09                    3055 	.db	9
      00042E 00 03                 3056 	.dw	Sstm8_hd44780$lcd_data$468-Sstm8_hd44780$lcd_data$467
      000430 03                    3057 	.db	3
      000431 01                    3058 	.sleb128	1
      000432 01                    3059 	.db	1
      000433 09                    3060 	.db	9
      000434 00 03                 3061 	.dw	Sstm8_hd44780$lcd_data$469-Sstm8_hd44780$lcd_data$468
      000436 03                    3062 	.db	3
      000437 01                    3063 	.sleb128	1
      000438 01                    3064 	.db	1
      000439 09                    3065 	.db	9
      00043A 00 01                 3066 	.dw	1+Sstm8_hd44780$lcd_data$470-Sstm8_hd44780$lcd_data$469
      00043C 00                    3067 	.db	0
      00043D 01                    3068 	.uleb128	1
      00043E 01                    3069 	.db	1
      00043F 04                    3070 	.db	4
      000440 02                    3071 	.uleb128	2
      000441 00                    3072 	.db	0
      000442 05                    3073 	.uleb128	5
      000443 02                    3074 	.db	2
      000444 00 00r03rC2           3075 	.dw	0,(Sstm8_hd44780$lcd_read$472)
      000448 03                    3076 	.db	3
      000449 CD 01                 3077 	.sleb128	205
      00044B 01                    3078 	.db	1
      00044C 09                    3079 	.db	9
      00044D 00 01                 3080 	.dw	Sstm8_hd44780$lcd_read$475-Sstm8_hd44780$lcd_read$472
      00044F 03                    3081 	.db	3
      000450 02                    3082 	.sleb128	2
      000451 01                    3083 	.db	1
      000452 09                    3084 	.db	9
      000453 00 0B                 3085 	.dw	Sstm8_hd44780$lcd_read$480-Sstm8_hd44780$lcd_read$475
      000455 03                    3086 	.db	3
      000456 01                    3087 	.sleb128	1
      000457 01                    3088 	.db	1
      000458 09                    3089 	.db	9
      000459 00 03                 3090 	.dw	Sstm8_hd44780$lcd_read$481-Sstm8_hd44780$lcd_read$480
      00045B 03                    3091 	.db	3
      00045C 01                    3092 	.sleb128	1
      00045D 01                    3093 	.db	1
      00045E 04                    3094 	.db	4
      00045F 01                    3095 	.uleb128	1
      000460 09                    3096 	.db	9
      000461 00 10                 3097 	.dw	Sstm8_hd44780$lcd_read$489-Sstm8_hd44780$lcd_read$481
      000463 03                    3098 	.db	3
      000464 C8 7E                 3099 	.sleb128	-184
      000466 01                    3100 	.db	1
      000467 04                    3101 	.db	4
      000468 02                    3102 	.uleb128	2
      000469 09                    3103 	.db	9
      00046A 00 08                 3104 	.dw	Sstm8_hd44780$lcd_read$493-Sstm8_hd44780$lcd_read$489
      00046C 03                    3105 	.db	3
      00046D BA 01                 3106 	.sleb128	186
      00046F 01                    3107 	.db	1
      000470 04                    3108 	.db	4
      000471 01                    3109 	.uleb128	1
      000472 09                    3110 	.db	9
      000473 00 10                 3111 	.dw	Sstm8_hd44780$lcd_read$501-Sstm8_hd44780$lcd_read$493
      000475 03                    3112 	.db	3
      000476 C6 7E                 3113 	.sleb128	-186
      000478 01                    3114 	.db	1
      000479 04                    3115 	.db	4
      00047A 02                    3116 	.uleb128	2
      00047B 09                    3117 	.db	9
      00047C 00 08                 3118 	.dw	Sstm8_hd44780$lcd_read$505-Sstm8_hd44780$lcd_read$501
      00047E 03                    3119 	.db	3
      00047F BC 01                 3120 	.sleb128	188
      000481 01                    3121 	.db	1
      000482 09                    3122 	.db	9
      000483 00 08                 3123 	.dw	Sstm8_hd44780$lcd_read$506-Sstm8_hd44780$lcd_read$505
      000485 03                    3124 	.db	3
      000486 01                    3125 	.sleb128	1
      000487 01                    3126 	.db	1
      000488 04                    3127 	.db	4
      000489 01                    3128 	.uleb128	1
      00048A 09                    3129 	.db	9
      00048B 00 10                 3130 	.dw	Sstm8_hd44780$lcd_read$514-Sstm8_hd44780$lcd_read$506
      00048D 03                    3131 	.db	3
      00048E C3 7E                 3132 	.sleb128	-189
      000490 01                    3133 	.db	1
      000491 04                    3134 	.db	4
      000492 02                    3135 	.uleb128	2
      000493 09                    3136 	.db	9
      000494 00 08                 3137 	.dw	Sstm8_hd44780$lcd_read$518-Sstm8_hd44780$lcd_read$514
      000496 03                    3138 	.db	3
      000497 BF 01                 3139 	.sleb128	191
      000499 01                    3140 	.db	1
      00049A 04                    3141 	.db	4
      00049B 01                    3142 	.uleb128	1
      00049C 09                    3143 	.db	9
      00049D 00 10                 3144 	.dw	Sstm8_hd44780$lcd_read$526-Sstm8_hd44780$lcd_read$518
      00049F 03                    3145 	.db	3
      0004A0 C1 7E                 3146 	.sleb128	-191
      0004A2 01                    3147 	.db	1
      0004A3 04                    3148 	.db	4
      0004A4 02                    3149 	.uleb128	2
      0004A5 09                    3150 	.db	9
      0004A6 00 08                 3151 	.dw	Sstm8_hd44780$lcd_read$530-Sstm8_hd44780$lcd_read$526
      0004A8 03                    3152 	.db	3
      0004A9 C1 01                 3153 	.sleb128	193
      0004AB 01                    3154 	.db	1
      0004AC 09                    3155 	.db	9
      0004AD 00 07                 3156 	.dw	Sstm8_hd44780$lcd_read$531-Sstm8_hd44780$lcd_read$530
      0004AF 03                    3157 	.db	3
      0004B0 01                    3158 	.sleb128	1
      0004B1 01                    3159 	.db	1
      0004B2 04                    3160 	.db	4
      0004B3 01                    3161 	.uleb128	1
      0004B4 09                    3162 	.db	9
      0004B5 00 10                 3163 	.dw	Sstm8_hd44780$lcd_read$539-Sstm8_hd44780$lcd_read$531
      0004B7 03                    3164 	.db	3
      0004B8 BE 7E                 3165 	.sleb128	-194
      0004BA 01                    3166 	.db	1
      0004BB 04                    3167 	.db	4
      0004BC 02                    3168 	.uleb128	2
      0004BD 09                    3169 	.db	9
      0004BE 00 08                 3170 	.dw	Sstm8_hd44780$lcd_read$543-Sstm8_hd44780$lcd_read$539
      0004C0 03                    3171 	.db	3
      0004C1 C4 01                 3172 	.sleb128	196
      0004C3 01                    3173 	.db	1
      0004C4 09                    3174 	.db	9
      0004C5 00 0B                 3175 	.dw	Sstm8_hd44780$lcd_read$548-Sstm8_hd44780$lcd_read$543
      0004C7 03                    3176 	.db	3
      0004C8 01                    3177 	.sleb128	1
      0004C9 01                    3178 	.db	1
      0004CA 09                    3179 	.db	9
      0004CB 00 03                 3180 	.dw	Sstm8_hd44780$lcd_read$549-Sstm8_hd44780$lcd_read$548
      0004CD 03                    3181 	.db	3
      0004CE 01                    3182 	.sleb128	1
      0004CF 01                    3183 	.db	1
      0004D0 09                    3184 	.db	9
      0004D1 00 02                 3185 	.dw	Sstm8_hd44780$lcd_read$550-Sstm8_hd44780$lcd_read$549
      0004D3 03                    3186 	.db	3
      0004D4 01                    3187 	.sleb128	1
      0004D5 01                    3188 	.db	1
      0004D6 09                    3189 	.db	9
      0004D7 00 03                 3190 	.dw	1+Sstm8_hd44780$lcd_read$552-Sstm8_hd44780$lcd_read$550
      0004D9 00                    3191 	.db	0
      0004DA 01                    3192 	.uleb128	1
      0004DB 01                    3193 	.db	1
      0004DC 04                    3194 	.db	4
      0004DD 02                    3195 	.uleb128	2
      0004DE 00                    3196 	.db	0
      0004DF 05                    3197 	.uleb128	5
      0004E0 02                    3198 	.db	2
      0004E1 00 00r04r6B           3199 	.dw	0,(Sstm8_hd44780$lcd_bus_sleep$554)
      0004E5 03                    3200 	.db	3
      0004E6 E4 01                 3201 	.sleb128	228
      0004E8 01                    3202 	.db	1
      0004E9 09                    3203 	.db	9
      0004EA 00 00                 3204 	.dw	Sstm8_hd44780$lcd_bus_sleep$556-Sstm8_hd44780$lcd_bus_sleep$554
      0004EC 03                    3205 	.db	3
      0004ED 01                    3206 	.sleb128	1
      0004EE 01                    3207 	.db	1
      0004EF 09                    3208 	.db	9
      0004F0 00 0B                 3209 	.dw	Sstm8_hd44780$lcd_bus_sleep$561-Sstm8_hd44780$lcd_bus_sleep$556
      0004F2 03                    3210 	.db	3
      0004F3 01                    3211 	.sleb128	1
      0004F4 01                    3212 	.db	1
      0004F5 09                    3213 	.db	9
      0004F6 00 0B                 3214 	.dw	Sstm8_hd44780$lcd_bus_sleep$566-Sstm8_hd44780$lcd_bus_sleep$561
      0004F8 03                    3215 	.db	3
      0004F9 01                    3216 	.sleb128	1
      0004FA 01                    3217 	.db	1
      0004FB 09                    3218 	.db	9
      0004FC 00 03                 3219 	.dw	Sstm8_hd44780$lcd_bus_sleep$567-Sstm8_hd44780$lcd_bus_sleep$566
      0004FE 03                    3220 	.db	3
      0004FF 01                    3221 	.sleb128	1
      000500 01                    3222 	.db	1
      000501 09                    3223 	.db	9
      000502 00 01                 3224 	.dw	1+Sstm8_hd44780$lcd_bus_sleep$568-Sstm8_hd44780$lcd_bus_sleep$567
      000504 00                    3225 	.db	0
      000505 01                    3226 	.uleb128	1
      000506 01                    3227 	.db	1
      000507 04                    3228 	.db	4
      000508 02                    3229 	.uleb128	2
      000509 00                    3230 	.db	0
      00050A 05                    3231 	.uleb128	5
      00050B 02                    3232 	.db	2
      00050C 00 00r04r85           3233 	.dw	0,(Sstm8_hd44780$lcd_bus_wakeup$570)
      000510 03                    3234 	.db	3
      000511 EB 01                 3235 	.sleb128	235
      000513 01                    3236 	.db	1
      000514 09                    3237 	.db	9
      000515 00 00                 3238 	.dw	Sstm8_hd44780$lcd_bus_wakeup$572-Sstm8_hd44780$lcd_bus_wakeup$570
      000517 03                    3239 	.db	3
      000518 01                    3240 	.sleb128	1
      000519 01                    3241 	.db	1
      00051A 09                    3242 	.db	9
      00051B 00 0B                 3243 	.dw	Sstm8_hd44780$lcd_bus_wakeup$577-Sstm8_hd44780$lcd_bus_wakeup$572
      00051D 03                    3244 	.db	3
      00051E 01                    3245 	.sleb128	1
      00051F 01                    3246 	.db	1
      000520 09                    3247 	.db	9
      000521 00 0B                 3248 	.dw	Sstm8_hd44780$lcd_bus_wakeup$582-Sstm8_hd44780$lcd_bus_wakeup$577
      000523 03                    3249 	.db	3
      000524 01                    3250 	.sleb128	1
      000525 01                    3251 	.db	1
      000526 09                    3252 	.db	9
      000527 00 0B                 3253 	.dw	Sstm8_hd44780$lcd_bus_wakeup$587-Sstm8_hd44780$lcd_bus_wakeup$582
      000529 03                    3254 	.db	3
      00052A 01                    3255 	.sleb128	1
      00052B 01                    3256 	.db	1
      00052C 09                    3257 	.db	9
      00052D 00 0B                 3258 	.dw	Sstm8_hd44780$lcd_bus_wakeup$592-Sstm8_hd44780$lcd_bus_wakeup$587
      00052F 03                    3259 	.db	3
      000530 01                    3260 	.sleb128	1
      000531 01                    3261 	.db	1
      000532 09                    3262 	.db	9
      000533 00 0B                 3263 	.dw	Sstm8_hd44780$lcd_bus_wakeup$597-Sstm8_hd44780$lcd_bus_wakeup$592
      000535 03                    3264 	.db	3
      000536 01                    3265 	.sleb128	1
      000537 01                    3266 	.db	1
      000538 09                    3267 	.db	9
      000539 00 03                 3268 	.dw	Sstm8_hd44780$lcd_bus_wakeup$598-Sstm8_hd44780$lcd_bus_wakeup$597
      00053B 03                    3269 	.db	3
      00053C 01                    3270 	.sleb128	1
      00053D 01                    3271 	.db	1
      00053E 09                    3272 	.db	9
      00053F 00 01                 3273 	.dw	1+Sstm8_hd44780$lcd_bus_wakeup$599-Sstm8_hd44780$lcd_bus_wakeup$598
      000541 00                    3274 	.db	0
      000542 01                    3275 	.uleb128	1
      000543 01                    3276 	.db	1
      000544 04                    3277 	.db	4
      000545 02                    3278 	.uleb128	2
      000546 00                    3279 	.db	0
      000547 05                    3280 	.uleb128	5
      000548 02                    3281 	.db	2
      000549 00 00r04rC0           3282 	.dw	0,(Sstm8_hd44780$lcd_busy_wait$601)
      00054D 03                    3283 	.db	3
      00054E F5 01                 3284 	.sleb128	245
      000550 01                    3285 	.db	1
      000551 09                    3286 	.db	9
      000552 00 00                 3287 	.dw	Sstm8_hd44780$lcd_busy_wait$603-Sstm8_hd44780$lcd_busy_wait$601
      000554 03                    3288 	.db	3
      000555 01                    3289 	.sleb128	1
      000556 01                    3290 	.db	1
      000557 09                    3291 	.db	9
      000558 00 03                 3292 	.dw	Sstm8_hd44780$lcd_busy_wait$604-Sstm8_hd44780$lcd_busy_wait$603
      00055A 03                    3293 	.db	3
      00055B 01                    3294 	.sleb128	1
      00055C 01                    3295 	.db	1
      00055D 09                    3296 	.db	9
      00055E 00 11                 3297 	.dw	Sstm8_hd44780$lcd_busy_wait$608-Sstm8_hd44780$lcd_busy_wait$604
      000560 03                    3298 	.db	3
      000561 01                    3299 	.sleb128	1
      000562 01                    3300 	.db	1
      000563 09                    3301 	.db	9
      000564 00 04                 3302 	.dw	Sstm8_hd44780$lcd_busy_wait$610-Sstm8_hd44780$lcd_busy_wait$608
      000566 03                    3303 	.db	3
      000567 02                    3304 	.sleb128	2
      000568 01                    3305 	.db	1
      000569 09                    3306 	.db	9
      00056A 00 0B                 3307 	.dw	Sstm8_hd44780$lcd_busy_wait$614-Sstm8_hd44780$lcd_busy_wait$610
      00056C 03                    3308 	.db	3
      00056D 01                    3309 	.sleb128	1
      00056E 01                    3310 	.db	1
      00056F 09                    3311 	.db	9
      000570 00 01                 3312 	.dw	Sstm8_hd44780$lcd_busy_wait$616-Sstm8_hd44780$lcd_busy_wait$614
      000572 03                    3313 	.db	3
      000573 01                    3314 	.sleb128	1
      000574 01                    3315 	.db	1
      000575 09                    3316 	.db	9
      000576 00 01                 3317 	.dw	1+Sstm8_hd44780$lcd_busy_wait$617-Sstm8_hd44780$lcd_busy_wait$616
      000578 00                    3318 	.db	0
      000579 01                    3319 	.uleb128	1
      00057A 01                    3320 	.db	1
      00057B                       3321 Ldebug_line_end:
                                   3322 
                                   3323 	.area .debug_loc (NOLOAD)
      000000                       3324 Ldebug_loc_start:
      000000 00 00r04rCE           3325 	.dw	0,(Sstm8_hd44780$lcd_busy_wait$606)
      000004 00 00r04rE5           3326 	.dw	0,(Sstm8_hd44780$lcd_busy_wait$618)
      000008 00 02                 3327 	.dw	2
      00000A 78                    3328 	.db	120
      00000B 01                    3329 	.sleb128	1
      00000C 00 00r04rCA           3330 	.dw	0,(Sstm8_hd44780$lcd_busy_wait$605)
      000010 00 00r04rCE           3331 	.dw	0,(Sstm8_hd44780$lcd_busy_wait$606)
      000014 00 02                 3332 	.dw	2
      000016 78                    3333 	.db	120
      000017 03                    3334 	.sleb128	3
      000018 00 00r04rC0           3335 	.dw	0,(Sstm8_hd44780$lcd_busy_wait$602)
      00001C 00 00r04rCA           3336 	.dw	0,(Sstm8_hd44780$lcd_busy_wait$605)
      000020 00 02                 3337 	.dw	2
      000022 78                    3338 	.db	120
      000023 01                    3339 	.sleb128	1
      000024 00 00 00 00           3340 	.dw	0,0
      000028 00 00 00 00           3341 	.dw	0,0
      00002C 00 00r04rBC           3342 	.dw	0,(Sstm8_hd44780$lcd_bus_wakeup$596)
      000030 00 00r04rC0           3343 	.dw	0,(Sstm8_hd44780$lcd_bus_wakeup$600)
      000034 00 02                 3344 	.dw	2
      000036 78                    3345 	.db	120
      000037 01                    3346 	.sleb128	1
      000038 00 00r04rB7           3347 	.dw	0,(Sstm8_hd44780$lcd_bus_wakeup$595)
      00003C 00 00r04rBC           3348 	.dw	0,(Sstm8_hd44780$lcd_bus_wakeup$596)
      000040 00 02                 3349 	.dw	2
      000042 78                    3350 	.db	120
      000043 04                    3351 	.sleb128	4
      000044 00 00r04rB5           3352 	.dw	0,(Sstm8_hd44780$lcd_bus_wakeup$594)
      000048 00 00r04rB7           3353 	.dw	0,(Sstm8_hd44780$lcd_bus_wakeup$595)
      00004C 00 02                 3354 	.dw	2
      00004E 78                    3355 	.db	120
      00004F 03                    3356 	.sleb128	3
      000050 00 00r04rB3           3357 	.dw	0,(Sstm8_hd44780$lcd_bus_wakeup$593)
      000054 00 00r04rB5           3358 	.dw	0,(Sstm8_hd44780$lcd_bus_wakeup$594)
      000058 00 02                 3359 	.dw	2
      00005A 78                    3360 	.db	120
      00005B 02                    3361 	.sleb128	2
      00005C 00 00r04rB1           3362 	.dw	0,(Sstm8_hd44780$lcd_bus_wakeup$591)
      000060 00 00r04rB3           3363 	.dw	0,(Sstm8_hd44780$lcd_bus_wakeup$593)
      000064 00 02                 3364 	.dw	2
      000066 78                    3365 	.db	120
      000067 01                    3366 	.sleb128	1
      000068 00 00r04rAC           3367 	.dw	0,(Sstm8_hd44780$lcd_bus_wakeup$590)
      00006C 00 00r04rB1           3368 	.dw	0,(Sstm8_hd44780$lcd_bus_wakeup$591)
      000070 00 02                 3369 	.dw	2
      000072 78                    3370 	.db	120
      000073 04                    3371 	.sleb128	4
      000074 00 00r04rAA           3372 	.dw	0,(Sstm8_hd44780$lcd_bus_wakeup$589)
      000078 00 00r04rAC           3373 	.dw	0,(Sstm8_hd44780$lcd_bus_wakeup$590)
      00007C 00 02                 3374 	.dw	2
      00007E 78                    3375 	.db	120
      00007F 03                    3376 	.sleb128	3
      000080 00 00r04rA8           3377 	.dw	0,(Sstm8_hd44780$lcd_bus_wakeup$588)
      000084 00 00r04rAA           3378 	.dw	0,(Sstm8_hd44780$lcd_bus_wakeup$589)
      000088 00 02                 3379 	.dw	2
      00008A 78                    3380 	.db	120
      00008B 02                    3381 	.sleb128	2
      00008C 00 00r04rA6           3382 	.dw	0,(Sstm8_hd44780$lcd_bus_wakeup$586)
      000090 00 00r04rA8           3383 	.dw	0,(Sstm8_hd44780$lcd_bus_wakeup$588)
      000094 00 02                 3384 	.dw	2
      000096 78                    3385 	.db	120
      000097 01                    3386 	.sleb128	1
      000098 00 00r04rA1           3387 	.dw	0,(Sstm8_hd44780$lcd_bus_wakeup$585)
      00009C 00 00r04rA6           3388 	.dw	0,(Sstm8_hd44780$lcd_bus_wakeup$586)
      0000A0 00 02                 3389 	.dw	2
      0000A2 78                    3390 	.db	120
      0000A3 04                    3391 	.sleb128	4
      0000A4 00 00r04r9F           3392 	.dw	0,(Sstm8_hd44780$lcd_bus_wakeup$584)
      0000A8 00 00r04rA1           3393 	.dw	0,(Sstm8_hd44780$lcd_bus_wakeup$585)
      0000AC 00 02                 3394 	.dw	2
      0000AE 78                    3395 	.db	120
      0000AF 03                    3396 	.sleb128	3
      0000B0 00 00r04r9D           3397 	.dw	0,(Sstm8_hd44780$lcd_bus_wakeup$583)
      0000B4 00 00r04r9F           3398 	.dw	0,(Sstm8_hd44780$lcd_bus_wakeup$584)
      0000B8 00 02                 3399 	.dw	2
      0000BA 78                    3400 	.db	120
      0000BB 02                    3401 	.sleb128	2
      0000BC 00 00r04r9B           3402 	.dw	0,(Sstm8_hd44780$lcd_bus_wakeup$581)
      0000C0 00 00r04r9D           3403 	.dw	0,(Sstm8_hd44780$lcd_bus_wakeup$583)
      0000C4 00 02                 3404 	.dw	2
      0000C6 78                    3405 	.db	120
      0000C7 01                    3406 	.sleb128	1
      0000C8 00 00r04r96           3407 	.dw	0,(Sstm8_hd44780$lcd_bus_wakeup$580)
      0000CC 00 00r04r9B           3408 	.dw	0,(Sstm8_hd44780$lcd_bus_wakeup$581)
      0000D0 00 02                 3409 	.dw	2
      0000D2 78                    3410 	.db	120
      0000D3 04                    3411 	.sleb128	4
      0000D4 00 00r04r94           3412 	.dw	0,(Sstm8_hd44780$lcd_bus_wakeup$579)
      0000D8 00 00r04r96           3413 	.dw	0,(Sstm8_hd44780$lcd_bus_wakeup$580)
      0000DC 00 02                 3414 	.dw	2
      0000DE 78                    3415 	.db	120
      0000DF 03                    3416 	.sleb128	3
      0000E0 00 00r04r92           3417 	.dw	0,(Sstm8_hd44780$lcd_bus_wakeup$578)
      0000E4 00 00r04r94           3418 	.dw	0,(Sstm8_hd44780$lcd_bus_wakeup$579)
      0000E8 00 02                 3419 	.dw	2
      0000EA 78                    3420 	.db	120
      0000EB 02                    3421 	.sleb128	2
      0000EC 00 00r04r90           3422 	.dw	0,(Sstm8_hd44780$lcd_bus_wakeup$576)
      0000F0 00 00r04r92           3423 	.dw	0,(Sstm8_hd44780$lcd_bus_wakeup$578)
      0000F4 00 02                 3424 	.dw	2
      0000F6 78                    3425 	.db	120
      0000F7 01                    3426 	.sleb128	1
      0000F8 00 00r04r8B           3427 	.dw	0,(Sstm8_hd44780$lcd_bus_wakeup$575)
      0000FC 00 00r04r90           3428 	.dw	0,(Sstm8_hd44780$lcd_bus_wakeup$576)
      000100 00 02                 3429 	.dw	2
      000102 78                    3430 	.db	120
      000103 04                    3431 	.sleb128	4
      000104 00 00r04r89           3432 	.dw	0,(Sstm8_hd44780$lcd_bus_wakeup$574)
      000108 00 00r04r8B           3433 	.dw	0,(Sstm8_hd44780$lcd_bus_wakeup$575)
      00010C 00 02                 3434 	.dw	2
      00010E 78                    3435 	.db	120
      00010F 03                    3436 	.sleb128	3
      000110 00 00r04r87           3437 	.dw	0,(Sstm8_hd44780$lcd_bus_wakeup$573)
      000114 00 00r04r89           3438 	.dw	0,(Sstm8_hd44780$lcd_bus_wakeup$574)
      000118 00 02                 3439 	.dw	2
      00011A 78                    3440 	.db	120
      00011B 02                    3441 	.sleb128	2
      00011C 00 00r04r85           3442 	.dw	0,(Sstm8_hd44780$lcd_bus_wakeup$571)
      000120 00 00r04r87           3443 	.dw	0,(Sstm8_hd44780$lcd_bus_wakeup$573)
      000124 00 02                 3444 	.dw	2
      000126 78                    3445 	.db	120
      000127 01                    3446 	.sleb128	1
      000128 00 00 00 00           3447 	.dw	0,0
      00012C 00 00 00 00           3448 	.dw	0,0
      000130 00 00r04r81           3449 	.dw	0,(Sstm8_hd44780$lcd_bus_sleep$565)
      000134 00 00r04r85           3450 	.dw	0,(Sstm8_hd44780$lcd_bus_sleep$569)
      000138 00 02                 3451 	.dw	2
      00013A 78                    3452 	.db	120
      00013B 01                    3453 	.sleb128	1
      00013C 00 00r04r7C           3454 	.dw	0,(Sstm8_hd44780$lcd_bus_sleep$564)
      000140 00 00r04r81           3455 	.dw	0,(Sstm8_hd44780$lcd_bus_sleep$565)
      000144 00 02                 3456 	.dw	2
      000146 78                    3457 	.db	120
      000147 04                    3458 	.sleb128	4
      000148 00 00r04r7A           3459 	.dw	0,(Sstm8_hd44780$lcd_bus_sleep$563)
      00014C 00 00r04r7C           3460 	.dw	0,(Sstm8_hd44780$lcd_bus_sleep$564)
      000150 00 02                 3461 	.dw	2
      000152 78                    3462 	.db	120
      000153 03                    3463 	.sleb128	3
      000154 00 00r04r78           3464 	.dw	0,(Sstm8_hd44780$lcd_bus_sleep$562)
      000158 00 00r04r7A           3465 	.dw	0,(Sstm8_hd44780$lcd_bus_sleep$563)
      00015C 00 02                 3466 	.dw	2
      00015E 78                    3467 	.db	120
      00015F 02                    3468 	.sleb128	2
      000160 00 00r04r76           3469 	.dw	0,(Sstm8_hd44780$lcd_bus_sleep$560)
      000164 00 00r04r78           3470 	.dw	0,(Sstm8_hd44780$lcd_bus_sleep$562)
      000168 00 02                 3471 	.dw	2
      00016A 78                    3472 	.db	120
      00016B 01                    3473 	.sleb128	1
      00016C 00 00r04r71           3474 	.dw	0,(Sstm8_hd44780$lcd_bus_sleep$559)
      000170 00 00r04r76           3475 	.dw	0,(Sstm8_hd44780$lcd_bus_sleep$560)
      000174 00 02                 3476 	.dw	2
      000176 78                    3477 	.db	120
      000177 04                    3478 	.sleb128	4
      000178 00 00r04r6F           3479 	.dw	0,(Sstm8_hd44780$lcd_bus_sleep$558)
      00017C 00 00r04r71           3480 	.dw	0,(Sstm8_hd44780$lcd_bus_sleep$559)
      000180 00 02                 3481 	.dw	2
      000182 78                    3482 	.db	120
      000183 03                    3483 	.sleb128	3
      000184 00 00r04r6D           3484 	.dw	0,(Sstm8_hd44780$lcd_bus_sleep$557)
      000188 00 00r04r6F           3485 	.dw	0,(Sstm8_hd44780$lcd_bus_sleep$558)
      00018C 00 02                 3486 	.dw	2
      00018E 78                    3487 	.db	120
      00018F 02                    3488 	.sleb128	2
      000190 00 00r04r6B           3489 	.dw	0,(Sstm8_hd44780$lcd_bus_sleep$555)
      000194 00 00r04r6D           3490 	.dw	0,(Sstm8_hd44780$lcd_bus_sleep$557)
      000198 00 02                 3491 	.dw	2
      00019A 78                    3492 	.db	120
      00019B 01                    3493 	.sleb128	1
      00019C 00 00 00 00           3494 	.dw	0,0
      0001A0 00 00 00 00           3495 	.dw	0,0
      0001A4 00 00r04r6A           3496 	.dw	0,(Sstm8_hd44780$lcd_read$551)
      0001A8 00 00r04r6B           3497 	.dw	0,(Sstm8_hd44780$lcd_read$553)
      0001AC 00 02                 3498 	.dw	2
      0001AE 78                    3499 	.db	120
      0001AF 01                    3500 	.sleb128	1
      0001B0 00 00r04r63           3501 	.dw	0,(Sstm8_hd44780$lcd_read$547)
      0001B4 00 00r04r6A           3502 	.dw	0,(Sstm8_hd44780$lcd_read$551)
      0001B8 00 02                 3503 	.dw	2
      0001BA 78                    3504 	.db	120
      0001BB 02                    3505 	.sleb128	2
      0001BC 00 00r04r5E           3506 	.dw	0,(Sstm8_hd44780$lcd_read$546)
      0001C0 00 00r04r63           3507 	.dw	0,(Sstm8_hd44780$lcd_read$547)
      0001C4 00 02                 3508 	.dw	2
      0001C6 78                    3509 	.db	120
      0001C7 05                    3510 	.sleb128	5
      0001C8 00 00r04r5C           3511 	.dw	0,(Sstm8_hd44780$lcd_read$545)
      0001CC 00 00r04r5E           3512 	.dw	0,(Sstm8_hd44780$lcd_read$546)
      0001D0 00 02                 3513 	.dw	2
      0001D2 78                    3514 	.db	120
      0001D3 04                    3515 	.sleb128	4
      0001D4 00 00r04r5A           3516 	.dw	0,(Sstm8_hd44780$lcd_read$544)
      0001D8 00 00r04r5C           3517 	.dw	0,(Sstm8_hd44780$lcd_read$545)
      0001DC 00 02                 3518 	.dw	2
      0001DE 78                    3519 	.db	120
      0001DF 03                    3520 	.sleb128	3
      0001E0 00 00r04r4B           3521 	.dw	0,(Sstm8_hd44780$lcd_read$535)
      0001E4 00 00r04r5A           3522 	.dw	0,(Sstm8_hd44780$lcd_read$544)
      0001E8 00 02                 3523 	.dw	2
      0001EA 78                    3524 	.db	120
      0001EB 02                    3525 	.sleb128	2
      0001EC 00 00r04r46           3526 	.dw	0,(Sstm8_hd44780$lcd_read$534)
      0001F0 00 00r04r4B           3527 	.dw	0,(Sstm8_hd44780$lcd_read$535)
      0001F4 00 02                 3528 	.dw	2
      0001F6 78                    3529 	.db	120
      0001F7 05                    3530 	.sleb128	5
      0001F8 00 00r04r44           3531 	.dw	0,(Sstm8_hd44780$lcd_read$533)
      0001FC 00 00r04r46           3532 	.dw	0,(Sstm8_hd44780$lcd_read$534)
      000200 00 02                 3533 	.dw	2
      000202 78                    3534 	.db	120
      000203 04                    3535 	.sleb128	4
      000204 00 00r04r42           3536 	.dw	0,(Sstm8_hd44780$lcd_read$532)
      000208 00 00r04r44           3537 	.dw	0,(Sstm8_hd44780$lcd_read$533)
      00020C 00 02                 3538 	.dw	2
      00020E 78                    3539 	.db	120
      00020F 03                    3540 	.sleb128	3
      000210 00 00r04r2C           3541 	.dw	0,(Sstm8_hd44780$lcd_read$522)
      000214 00 00r04r42           3542 	.dw	0,(Sstm8_hd44780$lcd_read$532)
      000218 00 02                 3543 	.dw	2
      00021A 78                    3544 	.db	120
      00021B 02                    3545 	.sleb128	2
      00021C 00 00r04r27           3546 	.dw	0,(Sstm8_hd44780$lcd_read$521)
      000220 00 00r04r2C           3547 	.dw	0,(Sstm8_hd44780$lcd_read$522)
      000224 00 02                 3548 	.dw	2
      000226 78                    3549 	.db	120
      000227 05                    3550 	.sleb128	5
      000228 00 00r04r25           3551 	.dw	0,(Sstm8_hd44780$lcd_read$520)
      00022C 00 00r04r27           3552 	.dw	0,(Sstm8_hd44780$lcd_read$521)
      000230 00 02                 3553 	.dw	2
      000232 78                    3554 	.db	120
      000233 04                    3555 	.sleb128	4
      000234 00 00r04r23           3556 	.dw	0,(Sstm8_hd44780$lcd_read$519)
      000238 00 00r04r25           3557 	.dw	0,(Sstm8_hd44780$lcd_read$520)
      00023C 00 02                 3558 	.dw	2
      00023E 78                    3559 	.db	120
      00023F 03                    3560 	.sleb128	3
      000240 00 00r04r14           3561 	.dw	0,(Sstm8_hd44780$lcd_read$510)
      000244 00 00r04r23           3562 	.dw	0,(Sstm8_hd44780$lcd_read$519)
      000248 00 02                 3563 	.dw	2
      00024A 78                    3564 	.db	120
      00024B 02                    3565 	.sleb128	2
      00024C 00 00r04r0F           3566 	.dw	0,(Sstm8_hd44780$lcd_read$509)
      000250 00 00r04r14           3567 	.dw	0,(Sstm8_hd44780$lcd_read$510)
      000254 00 02                 3568 	.dw	2
      000256 78                    3569 	.db	120
      000257 05                    3570 	.sleb128	5
      000258 00 00r04r0D           3571 	.dw	0,(Sstm8_hd44780$lcd_read$508)
      00025C 00 00r04r0F           3572 	.dw	0,(Sstm8_hd44780$lcd_read$509)
      000260 00 02                 3573 	.dw	2
      000262 78                    3574 	.db	120
      000263 04                    3575 	.sleb128	4
      000264 00 00r04r0B           3576 	.dw	0,(Sstm8_hd44780$lcd_read$507)
      000268 00 00r04r0D           3577 	.dw	0,(Sstm8_hd44780$lcd_read$508)
      00026C 00 02                 3578 	.dw	2
      00026E 78                    3579 	.db	120
      00026F 03                    3580 	.sleb128	3
      000270 00 00r03rF4           3581 	.dw	0,(Sstm8_hd44780$lcd_read$497)
      000274 00 00r04r0B           3582 	.dw	0,(Sstm8_hd44780$lcd_read$507)
      000278 00 02                 3583 	.dw	2
      00027A 78                    3584 	.db	120
      00027B 02                    3585 	.sleb128	2
      00027C 00 00r03rEF           3586 	.dw	0,(Sstm8_hd44780$lcd_read$496)
      000280 00 00r03rF4           3587 	.dw	0,(Sstm8_hd44780$lcd_read$497)
      000284 00 02                 3588 	.dw	2
      000286 78                    3589 	.db	120
      000287 05                    3590 	.sleb128	5
      000288 00 00r03rED           3591 	.dw	0,(Sstm8_hd44780$lcd_read$495)
      00028C 00 00r03rEF           3592 	.dw	0,(Sstm8_hd44780$lcd_read$496)
      000290 00 02                 3593 	.dw	2
      000292 78                    3594 	.db	120
      000293 04                    3595 	.sleb128	4
      000294 00 00r03rEB           3596 	.dw	0,(Sstm8_hd44780$lcd_read$494)
      000298 00 00r03rED           3597 	.dw	0,(Sstm8_hd44780$lcd_read$495)
      00029C 00 02                 3598 	.dw	2
      00029E 78                    3599 	.db	120
      00029F 03                    3600 	.sleb128	3
      0002A0 00 00r03rDC           3601 	.dw	0,(Sstm8_hd44780$lcd_read$485)
      0002A4 00 00r03rEB           3602 	.dw	0,(Sstm8_hd44780$lcd_read$494)
      0002A8 00 02                 3603 	.dw	2
      0002AA 78                    3604 	.db	120
      0002AB 02                    3605 	.sleb128	2
      0002AC 00 00r03rD7           3606 	.dw	0,(Sstm8_hd44780$lcd_read$484)
      0002B0 00 00r03rDC           3607 	.dw	0,(Sstm8_hd44780$lcd_read$485)
      0002B4 00 02                 3608 	.dw	2
      0002B6 78                    3609 	.db	120
      0002B7 05                    3610 	.sleb128	5
      0002B8 00 00r03rD5           3611 	.dw	0,(Sstm8_hd44780$lcd_read$483)
      0002BC 00 00r03rD7           3612 	.dw	0,(Sstm8_hd44780$lcd_read$484)
      0002C0 00 02                 3613 	.dw	2
      0002C2 78                    3614 	.db	120
      0002C3 04                    3615 	.sleb128	4
      0002C4 00 00r03rD3           3616 	.dw	0,(Sstm8_hd44780$lcd_read$482)
      0002C8 00 00r03rD5           3617 	.dw	0,(Sstm8_hd44780$lcd_read$483)
      0002CC 00 02                 3618 	.dw	2
      0002CE 78                    3619 	.db	120
      0002CF 03                    3620 	.sleb128	3
      0002D0 00 00r03rCE           3621 	.dw	0,(Sstm8_hd44780$lcd_read$479)
      0002D4 00 00r03rD3           3622 	.dw	0,(Sstm8_hd44780$lcd_read$482)
      0002D8 00 02                 3623 	.dw	2
      0002DA 78                    3624 	.db	120
      0002DB 02                    3625 	.sleb128	2
      0002DC 00 00r03rC9           3626 	.dw	0,(Sstm8_hd44780$lcd_read$478)
      0002E0 00 00r03rCE           3627 	.dw	0,(Sstm8_hd44780$lcd_read$479)
      0002E4 00 02                 3628 	.dw	2
      0002E6 78                    3629 	.db	120
      0002E7 05                    3630 	.sleb128	5
      0002E8 00 00r03rC7           3631 	.dw	0,(Sstm8_hd44780$lcd_read$477)
      0002EC 00 00r03rC9           3632 	.dw	0,(Sstm8_hd44780$lcd_read$478)
      0002F0 00 02                 3633 	.dw	2
      0002F2 78                    3634 	.db	120
      0002F3 04                    3635 	.sleb128	4
      0002F4 00 00r03rC5           3636 	.dw	0,(Sstm8_hd44780$lcd_read$476)
      0002F8 00 00r03rC7           3637 	.dw	0,(Sstm8_hd44780$lcd_read$477)
      0002FC 00 02                 3638 	.dw	2
      0002FE 78                    3639 	.db	120
      0002FF 03                    3640 	.sleb128	3
      000300 00 00r03rC3           3641 	.dw	0,(Sstm8_hd44780$lcd_read$474)
      000304 00 00r03rC5           3642 	.dw	0,(Sstm8_hd44780$lcd_read$476)
      000308 00 02                 3643 	.dw	2
      00030A 78                    3644 	.db	120
      00030B 02                    3645 	.sleb128	2
      00030C 00 00r03rC2           3646 	.dw	0,(Sstm8_hd44780$lcd_read$473)
      000310 00 00r03rC3           3647 	.dw	0,(Sstm8_hd44780$lcd_read$474)
      000314 00 02                 3648 	.dw	2
      000316 78                    3649 	.db	120
      000317 01                    3650 	.sleb128	1
      000318 00 00 00 00           3651 	.dw	0,0
      00031C 00 00 00 00           3652 	.dw	0,0
      000320 00 00r03rBB           3653 	.dw	0,(Sstm8_hd44780$lcd_data$466)
      000324 00 00r03rC2           3654 	.dw	0,(Sstm8_hd44780$lcd_data$471)
      000328 00 02                 3655 	.dw	2
      00032A 78                    3656 	.db	120
      00032B 01                    3657 	.sleb128	1
      00032C 00 00r03rB7           3658 	.dw	0,(Sstm8_hd44780$lcd_data$465)
      000330 00 00r03rBB           3659 	.dw	0,(Sstm8_hd44780$lcd_data$466)
      000334 00 02                 3660 	.dw	2
      000336 78                    3661 	.db	120
      000337 02                    3662 	.sleb128	2
      000338 00 00r03rAF           3663 	.dw	0,(Sstm8_hd44780$lcd_data$462)
      00033C 00 00r03rB7           3664 	.dw	0,(Sstm8_hd44780$lcd_data$465)
      000340 00 02                 3665 	.dw	2
      000342 78                    3666 	.db	120
      000343 01                    3667 	.sleb128	1
      000344 00 00r03rAB           3668 	.dw	0,(Sstm8_hd44780$lcd_data$461)
      000348 00 00r03rAF           3669 	.dw	0,(Sstm8_hd44780$lcd_data$462)
      00034C 00 02                 3670 	.dw	2
      00034E 78                    3671 	.db	120
      00034F 02                    3672 	.sleb128	2
      000350 00 00r03r96           3673 	.dw	0,(Sstm8_hd44780$lcd_data$452)
      000354 00 00r03rAB           3674 	.dw	0,(Sstm8_hd44780$lcd_data$461)
      000358 00 02                 3675 	.dw	2
      00035A 78                    3676 	.db	120
      00035B 01                    3677 	.sleb128	1
      00035C 00 00r03r91           3678 	.dw	0,(Sstm8_hd44780$lcd_data$451)
      000360 00 00r03r96           3679 	.dw	0,(Sstm8_hd44780$lcd_data$452)
      000364 00 02                 3680 	.dw	2
      000366 78                    3681 	.db	120
      000367 04                    3682 	.sleb128	4
      000368 00 00r03r8F           3683 	.dw	0,(Sstm8_hd44780$lcd_data$450)
      00036C 00 00r03r91           3684 	.dw	0,(Sstm8_hd44780$lcd_data$451)
      000370 00 02                 3685 	.dw	2
      000372 78                    3686 	.db	120
      000373 03                    3687 	.sleb128	3
      000374 00 00r03r8D           3688 	.dw	0,(Sstm8_hd44780$lcd_data$449)
      000378 00 00r03r8F           3689 	.dw	0,(Sstm8_hd44780$lcd_data$450)
      00037C 00 02                 3690 	.dw	2
      00037E 78                    3691 	.db	120
      00037F 02                    3692 	.sleb128	2
      000380 00 00r03r8B           3693 	.dw	0,(Sstm8_hd44780$lcd_data$447)
      000384 00 00r03r8D           3694 	.dw	0,(Sstm8_hd44780$lcd_data$449)
      000388 00 02                 3695 	.dw	2
      00038A 78                    3696 	.db	120
      00038B 01                    3697 	.sleb128	1
      00038C 00 00 00 00           3698 	.dw	0,0
      000390 00 00 00 00           3699 	.dw	0,0
      000394 00 00r03r84           3700 	.dw	0,(Sstm8_hd44780$lcd_command$440)
      000398 00 00r03r8B           3701 	.dw	0,(Sstm8_hd44780$lcd_command$445)
      00039C 00 02                 3702 	.dw	2
      00039E 78                    3703 	.db	120
      00039F 01                    3704 	.sleb128	1
      0003A0 00 00r03r80           3705 	.dw	0,(Sstm8_hd44780$lcd_command$439)
      0003A4 00 00r03r84           3706 	.dw	0,(Sstm8_hd44780$lcd_command$440)
      0003A8 00 02                 3707 	.dw	2
      0003AA 78                    3708 	.db	120
      0003AB 02                    3709 	.sleb128	2
      0003AC 00 00r03r78           3710 	.dw	0,(Sstm8_hd44780$lcd_command$436)
      0003B0 00 00r03r80           3711 	.dw	0,(Sstm8_hd44780$lcd_command$439)
      0003B4 00 02                 3712 	.dw	2
      0003B6 78                    3713 	.db	120
      0003B7 01                    3714 	.sleb128	1
      0003B8 00 00r03r74           3715 	.dw	0,(Sstm8_hd44780$lcd_command$435)
      0003BC 00 00r03r78           3716 	.dw	0,(Sstm8_hd44780$lcd_command$436)
      0003C0 00 02                 3717 	.dw	2
      0003C2 78                    3718 	.db	120
      0003C3 02                    3719 	.sleb128	2
      0003C4 00 00r03r5F           3720 	.dw	0,(Sstm8_hd44780$lcd_command$426)
      0003C8 00 00r03r74           3721 	.dw	0,(Sstm8_hd44780$lcd_command$435)
      0003CC 00 02                 3722 	.dw	2
      0003CE 78                    3723 	.db	120
      0003CF 01                    3724 	.sleb128	1
      0003D0 00 00r03r5A           3725 	.dw	0,(Sstm8_hd44780$lcd_command$425)
      0003D4 00 00r03r5F           3726 	.dw	0,(Sstm8_hd44780$lcd_command$426)
      0003D8 00 02                 3727 	.dw	2
      0003DA 78                    3728 	.db	120
      0003DB 04                    3729 	.sleb128	4
      0003DC 00 00r03r58           3730 	.dw	0,(Sstm8_hd44780$lcd_command$424)
      0003E0 00 00r03r5A           3731 	.dw	0,(Sstm8_hd44780$lcd_command$425)
      0003E4 00 02                 3732 	.dw	2
      0003E6 78                    3733 	.db	120
      0003E7 03                    3734 	.sleb128	3
      0003E8 00 00r03r56           3735 	.dw	0,(Sstm8_hd44780$lcd_command$423)
      0003EC 00 00r03r58           3736 	.dw	0,(Sstm8_hd44780$lcd_command$424)
      0003F0 00 02                 3737 	.dw	2
      0003F2 78                    3738 	.db	120
      0003F3 02                    3739 	.sleb128	2
      0003F4 00 00r03r54           3740 	.dw	0,(Sstm8_hd44780$lcd_command$421)
      0003F8 00 00r03r56           3741 	.dw	0,(Sstm8_hd44780$lcd_command$423)
      0003FC 00 02                 3742 	.dw	2
      0003FE 78                    3743 	.db	120
      0003FF 01                    3744 	.sleb128	1
      000400 00 00 00 00           3745 	.dw	0,0
      000404 00 00 00 00           3746 	.dw	0,0
      000408 00 00r03r46           3747 	.dw	0,(Sstm8_hd44780$lcd_e_tick$408)
      00040C 00 00r03r54           3748 	.dw	0,(Sstm8_hd44780$lcd_e_tick$419)
      000410 00 02                 3749 	.dw	2
      000412 78                    3750 	.db	120
      000413 01                    3751 	.sleb128	1
      000414 00 00r03r41           3752 	.dw	0,(Sstm8_hd44780$lcd_e_tick$407)
      000418 00 00r03r46           3753 	.dw	0,(Sstm8_hd44780$lcd_e_tick$408)
      00041C 00 02                 3754 	.dw	2
      00041E 78                    3755 	.db	120
      00041F 04                    3756 	.sleb128	4
      000420 00 00r03r3F           3757 	.dw	0,(Sstm8_hd44780$lcd_e_tick$406)
      000424 00 00r03r41           3758 	.dw	0,(Sstm8_hd44780$lcd_e_tick$407)
      000428 00 02                 3759 	.dw	2
      00042A 78                    3760 	.db	120
      00042B 03                    3761 	.sleb128	3
      00042C 00 00r03r3D           3762 	.dw	0,(Sstm8_hd44780$lcd_e_tick$405)
      000430 00 00r03r3F           3763 	.dw	0,(Sstm8_hd44780$lcd_e_tick$406)
      000434 00 02                 3764 	.dw	2
      000436 78                    3765 	.db	120
      000437 02                    3766 	.sleb128	2
      000438 00 00r03r2E           3767 	.dw	0,(Sstm8_hd44780$lcd_e_tick$396)
      00043C 00 00r03r3D           3768 	.dw	0,(Sstm8_hd44780$lcd_e_tick$405)
      000440 00 02                 3769 	.dw	2
      000442 78                    3770 	.db	120
      000443 01                    3771 	.sleb128	1
      000444 00 00r03r29           3772 	.dw	0,(Sstm8_hd44780$lcd_e_tick$395)
      000448 00 00r03r2E           3773 	.dw	0,(Sstm8_hd44780$lcd_e_tick$396)
      00044C 00 02                 3774 	.dw	2
      00044E 78                    3775 	.db	120
      00044F 04                    3776 	.sleb128	4
      000450 00 00r03r27           3777 	.dw	0,(Sstm8_hd44780$lcd_e_tick$394)
      000454 00 00r03r29           3778 	.dw	0,(Sstm8_hd44780$lcd_e_tick$395)
      000458 00 02                 3779 	.dw	2
      00045A 78                    3780 	.db	120
      00045B 03                    3781 	.sleb128	3
      00045C 00 00r03r25           3782 	.dw	0,(Sstm8_hd44780$lcd_e_tick$393)
      000460 00 00r03r27           3783 	.dw	0,(Sstm8_hd44780$lcd_e_tick$394)
      000464 00 02                 3784 	.dw	2
      000466 78                    3785 	.db	120
      000467 02                    3786 	.sleb128	2
      000468 00 00r03r23           3787 	.dw	0,(Sstm8_hd44780$lcd_e_tick$391)
      00046C 00 00r03r25           3788 	.dw	0,(Sstm8_hd44780$lcd_e_tick$393)
      000470 00 02                 3789 	.dw	2
      000472 78                    3790 	.db	120
      000473 01                    3791 	.sleb128	1
      000474 00 00 00 00           3792 	.dw	0,0
      000478 00 00 00 00           3793 	.dw	0,0
      00047C 00 00r03r22           3794 	.dw	0,(Sstm8_hd44780$lcd_bus_read$387)
      000480 00 00r03r23           3795 	.dw	0,(Sstm8_hd44780$lcd_bus_read$389)
      000484 00 02                 3796 	.dw	2
      000486 78                    3797 	.db	120
      000487 01                    3798 	.sleb128	1
      000488 00 00r03r12           3799 	.dw	0,(Sstm8_hd44780$lcd_bus_read$382)
      00048C 00 00r03r22           3800 	.dw	0,(Sstm8_hd44780$lcd_bus_read$387)
      000490 00 02                 3801 	.dw	2
      000492 78                    3802 	.db	120
      000493 02                    3803 	.sleb128	2
      000494 00 00r03r0D           3804 	.dw	0,(Sstm8_hd44780$lcd_bus_read$381)
      000498 00 00r03r12           3805 	.dw	0,(Sstm8_hd44780$lcd_bus_read$382)
      00049C 00 02                 3806 	.dw	2
      00049E 78                    3807 	.db	120
      00049F 05                    3808 	.sleb128	5
      0004A0 00 00r03r0B           3809 	.dw	0,(Sstm8_hd44780$lcd_bus_read$380)
      0004A4 00 00r03r0D           3810 	.dw	0,(Sstm8_hd44780$lcd_bus_read$381)
      0004A8 00 02                 3811 	.dw	2
      0004AA 78                    3812 	.db	120
      0004AB 04                    3813 	.sleb128	4
      0004AC 00 00r03r09           3814 	.dw	0,(Sstm8_hd44780$lcd_bus_read$379)
      0004B0 00 00r03r0B           3815 	.dw	0,(Sstm8_hd44780$lcd_bus_read$380)
      0004B4 00 02                 3816 	.dw	2
      0004B6 78                    3817 	.db	120
      0004B7 03                    3818 	.sleb128	3
      0004B8 00 00r02rFB           3819 	.dw	0,(Sstm8_hd44780$lcd_bus_read$375)
      0004BC 00 00r03r09           3820 	.dw	0,(Sstm8_hd44780$lcd_bus_read$379)
      0004C0 00 02                 3821 	.dw	2
      0004C2 78                    3822 	.db	120
      0004C3 02                    3823 	.sleb128	2
      0004C4 00 00r02rF6           3824 	.dw	0,(Sstm8_hd44780$lcd_bus_read$374)
      0004C8 00 00r02rFB           3825 	.dw	0,(Sstm8_hd44780$lcd_bus_read$375)
      0004CC 00 02                 3826 	.dw	2
      0004CE 78                    3827 	.db	120
      0004CF 05                    3828 	.sleb128	5
      0004D0 00 00r02rF4           3829 	.dw	0,(Sstm8_hd44780$lcd_bus_read$373)
      0004D4 00 00r02rF6           3830 	.dw	0,(Sstm8_hd44780$lcd_bus_read$374)
      0004D8 00 02                 3831 	.dw	2
      0004DA 78                    3832 	.db	120
      0004DB 04                    3833 	.sleb128	4
      0004DC 00 00r02rF2           3834 	.dw	0,(Sstm8_hd44780$lcd_bus_read$372)
      0004E0 00 00r02rF4           3835 	.dw	0,(Sstm8_hd44780$lcd_bus_read$373)
      0004E4 00 02                 3836 	.dw	2
      0004E6 78                    3837 	.db	120
      0004E7 03                    3838 	.sleb128	3
      0004E8 00 00r02rE4           3839 	.dw	0,(Sstm8_hd44780$lcd_bus_read$368)
      0004EC 00 00r02rF2           3840 	.dw	0,(Sstm8_hd44780$lcd_bus_read$372)
      0004F0 00 02                 3841 	.dw	2
      0004F2 78                    3842 	.db	120
      0004F3 02                    3843 	.sleb128	2
      0004F4 00 00r02rDF           3844 	.dw	0,(Sstm8_hd44780$lcd_bus_read$367)
      0004F8 00 00r02rE4           3845 	.dw	0,(Sstm8_hd44780$lcd_bus_read$368)
      0004FC 00 02                 3846 	.dw	2
      0004FE 78                    3847 	.db	120
      0004FF 05                    3848 	.sleb128	5
      000500 00 00r02rDD           3849 	.dw	0,(Sstm8_hd44780$lcd_bus_read$366)
      000504 00 00r02rDF           3850 	.dw	0,(Sstm8_hd44780$lcd_bus_read$367)
      000508 00 02                 3851 	.dw	2
      00050A 78                    3852 	.db	120
      00050B 04                    3853 	.sleb128	4
      00050C 00 00r02rDB           3854 	.dw	0,(Sstm8_hd44780$lcd_bus_read$365)
      000510 00 00r02rDD           3855 	.dw	0,(Sstm8_hd44780$lcd_bus_read$366)
      000514 00 02                 3856 	.dw	2
      000516 78                    3857 	.db	120
      000517 03                    3858 	.sleb128	3
      000518 00 00r02rCE           3859 	.dw	0,(Sstm8_hd44780$lcd_bus_read$361)
      00051C 00 00r02rDB           3860 	.dw	0,(Sstm8_hd44780$lcd_bus_read$365)
      000520 00 02                 3861 	.dw	2
      000522 78                    3862 	.db	120
      000523 02                    3863 	.sleb128	2
      000524 00 00r02rC9           3864 	.dw	0,(Sstm8_hd44780$lcd_bus_read$360)
      000528 00 00r02rCE           3865 	.dw	0,(Sstm8_hd44780$lcd_bus_read$361)
      00052C 00 02                 3866 	.dw	2
      00052E 78                    3867 	.db	120
      00052F 05                    3868 	.sleb128	5
      000530 00 00r02rC7           3869 	.dw	0,(Sstm8_hd44780$lcd_bus_read$359)
      000534 00 00r02rC9           3870 	.dw	0,(Sstm8_hd44780$lcd_bus_read$360)
      000538 00 02                 3871 	.dw	2
      00053A 78                    3872 	.db	120
      00053B 04                    3873 	.sleb128	4
      00053C 00 00r02rC5           3874 	.dw	0,(Sstm8_hd44780$lcd_bus_read$358)
      000540 00 00r02rC7           3875 	.dw	0,(Sstm8_hd44780$lcd_bus_read$359)
      000544 00 02                 3876 	.dw	2
      000546 78                    3877 	.db	120
      000547 03                    3878 	.sleb128	3
      000548 00 00r02rC1           3879 	.dw	0,(Sstm8_hd44780$lcd_bus_read$355)
      00054C 00 00r02rC5           3880 	.dw	0,(Sstm8_hd44780$lcd_bus_read$358)
      000550 00 02                 3881 	.dw	2
      000552 78                    3882 	.db	120
      000553 02                    3883 	.sleb128	2
      000554 00 00r02rC0           3884 	.dw	0,(Sstm8_hd44780$lcd_bus_read$354)
      000558 00 00r02rC1           3885 	.dw	0,(Sstm8_hd44780$lcd_bus_read$355)
      00055C 00 02                 3886 	.dw	2
      00055E 78                    3887 	.db	120
      00055F 01                    3888 	.sleb128	1
      000560 00 00 00 00           3889 	.dw	0,0
      000564 00 00 00 00           3890 	.dw	0,0
      000568 00 00r02rBF           3891 	.dw	0,(Sstm8_hd44780$lcd_bus_set$348)
      00056C 00 00r02rC0           3892 	.dw	0,(Sstm8_hd44780$lcd_bus_set$352)
      000570 00 02                 3893 	.dw	2
      000572 78                    3894 	.db	120
      000573 01                    3895 	.sleb128	1
      000574 00 00r02rBA           3896 	.dw	0,(Sstm8_hd44780$lcd_bus_set$347)
      000578 00 00r02rBF           3897 	.dw	0,(Sstm8_hd44780$lcd_bus_set$348)
      00057C 00 02                 3898 	.dw	2
      00057E 78                    3899 	.db	120
      00057F 04                    3900 	.sleb128	4
      000580 00 00r02rB8           3901 	.dw	0,(Sstm8_hd44780$lcd_bus_set$346)
      000584 00 00r02rBA           3902 	.dw	0,(Sstm8_hd44780$lcd_bus_set$347)
      000588 00 02                 3903 	.dw	2
      00058A 78                    3904 	.db	120
      00058B 03                    3905 	.sleb128	3
      00058C 00 00r02rB6           3906 	.dw	0,(Sstm8_hd44780$lcd_bus_set$345)
      000590 00 00r02rB8           3907 	.dw	0,(Sstm8_hd44780$lcd_bus_set$346)
      000594 00 02                 3908 	.dw	2
      000596 78                    3909 	.db	120
      000597 02                    3910 	.sleb128	2
      000598 00 00r02rB1           3911 	.dw	0,(Sstm8_hd44780$lcd_bus_set$342)
      00059C 00 00r02rB6           3912 	.dw	0,(Sstm8_hd44780$lcd_bus_set$345)
      0005A0 00 02                 3913 	.dw	2
      0005A2 78                    3914 	.db	120
      0005A3 01                    3915 	.sleb128	1
      0005A4 00 00r02rAC           3916 	.dw	0,(Sstm8_hd44780$lcd_bus_set$341)
      0005A8 00 00r02rB1           3917 	.dw	0,(Sstm8_hd44780$lcd_bus_set$342)
      0005AC 00 02                 3918 	.dw	2
      0005AE 78                    3919 	.db	120
      0005AF 04                    3920 	.sleb128	4
      0005B0 00 00r02rAA           3921 	.dw	0,(Sstm8_hd44780$lcd_bus_set$340)
      0005B4 00 00r02rAC           3922 	.dw	0,(Sstm8_hd44780$lcd_bus_set$341)
      0005B8 00 02                 3923 	.dw	2
      0005BA 78                    3924 	.db	120
      0005BB 03                    3925 	.sleb128	3
      0005BC 00 00r02rA8           3926 	.dw	0,(Sstm8_hd44780$lcd_bus_set$339)
      0005C0 00 00r02rAA           3927 	.dw	0,(Sstm8_hd44780$lcd_bus_set$340)
      0005C4 00 02                 3928 	.dw	2
      0005C6 78                    3929 	.db	120
      0005C7 02                    3930 	.sleb128	2
      0005C8 00 00r02r9D           3931 	.dw	0,(Sstm8_hd44780$lcd_bus_set$335)
      0005CC 00 00r02rA8           3932 	.dw	0,(Sstm8_hd44780$lcd_bus_set$339)
      0005D0 00 02                 3933 	.dw	2
      0005D2 78                    3934 	.db	120
      0005D3 01                    3935 	.sleb128	1
      0005D4 00 00r02r98           3936 	.dw	0,(Sstm8_hd44780$lcd_bus_set$334)
      0005D8 00 00r02r9D           3937 	.dw	0,(Sstm8_hd44780$lcd_bus_set$335)
      0005DC 00 02                 3938 	.dw	2
      0005DE 78                    3939 	.db	120
      0005DF 04                    3940 	.sleb128	4
      0005E0 00 00r02r96           3941 	.dw	0,(Sstm8_hd44780$lcd_bus_set$333)
      0005E4 00 00r02r98           3942 	.dw	0,(Sstm8_hd44780$lcd_bus_set$334)
      0005E8 00 02                 3943 	.dw	2
      0005EA 78                    3944 	.db	120
      0005EB 03                    3945 	.sleb128	3
      0005EC 00 00r02r94           3946 	.dw	0,(Sstm8_hd44780$lcd_bus_set$332)
      0005F0 00 00r02r96           3947 	.dw	0,(Sstm8_hd44780$lcd_bus_set$333)
      0005F4 00 02                 3948 	.dw	2
      0005F6 78                    3949 	.db	120
      0005F7 02                    3950 	.sleb128	2
      0005F8 00 00r02r8F           3951 	.dw	0,(Sstm8_hd44780$lcd_bus_set$329)
      0005FC 00 00r02r94           3952 	.dw	0,(Sstm8_hd44780$lcd_bus_set$332)
      000600 00 02                 3953 	.dw	2
      000602 78                    3954 	.db	120
      000603 01                    3955 	.sleb128	1
      000604 00 00r02r8A           3956 	.dw	0,(Sstm8_hd44780$lcd_bus_set$328)
      000608 00 00r02r8F           3957 	.dw	0,(Sstm8_hd44780$lcd_bus_set$329)
      00060C 00 02                 3958 	.dw	2
      00060E 78                    3959 	.db	120
      00060F 04                    3960 	.sleb128	4
      000610 00 00r02r88           3961 	.dw	0,(Sstm8_hd44780$lcd_bus_set$327)
      000614 00 00r02r8A           3962 	.dw	0,(Sstm8_hd44780$lcd_bus_set$328)
      000618 00 02                 3963 	.dw	2
      00061A 78                    3964 	.db	120
      00061B 03                    3965 	.sleb128	3
      00061C 00 00r02r86           3966 	.dw	0,(Sstm8_hd44780$lcd_bus_set$326)
      000620 00 00r02r88           3967 	.dw	0,(Sstm8_hd44780$lcd_bus_set$327)
      000624 00 02                 3968 	.dw	2
      000626 78                    3969 	.db	120
      000627 02                    3970 	.sleb128	2
      000628 00 00r02r7B           3971 	.dw	0,(Sstm8_hd44780$lcd_bus_set$322)
      00062C 00 00r02r86           3972 	.dw	0,(Sstm8_hd44780$lcd_bus_set$326)
      000630 00 02                 3973 	.dw	2
      000632 78                    3974 	.db	120
      000633 01                    3975 	.sleb128	1
      000634 00 00r02r76           3976 	.dw	0,(Sstm8_hd44780$lcd_bus_set$321)
      000638 00 00r02r7B           3977 	.dw	0,(Sstm8_hd44780$lcd_bus_set$322)
      00063C 00 02                 3978 	.dw	2
      00063E 78                    3979 	.db	120
      00063F 04                    3980 	.sleb128	4
      000640 00 00r02r74           3981 	.dw	0,(Sstm8_hd44780$lcd_bus_set$320)
      000644 00 00r02r76           3982 	.dw	0,(Sstm8_hd44780$lcd_bus_set$321)
      000648 00 02                 3983 	.dw	2
      00064A 78                    3984 	.db	120
      00064B 03                    3985 	.sleb128	3
      00064C 00 00r02r72           3986 	.dw	0,(Sstm8_hd44780$lcd_bus_set$319)
      000650 00 00r02r74           3987 	.dw	0,(Sstm8_hd44780$lcd_bus_set$320)
      000654 00 02                 3988 	.dw	2
      000656 78                    3989 	.db	120
      000657 02                    3990 	.sleb128	2
      000658 00 00r02r6D           3991 	.dw	0,(Sstm8_hd44780$lcd_bus_set$316)
      00065C 00 00r02r72           3992 	.dw	0,(Sstm8_hd44780$lcd_bus_set$319)
      000660 00 02                 3993 	.dw	2
      000662 78                    3994 	.db	120
      000663 01                    3995 	.sleb128	1
      000664 00 00r02r68           3996 	.dw	0,(Sstm8_hd44780$lcd_bus_set$315)
      000668 00 00r02r6D           3997 	.dw	0,(Sstm8_hd44780$lcd_bus_set$316)
      00066C 00 02                 3998 	.dw	2
      00066E 78                    3999 	.db	120
      00066F 04                    4000 	.sleb128	4
      000670 00 00r02r66           4001 	.dw	0,(Sstm8_hd44780$lcd_bus_set$314)
      000674 00 00r02r68           4002 	.dw	0,(Sstm8_hd44780$lcd_bus_set$315)
      000678 00 02                 4003 	.dw	2
      00067A 78                    4004 	.db	120
      00067B 03                    4005 	.sleb128	3
      00067C 00 00r02r64           4006 	.dw	0,(Sstm8_hd44780$lcd_bus_set$313)
      000680 00 00r02r66           4007 	.dw	0,(Sstm8_hd44780$lcd_bus_set$314)
      000684 00 02                 4008 	.dw	2
      000686 78                    4009 	.db	120
      000687 02                    4010 	.sleb128	2
      000688 00 00r02r59           4011 	.dw	0,(Sstm8_hd44780$lcd_bus_set$309)
      00068C 00 00r02r64           4012 	.dw	0,(Sstm8_hd44780$lcd_bus_set$313)
      000690 00 02                 4013 	.dw	2
      000692 78                    4014 	.db	120
      000693 01                    4015 	.sleb128	1
      000694 00 00r02r54           4016 	.dw	0,(Sstm8_hd44780$lcd_bus_set$308)
      000698 00 00r02r59           4017 	.dw	0,(Sstm8_hd44780$lcd_bus_set$309)
      00069C 00 02                 4018 	.dw	2
      00069E 78                    4019 	.db	120
      00069F 04                    4020 	.sleb128	4
      0006A0 00 00r02r52           4021 	.dw	0,(Sstm8_hd44780$lcd_bus_set$307)
      0006A4 00 00r02r54           4022 	.dw	0,(Sstm8_hd44780$lcd_bus_set$308)
      0006A8 00 02                 4023 	.dw	2
      0006AA 78                    4024 	.db	120
      0006AB 03                    4025 	.sleb128	3
      0006AC 00 00r02r50           4026 	.dw	0,(Sstm8_hd44780$lcd_bus_set$306)
      0006B0 00 00r02r52           4027 	.dw	0,(Sstm8_hd44780$lcd_bus_set$307)
      0006B4 00 02                 4028 	.dw	2
      0006B6 78                    4029 	.db	120
      0006B7 02                    4030 	.sleb128	2
      0006B8 00 00r02r4B           4031 	.dw	0,(Sstm8_hd44780$lcd_bus_set$303)
      0006BC 00 00r02r50           4032 	.dw	0,(Sstm8_hd44780$lcd_bus_set$306)
      0006C0 00 02                 4033 	.dw	2
      0006C2 78                    4034 	.db	120
      0006C3 01                    4035 	.sleb128	1
      0006C4 00 00r02r46           4036 	.dw	0,(Sstm8_hd44780$lcd_bus_set$302)
      0006C8 00 00r02r4B           4037 	.dw	0,(Sstm8_hd44780$lcd_bus_set$303)
      0006CC 00 02                 4038 	.dw	2
      0006CE 78                    4039 	.db	120
      0006CF 04                    4040 	.sleb128	4
      0006D0 00 00r02r44           4041 	.dw	0,(Sstm8_hd44780$lcd_bus_set$301)
      0006D4 00 00r02r46           4042 	.dw	0,(Sstm8_hd44780$lcd_bus_set$302)
      0006D8 00 02                 4043 	.dw	2
      0006DA 78                    4044 	.db	120
      0006DB 03                    4045 	.sleb128	3
      0006DC 00 00r02r42           4046 	.dw	0,(Sstm8_hd44780$lcd_bus_set$300)
      0006E0 00 00r02r44           4047 	.dw	0,(Sstm8_hd44780$lcd_bus_set$301)
      0006E4 00 02                 4048 	.dw	2
      0006E6 78                    4049 	.db	120
      0006E7 02                    4050 	.sleb128	2
      0006E8 00 00r02r38           4051 	.dw	0,(Sstm8_hd44780$lcd_bus_set$297)
      0006EC 00 00r02r42           4052 	.dw	0,(Sstm8_hd44780$lcd_bus_set$300)
      0006F0 00 02                 4053 	.dw	2
      0006F2 78                    4054 	.db	120
      0006F3 01                    4055 	.sleb128	1
      0006F4 00 00 00 00           4056 	.dw	0,0
      0006F8 00 00 00 00           4057 	.dw	0,0
      0006FC 00 00r02r37           4058 	.dw	0,(Sstm8_hd44780$lcd_deinit_hw$292)
      000700 00 00r02r38           4059 	.dw	0,(Sstm8_hd44780$lcd_deinit_hw$295)
      000704 00 02                 4060 	.dw	2
      000706 78                    4061 	.db	120
      000707 01                    4062 	.sleb128	1
      000708 00 00r02r32           4063 	.dw	0,(Sstm8_hd44780$lcd_deinit_hw$291)
      00070C 00 00r02r37           4064 	.dw	0,(Sstm8_hd44780$lcd_deinit_hw$292)
      000710 00 02                 4065 	.dw	2
      000712 78                    4066 	.db	120
      000713 05                    4067 	.sleb128	5
      000714 00 00r02r30           4068 	.dw	0,(Sstm8_hd44780$lcd_deinit_hw$290)
      000718 00 00r02r32           4069 	.dw	0,(Sstm8_hd44780$lcd_deinit_hw$291)
      00071C 00 02                 4070 	.dw	2
      00071E 78                    4071 	.db	120
      00071F 04                    4072 	.sleb128	4
      000720 00 00r02r2E           4073 	.dw	0,(Sstm8_hd44780$lcd_deinit_hw$289)
      000724 00 00r02r30           4074 	.dw	0,(Sstm8_hd44780$lcd_deinit_hw$290)
      000728 00 02                 4075 	.dw	2
      00072A 78                    4076 	.db	120
      00072B 03                    4077 	.sleb128	3
      00072C 00 00r02r2C           4078 	.dw	0,(Sstm8_hd44780$lcd_deinit_hw$288)
      000730 00 00r02r2E           4079 	.dw	0,(Sstm8_hd44780$lcd_deinit_hw$289)
      000734 00 02                 4080 	.dw	2
      000736 78                    4081 	.db	120
      000737 02                    4082 	.sleb128	2
      000738 00 00r02r2A           4083 	.dw	0,(Sstm8_hd44780$lcd_deinit_hw$286)
      00073C 00 00r02r2C           4084 	.dw	0,(Sstm8_hd44780$lcd_deinit_hw$288)
      000740 00 02                 4085 	.dw	2
      000742 78                    4086 	.db	120
      000743 01                    4087 	.sleb128	1
      000744 00 00r02r25           4088 	.dw	0,(Sstm8_hd44780$lcd_deinit_hw$285)
      000748 00 00r02r2A           4089 	.dw	0,(Sstm8_hd44780$lcd_deinit_hw$286)
      00074C 00 02                 4090 	.dw	2
      00074E 78                    4091 	.db	120
      00074F 05                    4092 	.sleb128	5
      000750 00 00r02r23           4093 	.dw	0,(Sstm8_hd44780$lcd_deinit_hw$284)
      000754 00 00r02r25           4094 	.dw	0,(Sstm8_hd44780$lcd_deinit_hw$285)
      000758 00 02                 4095 	.dw	2
      00075A 78                    4096 	.db	120
      00075B 04                    4097 	.sleb128	4
      00075C 00 00r02r21           4098 	.dw	0,(Sstm8_hd44780$lcd_deinit_hw$283)
      000760 00 00r02r23           4099 	.dw	0,(Sstm8_hd44780$lcd_deinit_hw$284)
      000764 00 02                 4100 	.dw	2
      000766 78                    4101 	.db	120
      000767 03                    4102 	.sleb128	3
      000768 00 00r02r1F           4103 	.dw	0,(Sstm8_hd44780$lcd_deinit_hw$282)
      00076C 00 00r02r21           4104 	.dw	0,(Sstm8_hd44780$lcd_deinit_hw$283)
      000770 00 02                 4105 	.dw	2
      000772 78                    4106 	.db	120
      000773 02                    4107 	.sleb128	2
      000774 00 00r02r1D           4108 	.dw	0,(Sstm8_hd44780$lcd_deinit_hw$280)
      000778 00 00r02r1F           4109 	.dw	0,(Sstm8_hd44780$lcd_deinit_hw$282)
      00077C 00 02                 4110 	.dw	2
      00077E 78                    4111 	.db	120
      00077F 01                    4112 	.sleb128	1
      000780 00 00r02r18           4113 	.dw	0,(Sstm8_hd44780$lcd_deinit_hw$279)
      000784 00 00r02r1D           4114 	.dw	0,(Sstm8_hd44780$lcd_deinit_hw$280)
      000788 00 02                 4115 	.dw	2
      00078A 78                    4116 	.db	120
      00078B 05                    4117 	.sleb128	5
      00078C 00 00r02r16           4118 	.dw	0,(Sstm8_hd44780$lcd_deinit_hw$278)
      000790 00 00r02r18           4119 	.dw	0,(Sstm8_hd44780$lcd_deinit_hw$279)
      000794 00 02                 4120 	.dw	2
      000796 78                    4121 	.db	120
      000797 04                    4122 	.sleb128	4
      000798 00 00r02r14           4123 	.dw	0,(Sstm8_hd44780$lcd_deinit_hw$277)
      00079C 00 00r02r16           4124 	.dw	0,(Sstm8_hd44780$lcd_deinit_hw$278)
      0007A0 00 02                 4125 	.dw	2
      0007A2 78                    4126 	.db	120
      0007A3 03                    4127 	.sleb128	3
      0007A4 00 00r02r12           4128 	.dw	0,(Sstm8_hd44780$lcd_deinit_hw$276)
      0007A8 00 00r02r14           4129 	.dw	0,(Sstm8_hd44780$lcd_deinit_hw$277)
      0007AC 00 02                 4130 	.dw	2
      0007AE 78                    4131 	.db	120
      0007AF 02                    4132 	.sleb128	2
      0007B0 00 00r02r10           4133 	.dw	0,(Sstm8_hd44780$lcd_deinit_hw$274)
      0007B4 00 00r02r12           4134 	.dw	0,(Sstm8_hd44780$lcd_deinit_hw$276)
      0007B8 00 02                 4135 	.dw	2
      0007BA 78                    4136 	.db	120
      0007BB 01                    4137 	.sleb128	1
      0007BC 00 00r02r0B           4138 	.dw	0,(Sstm8_hd44780$lcd_deinit_hw$273)
      0007C0 00 00r02r10           4139 	.dw	0,(Sstm8_hd44780$lcd_deinit_hw$274)
      0007C4 00 02                 4140 	.dw	2
      0007C6 78                    4141 	.db	120
      0007C7 05                    4142 	.sleb128	5
      0007C8 00 00r02r09           4143 	.dw	0,(Sstm8_hd44780$lcd_deinit_hw$272)
      0007CC 00 00r02r0B           4144 	.dw	0,(Sstm8_hd44780$lcd_deinit_hw$273)
      0007D0 00 02                 4145 	.dw	2
      0007D2 78                    4146 	.db	120
      0007D3 04                    4147 	.sleb128	4
      0007D4 00 00r02r07           4148 	.dw	0,(Sstm8_hd44780$lcd_deinit_hw$271)
      0007D8 00 00r02r09           4149 	.dw	0,(Sstm8_hd44780$lcd_deinit_hw$272)
      0007DC 00 02                 4150 	.dw	2
      0007DE 78                    4151 	.db	120
      0007DF 03                    4152 	.sleb128	3
      0007E0 00 00r02r05           4153 	.dw	0,(Sstm8_hd44780$lcd_deinit_hw$270)
      0007E4 00 00r02r07           4154 	.dw	0,(Sstm8_hd44780$lcd_deinit_hw$271)
      0007E8 00 02                 4155 	.dw	2
      0007EA 78                    4156 	.db	120
      0007EB 02                    4157 	.sleb128	2
      0007EC 00 00r02r03           4158 	.dw	0,(Sstm8_hd44780$lcd_deinit_hw$268)
      0007F0 00 00r02r05           4159 	.dw	0,(Sstm8_hd44780$lcd_deinit_hw$270)
      0007F4 00 02                 4160 	.dw	2
      0007F6 78                    4161 	.db	120
      0007F7 01                    4162 	.sleb128	1
      0007F8 00 00r01rFE           4163 	.dw	0,(Sstm8_hd44780$lcd_deinit_hw$267)
      0007FC 00 00r02r03           4164 	.dw	0,(Sstm8_hd44780$lcd_deinit_hw$268)
      000800 00 02                 4165 	.dw	2
      000802 78                    4166 	.db	120
      000803 05                    4167 	.sleb128	5
      000804 00 00r01rFC           4168 	.dw	0,(Sstm8_hd44780$lcd_deinit_hw$266)
      000808 00 00r01rFE           4169 	.dw	0,(Sstm8_hd44780$lcd_deinit_hw$267)
      00080C 00 02                 4170 	.dw	2
      00080E 78                    4171 	.db	120
      00080F 04                    4172 	.sleb128	4
      000810 00 00r01rFA           4173 	.dw	0,(Sstm8_hd44780$lcd_deinit_hw$265)
      000814 00 00r01rFC           4174 	.dw	0,(Sstm8_hd44780$lcd_deinit_hw$266)
      000818 00 02                 4175 	.dw	2
      00081A 78                    4176 	.db	120
      00081B 03                    4177 	.sleb128	3
      00081C 00 00r01rF8           4178 	.dw	0,(Sstm8_hd44780$lcd_deinit_hw$264)
      000820 00 00r01rFA           4179 	.dw	0,(Sstm8_hd44780$lcd_deinit_hw$265)
      000824 00 02                 4180 	.dw	2
      000826 78                    4181 	.db	120
      000827 02                    4182 	.sleb128	2
      000828 00 00r01rF6           4183 	.dw	0,(Sstm8_hd44780$lcd_deinit_hw$262)
      00082C 00 00r01rF8           4184 	.dw	0,(Sstm8_hd44780$lcd_deinit_hw$264)
      000830 00 02                 4185 	.dw	2
      000832 78                    4186 	.db	120
      000833 01                    4187 	.sleb128	1
      000834 00 00r01rF1           4188 	.dw	0,(Sstm8_hd44780$lcd_deinit_hw$261)
      000838 00 00r01rF6           4189 	.dw	0,(Sstm8_hd44780$lcd_deinit_hw$262)
      00083C 00 02                 4190 	.dw	2
      00083E 78                    4191 	.db	120
      00083F 05                    4192 	.sleb128	5
      000840 00 00r01rEF           4193 	.dw	0,(Sstm8_hd44780$lcd_deinit_hw$260)
      000844 00 00r01rF1           4194 	.dw	0,(Sstm8_hd44780$lcd_deinit_hw$261)
      000848 00 02                 4195 	.dw	2
      00084A 78                    4196 	.db	120
      00084B 04                    4197 	.sleb128	4
      00084C 00 00r01rED           4198 	.dw	0,(Sstm8_hd44780$lcd_deinit_hw$259)
      000850 00 00r01rEF           4199 	.dw	0,(Sstm8_hd44780$lcd_deinit_hw$260)
      000854 00 02                 4200 	.dw	2
      000856 78                    4201 	.db	120
      000857 03                    4202 	.sleb128	3
      000858 00 00r01rEB           4203 	.dw	0,(Sstm8_hd44780$lcd_deinit_hw$258)
      00085C 00 00r01rED           4204 	.dw	0,(Sstm8_hd44780$lcd_deinit_hw$259)
      000860 00 02                 4205 	.dw	2
      000862 78                    4206 	.db	120
      000863 02                    4207 	.sleb128	2
      000864 00 00r01rE9           4208 	.dw	0,(Sstm8_hd44780$lcd_deinit_hw$256)
      000868 00 00r01rEB           4209 	.dw	0,(Sstm8_hd44780$lcd_deinit_hw$258)
      00086C 00 02                 4210 	.dw	2
      00086E 78                    4211 	.db	120
      00086F 01                    4212 	.sleb128	1
      000870 00 00r01rE4           4213 	.dw	0,(Sstm8_hd44780$lcd_deinit_hw$255)
      000874 00 00r01rE9           4214 	.dw	0,(Sstm8_hd44780$lcd_deinit_hw$256)
      000878 00 02                 4215 	.dw	2
      00087A 78                    4216 	.db	120
      00087B 05                    4217 	.sleb128	5
      00087C 00 00r01rE2           4218 	.dw	0,(Sstm8_hd44780$lcd_deinit_hw$254)
      000880 00 00r01rE4           4219 	.dw	0,(Sstm8_hd44780$lcd_deinit_hw$255)
      000884 00 02                 4220 	.dw	2
      000886 78                    4221 	.db	120
      000887 04                    4222 	.sleb128	4
      000888 00 00r01rE0           4223 	.dw	0,(Sstm8_hd44780$lcd_deinit_hw$253)
      00088C 00 00r01rE2           4224 	.dw	0,(Sstm8_hd44780$lcd_deinit_hw$254)
      000890 00 02                 4225 	.dw	2
      000892 78                    4226 	.db	120
      000893 03                    4227 	.sleb128	3
      000894 00 00r01rDE           4228 	.dw	0,(Sstm8_hd44780$lcd_deinit_hw$252)
      000898 00 00r01rE0           4229 	.dw	0,(Sstm8_hd44780$lcd_deinit_hw$253)
      00089C 00 02                 4230 	.dw	2
      00089E 78                    4231 	.db	120
      00089F 02                    4232 	.sleb128	2
      0008A0 00 00r01rDC           4233 	.dw	0,(Sstm8_hd44780$lcd_deinit_hw$250)
      0008A4 00 00r01rDE           4234 	.dw	0,(Sstm8_hd44780$lcd_deinit_hw$252)
      0008A8 00 02                 4235 	.dw	2
      0008AA 78                    4236 	.db	120
      0008AB 01                    4237 	.sleb128	1
      0008AC 00 00 00 00           4238 	.dw	0,0
      0008B0 00 00 00 00           4239 	.dw	0,0
      0008B4 00 00r01rDB           4240 	.dw	0,(Sstm8_hd44780$lcd_bus_inputs$245)
      0008B8 00 00r01rDC           4241 	.dw	0,(Sstm8_hd44780$lcd_bus_inputs$248)
      0008BC 00 02                 4242 	.dw	2
      0008BE 78                    4243 	.db	120
      0008BF 01                    4244 	.sleb128	1
      0008C0 00 00r01rD6           4245 	.dw	0,(Sstm8_hd44780$lcd_bus_inputs$244)
      0008C4 00 00r01rDB           4246 	.dw	0,(Sstm8_hd44780$lcd_bus_inputs$245)
      0008C8 00 02                 4247 	.dw	2
      0008CA 78                    4248 	.db	120
      0008CB 05                    4249 	.sleb128	5
      0008CC 00 00r01rD4           4250 	.dw	0,(Sstm8_hd44780$lcd_bus_inputs$243)
      0008D0 00 00r01rD6           4251 	.dw	0,(Sstm8_hd44780$lcd_bus_inputs$244)
      0008D4 00 02                 4252 	.dw	2
      0008D6 78                    4253 	.db	120
      0008D7 04                    4254 	.sleb128	4
      0008D8 00 00r01rD2           4255 	.dw	0,(Sstm8_hd44780$lcd_bus_inputs$242)
      0008DC 00 00r01rD4           4256 	.dw	0,(Sstm8_hd44780$lcd_bus_inputs$243)
      0008E0 00 02                 4257 	.dw	2
      0008E2 78                    4258 	.db	120
      0008E3 03                    4259 	.sleb128	3
      0008E4 00 00r01rD0           4260 	.dw	0,(Sstm8_hd44780$lcd_bus_inputs$241)
      0008E8 00 00r01rD2           4261 	.dw	0,(Sstm8_hd44780$lcd_bus_inputs$242)
      0008EC 00 02                 4262 	.dw	2
      0008EE 78                    4263 	.db	120
      0008EF 02                    4264 	.sleb128	2
      0008F0 00 00r01rCE           4265 	.dw	0,(Sstm8_hd44780$lcd_bus_inputs$239)
      0008F4 00 00r01rD0           4266 	.dw	0,(Sstm8_hd44780$lcd_bus_inputs$241)
      0008F8 00 02                 4267 	.dw	2
      0008FA 78                    4268 	.db	120
      0008FB 01                    4269 	.sleb128	1
      0008FC 00 00r01rC9           4270 	.dw	0,(Sstm8_hd44780$lcd_bus_inputs$238)
      000900 00 00r01rCE           4271 	.dw	0,(Sstm8_hd44780$lcd_bus_inputs$239)
      000904 00 02                 4272 	.dw	2
      000906 78                    4273 	.db	120
      000907 05                    4274 	.sleb128	5
      000908 00 00r01rC7           4275 	.dw	0,(Sstm8_hd44780$lcd_bus_inputs$237)
      00090C 00 00r01rC9           4276 	.dw	0,(Sstm8_hd44780$lcd_bus_inputs$238)
      000910 00 02                 4277 	.dw	2
      000912 78                    4278 	.db	120
      000913 04                    4279 	.sleb128	4
      000914 00 00r01rC5           4280 	.dw	0,(Sstm8_hd44780$lcd_bus_inputs$236)
      000918 00 00r01rC7           4281 	.dw	0,(Sstm8_hd44780$lcd_bus_inputs$237)
      00091C 00 02                 4282 	.dw	2
      00091E 78                    4283 	.db	120
      00091F 03                    4284 	.sleb128	3
      000920 00 00r01rC3           4285 	.dw	0,(Sstm8_hd44780$lcd_bus_inputs$235)
      000924 00 00r01rC5           4286 	.dw	0,(Sstm8_hd44780$lcd_bus_inputs$236)
      000928 00 02                 4287 	.dw	2
      00092A 78                    4288 	.db	120
      00092B 02                    4289 	.sleb128	2
      00092C 00 00r01rC1           4290 	.dw	0,(Sstm8_hd44780$lcd_bus_inputs$233)
      000930 00 00r01rC3           4291 	.dw	0,(Sstm8_hd44780$lcd_bus_inputs$235)
      000934 00 02                 4292 	.dw	2
      000936 78                    4293 	.db	120
      000937 01                    4294 	.sleb128	1
      000938 00 00r01rBC           4295 	.dw	0,(Sstm8_hd44780$lcd_bus_inputs$232)
      00093C 00 00r01rC1           4296 	.dw	0,(Sstm8_hd44780$lcd_bus_inputs$233)
      000940 00 02                 4297 	.dw	2
      000942 78                    4298 	.db	120
      000943 05                    4299 	.sleb128	5
      000944 00 00r01rBA           4300 	.dw	0,(Sstm8_hd44780$lcd_bus_inputs$231)
      000948 00 00r01rBC           4301 	.dw	0,(Sstm8_hd44780$lcd_bus_inputs$232)
      00094C 00 02                 4302 	.dw	2
      00094E 78                    4303 	.db	120
      00094F 04                    4304 	.sleb128	4
      000950 00 00r01rB8           4305 	.dw	0,(Sstm8_hd44780$lcd_bus_inputs$230)
      000954 00 00r01rBA           4306 	.dw	0,(Sstm8_hd44780$lcd_bus_inputs$231)
      000958 00 02                 4307 	.dw	2
      00095A 78                    4308 	.db	120
      00095B 03                    4309 	.sleb128	3
      00095C 00 00r01rB6           4310 	.dw	0,(Sstm8_hd44780$lcd_bus_inputs$229)
      000960 00 00r01rB8           4311 	.dw	0,(Sstm8_hd44780$lcd_bus_inputs$230)
      000964 00 02                 4312 	.dw	2
      000966 78                    4313 	.db	120
      000967 02                    4314 	.sleb128	2
      000968 00 00r01rB4           4315 	.dw	0,(Sstm8_hd44780$lcd_bus_inputs$227)
      00096C 00 00r01rB6           4316 	.dw	0,(Sstm8_hd44780$lcd_bus_inputs$229)
      000970 00 02                 4317 	.dw	2
      000972 78                    4318 	.db	120
      000973 01                    4319 	.sleb128	1
      000974 00 00r01rAF           4320 	.dw	0,(Sstm8_hd44780$lcd_bus_inputs$226)
      000978 00 00r01rB4           4321 	.dw	0,(Sstm8_hd44780$lcd_bus_inputs$227)
      00097C 00 02                 4322 	.dw	2
      00097E 78                    4323 	.db	120
      00097F 05                    4324 	.sleb128	5
      000980 00 00r01rAD           4325 	.dw	0,(Sstm8_hd44780$lcd_bus_inputs$225)
      000984 00 00r01rAF           4326 	.dw	0,(Sstm8_hd44780$lcd_bus_inputs$226)
      000988 00 02                 4327 	.dw	2
      00098A 78                    4328 	.db	120
      00098B 04                    4329 	.sleb128	4
      00098C 00 00r01rAB           4330 	.dw	0,(Sstm8_hd44780$lcd_bus_inputs$224)
      000990 00 00r01rAD           4331 	.dw	0,(Sstm8_hd44780$lcd_bus_inputs$225)
      000994 00 02                 4332 	.dw	2
      000996 78                    4333 	.db	120
      000997 03                    4334 	.sleb128	3
      000998 00 00r01rA9           4335 	.dw	0,(Sstm8_hd44780$lcd_bus_inputs$223)
      00099C 00 00r01rAB           4336 	.dw	0,(Sstm8_hd44780$lcd_bus_inputs$224)
      0009A0 00 02                 4337 	.dw	2
      0009A2 78                    4338 	.db	120
      0009A3 02                    4339 	.sleb128	2
      0009A4 00 00r01rA7           4340 	.dw	0,(Sstm8_hd44780$lcd_bus_inputs$221)
      0009A8 00 00r01rA9           4341 	.dw	0,(Sstm8_hd44780$lcd_bus_inputs$223)
      0009AC 00 02                 4342 	.dw	2
      0009AE 78                    4343 	.db	120
      0009AF 01                    4344 	.sleb128	1
      0009B0 00 00 00 00           4345 	.dw	0,0
      0009B4 00 00 00 00           4346 	.dw	0,0
      0009B8 00 00r01rA6           4347 	.dw	0,(Sstm8_hd44780$lcd_bus_outputs$216)
      0009BC 00 00r01rA7           4348 	.dw	0,(Sstm8_hd44780$lcd_bus_outputs$219)
      0009C0 00 02                 4349 	.dw	2
      0009C2 78                    4350 	.db	120
      0009C3 01                    4351 	.sleb128	1
      0009C4 00 00r01rA1           4352 	.dw	0,(Sstm8_hd44780$lcd_bus_outputs$215)
      0009C8 00 00r01rA6           4353 	.dw	0,(Sstm8_hd44780$lcd_bus_outputs$216)
      0009CC 00 02                 4354 	.dw	2
      0009CE 78                    4355 	.db	120
      0009CF 05                    4356 	.sleb128	5
      0009D0 00 00r01r9F           4357 	.dw	0,(Sstm8_hd44780$lcd_bus_outputs$214)
      0009D4 00 00r01rA1           4358 	.dw	0,(Sstm8_hd44780$lcd_bus_outputs$215)
      0009D8 00 02                 4359 	.dw	2
      0009DA 78                    4360 	.db	120
      0009DB 04                    4361 	.sleb128	4
      0009DC 00 00r01r9D           4362 	.dw	0,(Sstm8_hd44780$lcd_bus_outputs$213)
      0009E0 00 00r01r9F           4363 	.dw	0,(Sstm8_hd44780$lcd_bus_outputs$214)
      0009E4 00 02                 4364 	.dw	2
      0009E6 78                    4365 	.db	120
      0009E7 03                    4366 	.sleb128	3
      0009E8 00 00r01r9B           4367 	.dw	0,(Sstm8_hd44780$lcd_bus_outputs$212)
      0009EC 00 00r01r9D           4368 	.dw	0,(Sstm8_hd44780$lcd_bus_outputs$213)
      0009F0 00 02                 4369 	.dw	2
      0009F2 78                    4370 	.db	120
      0009F3 02                    4371 	.sleb128	2
      0009F4 00 00r01r99           4372 	.dw	0,(Sstm8_hd44780$lcd_bus_outputs$210)
      0009F8 00 00r01r9B           4373 	.dw	0,(Sstm8_hd44780$lcd_bus_outputs$212)
      0009FC 00 02                 4374 	.dw	2
      0009FE 78                    4375 	.db	120
      0009FF 01                    4376 	.sleb128	1
      000A00 00 00r01r94           4377 	.dw	0,(Sstm8_hd44780$lcd_bus_outputs$209)
      000A04 00 00r01r99           4378 	.dw	0,(Sstm8_hd44780$lcd_bus_outputs$210)
      000A08 00 02                 4379 	.dw	2
      000A0A 78                    4380 	.db	120
      000A0B 05                    4381 	.sleb128	5
      000A0C 00 00r01r92           4382 	.dw	0,(Sstm8_hd44780$lcd_bus_outputs$208)
      000A10 00 00r01r94           4383 	.dw	0,(Sstm8_hd44780$lcd_bus_outputs$209)
      000A14 00 02                 4384 	.dw	2
      000A16 78                    4385 	.db	120
      000A17 04                    4386 	.sleb128	4
      000A18 00 00r01r90           4387 	.dw	0,(Sstm8_hd44780$lcd_bus_outputs$207)
      000A1C 00 00r01r92           4388 	.dw	0,(Sstm8_hd44780$lcd_bus_outputs$208)
      000A20 00 02                 4389 	.dw	2
      000A22 78                    4390 	.db	120
      000A23 03                    4391 	.sleb128	3
      000A24 00 00r01r8E           4392 	.dw	0,(Sstm8_hd44780$lcd_bus_outputs$206)
      000A28 00 00r01r90           4393 	.dw	0,(Sstm8_hd44780$lcd_bus_outputs$207)
      000A2C 00 02                 4394 	.dw	2
      000A2E 78                    4395 	.db	120
      000A2F 02                    4396 	.sleb128	2
      000A30 00 00r01r8C           4397 	.dw	0,(Sstm8_hd44780$lcd_bus_outputs$204)
      000A34 00 00r01r8E           4398 	.dw	0,(Sstm8_hd44780$lcd_bus_outputs$206)
      000A38 00 02                 4399 	.dw	2
      000A3A 78                    4400 	.db	120
      000A3B 01                    4401 	.sleb128	1
      000A3C 00 00r01r87           4402 	.dw	0,(Sstm8_hd44780$lcd_bus_outputs$203)
      000A40 00 00r01r8C           4403 	.dw	0,(Sstm8_hd44780$lcd_bus_outputs$204)
      000A44 00 02                 4404 	.dw	2
      000A46 78                    4405 	.db	120
      000A47 05                    4406 	.sleb128	5
      000A48 00 00r01r85           4407 	.dw	0,(Sstm8_hd44780$lcd_bus_outputs$202)
      000A4C 00 00r01r87           4408 	.dw	0,(Sstm8_hd44780$lcd_bus_outputs$203)
      000A50 00 02                 4409 	.dw	2
      000A52 78                    4410 	.db	120
      000A53 04                    4411 	.sleb128	4
      000A54 00 00r01r83           4412 	.dw	0,(Sstm8_hd44780$lcd_bus_outputs$201)
      000A58 00 00r01r85           4413 	.dw	0,(Sstm8_hd44780$lcd_bus_outputs$202)
      000A5C 00 02                 4414 	.dw	2
      000A5E 78                    4415 	.db	120
      000A5F 03                    4416 	.sleb128	3
      000A60 00 00r01r81           4417 	.dw	0,(Sstm8_hd44780$lcd_bus_outputs$200)
      000A64 00 00r01r83           4418 	.dw	0,(Sstm8_hd44780$lcd_bus_outputs$201)
      000A68 00 02                 4419 	.dw	2
      000A6A 78                    4420 	.db	120
      000A6B 02                    4421 	.sleb128	2
      000A6C 00 00r01r7F           4422 	.dw	0,(Sstm8_hd44780$lcd_bus_outputs$198)
      000A70 00 00r01r81           4423 	.dw	0,(Sstm8_hd44780$lcd_bus_outputs$200)
      000A74 00 02                 4424 	.dw	2
      000A76 78                    4425 	.db	120
      000A77 01                    4426 	.sleb128	1
      000A78 00 00r01r7A           4427 	.dw	0,(Sstm8_hd44780$lcd_bus_outputs$197)
      000A7C 00 00r01r7F           4428 	.dw	0,(Sstm8_hd44780$lcd_bus_outputs$198)
      000A80 00 02                 4429 	.dw	2
      000A82 78                    4430 	.db	120
      000A83 05                    4431 	.sleb128	5
      000A84 00 00r01r78           4432 	.dw	0,(Sstm8_hd44780$lcd_bus_outputs$196)
      000A88 00 00r01r7A           4433 	.dw	0,(Sstm8_hd44780$lcd_bus_outputs$197)
      000A8C 00 02                 4434 	.dw	2
      000A8E 78                    4435 	.db	120
      000A8F 04                    4436 	.sleb128	4
      000A90 00 00r01r76           4437 	.dw	0,(Sstm8_hd44780$lcd_bus_outputs$195)
      000A94 00 00r01r78           4438 	.dw	0,(Sstm8_hd44780$lcd_bus_outputs$196)
      000A98 00 02                 4439 	.dw	2
      000A9A 78                    4440 	.db	120
      000A9B 03                    4441 	.sleb128	3
      000A9C 00 00r01r74           4442 	.dw	0,(Sstm8_hd44780$lcd_bus_outputs$194)
      000AA0 00 00r01r76           4443 	.dw	0,(Sstm8_hd44780$lcd_bus_outputs$195)
      000AA4 00 02                 4444 	.dw	2
      000AA6 78                    4445 	.db	120
      000AA7 02                    4446 	.sleb128	2
      000AA8 00 00r01r72           4447 	.dw	0,(Sstm8_hd44780$lcd_bus_outputs$192)
      000AAC 00 00r01r74           4448 	.dw	0,(Sstm8_hd44780$lcd_bus_outputs$194)
      000AB0 00 02                 4449 	.dw	2
      000AB2 78                    4450 	.db	120
      000AB3 01                    4451 	.sleb128	1
      000AB4 00 00 00 00           4452 	.dw	0,0
      000AB8 00 00 00 00           4453 	.dw	0,0
      000ABC 00 00r01r6E           4454 	.dw	0,(Sstm8_hd44780$lcd_init_hw$186)
      000AC0 00 00r01r72           4455 	.dw	0,(Sstm8_hd44780$lcd_init_hw$190)
      000AC4 00 02                 4456 	.dw	2
      000AC6 78                    4457 	.db	120
      000AC7 01                    4458 	.sleb128	1
      000AC8 00 00r01r69           4459 	.dw	0,(Sstm8_hd44780$lcd_init_hw$185)
      000ACC 00 00r01r6E           4460 	.dw	0,(Sstm8_hd44780$lcd_init_hw$186)
      000AD0 00 02                 4461 	.dw	2
      000AD2 78                    4462 	.db	120
      000AD3 05                    4463 	.sleb128	5
      000AD4 00 00r01r67           4464 	.dw	0,(Sstm8_hd44780$lcd_init_hw$184)
      000AD8 00 00r01r69           4465 	.dw	0,(Sstm8_hd44780$lcd_init_hw$185)
      000ADC 00 02                 4466 	.dw	2
      000ADE 78                    4467 	.db	120
      000ADF 04                    4468 	.sleb128	4
      000AE0 00 00r01r65           4469 	.dw	0,(Sstm8_hd44780$lcd_init_hw$183)
      000AE4 00 00r01r67           4470 	.dw	0,(Sstm8_hd44780$lcd_init_hw$184)
      000AE8 00 02                 4471 	.dw	2
      000AEA 78                    4472 	.db	120
      000AEB 03                    4473 	.sleb128	3
      000AEC 00 00r01r63           4474 	.dw	0,(Sstm8_hd44780$lcd_init_hw$182)
      000AF0 00 00r01r65           4475 	.dw	0,(Sstm8_hd44780$lcd_init_hw$183)
      000AF4 00 02                 4476 	.dw	2
      000AF6 78                    4477 	.db	120
      000AF7 02                    4478 	.sleb128	2
      000AF8 00 00r01r61           4479 	.dw	0,(Sstm8_hd44780$lcd_init_hw$180)
      000AFC 00 00r01r63           4480 	.dw	0,(Sstm8_hd44780$lcd_init_hw$182)
      000B00 00 02                 4481 	.dw	2
      000B02 78                    4482 	.db	120
      000B03 01                    4483 	.sleb128	1
      000B04 00 00r01r5C           4484 	.dw	0,(Sstm8_hd44780$lcd_init_hw$179)
      000B08 00 00r01r61           4485 	.dw	0,(Sstm8_hd44780$lcd_init_hw$180)
      000B0C 00 02                 4486 	.dw	2
      000B0E 78                    4487 	.db	120
      000B0F 05                    4488 	.sleb128	5
      000B10 00 00r01r5A           4489 	.dw	0,(Sstm8_hd44780$lcd_init_hw$178)
      000B14 00 00r01r5C           4490 	.dw	0,(Sstm8_hd44780$lcd_init_hw$179)
      000B18 00 02                 4491 	.dw	2
      000B1A 78                    4492 	.db	120
      000B1B 04                    4493 	.sleb128	4
      000B1C 00 00r01r58           4494 	.dw	0,(Sstm8_hd44780$lcd_init_hw$177)
      000B20 00 00r01r5A           4495 	.dw	0,(Sstm8_hd44780$lcd_init_hw$178)
      000B24 00 02                 4496 	.dw	2
      000B26 78                    4497 	.db	120
      000B27 03                    4498 	.sleb128	3
      000B28 00 00r01r56           4499 	.dw	0,(Sstm8_hd44780$lcd_init_hw$176)
      000B2C 00 00r01r58           4500 	.dw	0,(Sstm8_hd44780$lcd_init_hw$177)
      000B30 00 02                 4501 	.dw	2
      000B32 78                    4502 	.db	120
      000B33 02                    4503 	.sleb128	2
      000B34 00 00r01r54           4504 	.dw	0,(Sstm8_hd44780$lcd_init_hw$174)
      000B38 00 00r01r56           4505 	.dw	0,(Sstm8_hd44780$lcd_init_hw$176)
      000B3C 00 02                 4506 	.dw	2
      000B3E 78                    4507 	.db	120
      000B3F 01                    4508 	.sleb128	1
      000B40 00 00r01r4F           4509 	.dw	0,(Sstm8_hd44780$lcd_init_hw$173)
      000B44 00 00r01r54           4510 	.dw	0,(Sstm8_hd44780$lcd_init_hw$174)
      000B48 00 02                 4511 	.dw	2
      000B4A 78                    4512 	.db	120
      000B4B 05                    4513 	.sleb128	5
      000B4C 00 00r01r4D           4514 	.dw	0,(Sstm8_hd44780$lcd_init_hw$172)
      000B50 00 00r01r4F           4515 	.dw	0,(Sstm8_hd44780$lcd_init_hw$173)
      000B54 00 02                 4516 	.dw	2
      000B56 78                    4517 	.db	120
      000B57 04                    4518 	.sleb128	4
      000B58 00 00r01r4B           4519 	.dw	0,(Sstm8_hd44780$lcd_init_hw$171)
      000B5C 00 00r01r4D           4520 	.dw	0,(Sstm8_hd44780$lcd_init_hw$172)
      000B60 00 02                 4521 	.dw	2
      000B62 78                    4522 	.db	120
      000B63 03                    4523 	.sleb128	3
      000B64 00 00r01r49           4524 	.dw	0,(Sstm8_hd44780$lcd_init_hw$170)
      000B68 00 00r01r4B           4525 	.dw	0,(Sstm8_hd44780$lcd_init_hw$171)
      000B6C 00 02                 4526 	.dw	2
      000B6E 78                    4527 	.db	120
      000B6F 02                    4528 	.sleb128	2
      000B70 00 00r01r47           4529 	.dw	0,(Sstm8_hd44780$lcd_init_hw$168)
      000B74 00 00r01r49           4530 	.dw	0,(Sstm8_hd44780$lcd_init_hw$170)
      000B78 00 02                 4531 	.dw	2
      000B7A 78                    4532 	.db	120
      000B7B 01                    4533 	.sleb128	1
      000B7C 00 00 00 00           4534 	.dw	0,0
      000B80 00 00 00 00           4535 	.dw	0,0
      000B84 00 00r01r46           4536 	.dw	0,(Sstm8_hd44780$lcd_gotoxy$163)
      000B88 00 00r01r47           4537 	.dw	0,(Sstm8_hd44780$lcd_gotoxy$166)
      000B8C 00 02                 4538 	.dw	2
      000B8E 78                    4539 	.db	120
      000B8F 01                    4540 	.sleb128	1
      000B90 00 00r01r42           4541 	.dw	0,(Sstm8_hd44780$lcd_gotoxy$162)
      000B94 00 00r01r46           4542 	.dw	0,(Sstm8_hd44780$lcd_gotoxy$163)
      000B98 00 02                 4543 	.dw	2
      000B9A 78                    4544 	.db	120
      000B9B 02                    4545 	.sleb128	2
      000B9C 00 00r01r39           4546 	.dw	0,(Sstm8_hd44780$lcd_gotoxy$157)
      000BA0 00 00r01r42           4547 	.dw	0,(Sstm8_hd44780$lcd_gotoxy$162)
      000BA4 00 02                 4548 	.dw	2
      000BA6 78                    4549 	.db	120
      000BA7 01                    4550 	.sleb128	1
      000BA8 00 00r01r15           4551 	.dw	0,(Sstm8_hd44780$lcd_gotoxy$148)
      000BAC 00 00r01r39           4552 	.dw	0,(Sstm8_hd44780$lcd_gotoxy$157)
      000BB0 00 02                 4553 	.dw	2
      000BB2 78                    4554 	.db	120
      000BB3 01                    4555 	.sleb128	1
      000BB4 00 00 00 00           4556 	.dw	0,0
      000BB8 00 00 00 00           4557 	.dw	0,0
      000BBC 00 00r01r14           4558 	.dw	0,(Sstm8_hd44780$lcd_init$143)
      000BC0 00 00r01r15           4559 	.dw	0,(Sstm8_hd44780$lcd_init$146)
      000BC4 00 02                 4560 	.dw	2
      000BC6 78                    4561 	.db	120
      000BC7 01                    4562 	.sleb128	1
      000BC8 00 00r01r10           4563 	.dw	0,(Sstm8_hd44780$lcd_init$142)
      000BCC 00 00r01r14           4564 	.dw	0,(Sstm8_hd44780$lcd_init$143)
      000BD0 00 02                 4565 	.dw	2
      000BD2 78                    4566 	.db	120
      000BD3 02                    4567 	.sleb128	2
      000BD4 00 00r01r0E           4568 	.dw	0,(Sstm8_hd44780$lcd_init$140)
      000BD8 00 00r01r10           4569 	.dw	0,(Sstm8_hd44780$lcd_init$142)
      000BDC 00 02                 4570 	.dw	2
      000BDE 78                    4571 	.db	120
      000BDF 01                    4572 	.sleb128	1
      000BE0 00 00r01r0A           4573 	.dw	0,(Sstm8_hd44780$lcd_init$139)
      000BE4 00 00r01r0E           4574 	.dw	0,(Sstm8_hd44780$lcd_init$140)
      000BE8 00 02                 4575 	.dw	2
      000BEA 78                    4576 	.db	120
      000BEB 02                    4577 	.sleb128	2
      000BEC 00 00r01r08           4578 	.dw	0,(Sstm8_hd44780$lcd_init$137)
      000BF0 00 00r01r0A           4579 	.dw	0,(Sstm8_hd44780$lcd_init$139)
      000BF4 00 02                 4580 	.dw	2
      000BF6 78                    4581 	.db	120
      000BF7 01                    4582 	.sleb128	1
      000BF8 00 00r01r04           4583 	.dw	0,(Sstm8_hd44780$lcd_init$136)
      000BFC 00 00r01r08           4584 	.dw	0,(Sstm8_hd44780$lcd_init$137)
      000C00 00 02                 4585 	.dw	2
      000C02 78                    4586 	.db	120
      000C03 02                    4587 	.sleb128	2
      000C04 00 00r01r02           4588 	.dw	0,(Sstm8_hd44780$lcd_init$134)
      000C08 00 00r01r04           4589 	.dw	0,(Sstm8_hd44780$lcd_init$136)
      000C0C 00 02                 4590 	.dw	2
      000C0E 78                    4591 	.db	120
      000C0F 01                    4592 	.sleb128	1
      000C10 00 00r00rFE           4593 	.dw	0,(Sstm8_hd44780$lcd_init$133)
      000C14 00 00r01r02           4594 	.dw	0,(Sstm8_hd44780$lcd_init$134)
      000C18 00 02                 4595 	.dw	2
      000C1A 78                    4596 	.db	120
      000C1B 02                    4597 	.sleb128	2
      000C1C 00 00r00rFC           4598 	.dw	0,(Sstm8_hd44780$lcd_init$131)
      000C20 00 00r00rFE           4599 	.dw	0,(Sstm8_hd44780$lcd_init$133)
      000C24 00 02                 4600 	.dw	2
      000C26 78                    4601 	.db	120
      000C27 01                    4602 	.sleb128	1
      000C28 00 00r00rF8           4603 	.dw	0,(Sstm8_hd44780$lcd_init$130)
      000C2C 00 00r00rFC           4604 	.dw	0,(Sstm8_hd44780$lcd_init$131)
      000C30 00 02                 4605 	.dw	2
      000C32 78                    4606 	.db	120
      000C33 02                    4607 	.sleb128	2
      000C34 00 00r00rF6           4608 	.dw	0,(Sstm8_hd44780$lcd_init$128)
      000C38 00 00r00rF8           4609 	.dw	0,(Sstm8_hd44780$lcd_init$130)
      000C3C 00 02                 4610 	.dw	2
      000C3E 78                    4611 	.db	120
      000C3F 01                    4612 	.sleb128	1
      000C40 00 00r00rF2           4613 	.dw	0,(Sstm8_hd44780$lcd_init$127)
      000C44 00 00r00rF6           4614 	.dw	0,(Sstm8_hd44780$lcd_init$128)
      000C48 00 02                 4615 	.dw	2
      000C4A 78                    4616 	.db	120
      000C4B 02                    4617 	.sleb128	2
      000C4C 00 00r00rE0           4618 	.dw	0,(Sstm8_hd44780$lcd_init$117)
      000C50 00 00r00rF2           4619 	.dw	0,(Sstm8_hd44780$lcd_init$127)
      000C54 00 02                 4620 	.dw	2
      000C56 78                    4621 	.db	120
      000C57 01                    4622 	.sleb128	1
      000C58 00 00r00rDC           4623 	.dw	0,(Sstm8_hd44780$lcd_init$116)
      000C5C 00 00r00rE0           4624 	.dw	0,(Sstm8_hd44780$lcd_init$117)
      000C60 00 02                 4625 	.dw	2
      000C62 78                    4626 	.db	120
      000C63 02                    4627 	.sleb128	2
      000C64 00 00r00rD7           4628 	.dw	0,(Sstm8_hd44780$lcd_init$113)
      000C68 00 00r00rDC           4629 	.dw	0,(Sstm8_hd44780$lcd_init$116)
      000C6C 00 02                 4630 	.dw	2
      000C6E 78                    4631 	.db	120
      000C6F 01                    4632 	.sleb128	1
      000C70 00 00r00rD3           4633 	.dw	0,(Sstm8_hd44780$lcd_init$112)
      000C74 00 00r00rD7           4634 	.dw	0,(Sstm8_hd44780$lcd_init$113)
      000C78 00 02                 4635 	.dw	2
      000C7A 78                    4636 	.db	120
      000C7B 02                    4637 	.sleb128	2
      000C7C 00 00r00rC1           4638 	.dw	0,(Sstm8_hd44780$lcd_init$102)
      000C80 00 00r00rD3           4639 	.dw	0,(Sstm8_hd44780$lcd_init$112)
      000C84 00 02                 4640 	.dw	2
      000C86 78                    4641 	.db	120
      000C87 01                    4642 	.sleb128	1
      000C88 00 00r00rBD           4643 	.dw	0,(Sstm8_hd44780$lcd_init$101)
      000C8C 00 00r00rC1           4644 	.dw	0,(Sstm8_hd44780$lcd_init$102)
      000C90 00 02                 4645 	.dw	2
      000C92 78                    4646 	.db	120
      000C93 02                    4647 	.sleb128	2
      000C94 00 00r00rAB           4648 	.dw	0,(Sstm8_hd44780$lcd_init$91)
      000C98 00 00r00rBD           4649 	.dw	0,(Sstm8_hd44780$lcd_init$101)
      000C9C 00 02                 4650 	.dw	2
      000C9E 78                    4651 	.db	120
      000C9F 01                    4652 	.sleb128	1
      000CA0 00 00r00rA7           4653 	.dw	0,(Sstm8_hd44780$lcd_init$90)
      000CA4 00 00r00rAB           4654 	.dw	0,(Sstm8_hd44780$lcd_init$91)
      000CA8 00 02                 4655 	.dw	2
      000CAA 78                    4656 	.db	120
      000CAB 02                    4657 	.sleb128	2
      000CAC 00 00r00r92           4658 	.dw	0,(Sstm8_hd44780$lcd_init$79)
      000CB0 00 00r00rA7           4659 	.dw	0,(Sstm8_hd44780$lcd_init$90)
      000CB4 00 02                 4660 	.dw	2
      000CB6 78                    4661 	.db	120
      000CB7 01                    4662 	.sleb128	1
      000CB8 00 00 00 00           4663 	.dw	0,0
      000CBC 00 00 00 00           4664 	.dw	0,0
      000CC0 00 00r00r8D           4665 	.dw	0,(Sstm8_hd44780$lcd_puts$72)
      000CC4 00 00r00r92           4666 	.dw	0,(Sstm8_hd44780$lcd_puts$77)
      000CC8 00 02                 4667 	.dw	2
      000CCA 78                    4668 	.db	120
      000CCB 01                    4669 	.sleb128	1
      000CCC 00 00r00r8C           4670 	.dw	0,(Sstm8_hd44780$lcd_puts$71)
      000CD0 00 00r00r8D           4671 	.dw	0,(Sstm8_hd44780$lcd_puts$72)
      000CD4 00 02                 4672 	.dw	2
      000CD6 78                    4673 	.db	120
      000CD7 03                    4674 	.sleb128	3
      000CD8 00 00r00r88           4675 	.dw	0,(Sstm8_hd44780$lcd_puts$70)
      000CDC 00 00r00r8C           4676 	.dw	0,(Sstm8_hd44780$lcd_puts$71)
      000CE0 00 02                 4677 	.dw	2
      000CE2 78                    4678 	.db	120
      000CE3 04                    4679 	.sleb128	4
      000CE4 00 00r00r87           4680 	.dw	0,(Sstm8_hd44780$lcd_puts$69)
      000CE8 00 00r00r88           4681 	.dw	0,(Sstm8_hd44780$lcd_puts$70)
      000CEC 00 02                 4682 	.dw	2
      000CEE 78                    4683 	.db	120
      000CEF 03                    4684 	.sleb128	3
      000CF0 00 00r00r7D           4685 	.dw	0,(Sstm8_hd44780$lcd_puts$65)
      000CF4 00 00r00r87           4686 	.dw	0,(Sstm8_hd44780$lcd_puts$69)
      000CF8 00 02                 4687 	.dw	2
      000CFA 78                    4688 	.db	120
      000CFB 01                    4689 	.sleb128	1
      000CFC 00 00 00 00           4690 	.dw	0,0
      000D00 00 00 00 00           4691 	.dw	0,0
      000D04 00 00r00r7C           4692 	.dw	0,(Sstm8_hd44780$lcd_store_symbol$61)
      000D08 00 00r00r7D           4693 	.dw	0,(Sstm8_hd44780$lcd_store_symbol$63)
      000D0C 00 02                 4694 	.dw	2
      000D0E 78                    4695 	.db	120
      000D0F 01                    4696 	.sleb128	1
      000D10 00 00r00r7B           4697 	.dw	0,(Sstm8_hd44780$lcd_store_symbol$59)
      000D14 00 00r00r7C           4698 	.dw	0,(Sstm8_hd44780$lcd_store_symbol$61)
      000D18 00 02                 4699 	.dw	2
      000D1A 78                    4700 	.db	120
      000D1B 02                    4701 	.sleb128	2
      000D1C 00 00r00r77           4702 	.dw	0,(Sstm8_hd44780$lcd_store_symbol$58)
      000D20 00 00r00r7B           4703 	.dw	0,(Sstm8_hd44780$lcd_store_symbol$59)
      000D24 00 02                 4704 	.dw	2
      000D26 78                    4705 	.db	120
      000D27 03                    4706 	.sleb128	3
      000D28 00 00r00r6A           4707 	.dw	0,(Sstm8_hd44780$lcd_store_symbol$54)
      000D2C 00 00r00r77           4708 	.dw	0,(Sstm8_hd44780$lcd_store_symbol$58)
      000D30 00 02                 4709 	.dw	2
      000D32 78                    4710 	.db	120
      000D33 02                    4711 	.sleb128	2
      000D34 00 00r00r66           4712 	.dw	0,(Sstm8_hd44780$lcd_store_symbol$53)
      000D38 00 00r00r6A           4713 	.dw	0,(Sstm8_hd44780$lcd_store_symbol$54)
      000D3C 00 02                 4714 	.dw	2
      000D3E 78                    4715 	.db	120
      000D3F 03                    4716 	.sleb128	3
      000D40 00 00r00r5B           4717 	.dw	0,(Sstm8_hd44780$lcd_store_symbol$49)
      000D44 00 00r00r66           4718 	.dw	0,(Sstm8_hd44780$lcd_store_symbol$53)
      000D48 00 02                 4719 	.dw	2
      000D4A 78                    4720 	.db	120
      000D4B 02                    4721 	.sleb128	2
      000D4C 00 00r00r57           4722 	.dw	0,(Sstm8_hd44780$lcd_store_symbol$48)
      000D50 00 00r00r5B           4723 	.dw	0,(Sstm8_hd44780$lcd_store_symbol$49)
      000D54 00 02                 4724 	.dw	2
      000D56 78                    4725 	.db	120
      000D57 03                    4726 	.sleb128	3
      000D58 00 00r00r46           4727 	.dw	0,(Sstm8_hd44780$lcd_store_symbol$45)
      000D5C 00 00r00r57           4728 	.dw	0,(Sstm8_hd44780$lcd_store_symbol$48)
      000D60 00 02                 4729 	.dw	2
      000D62 78                    4730 	.db	120
      000D63 02                    4731 	.sleb128	2
      000D64 00 00r00r45           4732 	.dw	0,(Sstm8_hd44780$lcd_store_symbol$44)
      000D68 00 00r00r46           4733 	.dw	0,(Sstm8_hd44780$lcd_store_symbol$45)
      000D6C 00 02                 4734 	.dw	2
      000D6E 78                    4735 	.db	120
      000D6F 01                    4736 	.sleb128	1
      000D70 00 00 00 00           4737 	.dw	0,0
      000D74 00 00 00 00           4738 	.dw	0,0
      000D78 00 00r00r30           4739 	.dw	0,(Sstm8_hd44780$_delay_us$29)
      000D7C 00 00r00r45           4740 	.dw	0,(Sstm8_hd44780$_delay_us$42)
      000D80 00 02                 4741 	.dw	2
      000D82 78                    4742 	.db	120
      000D83 01                    4743 	.sleb128	1
      000D84 00 00r00r2B           4744 	.dw	0,(Sstm8_hd44780$_delay_us$28)
      000D88 00 00r00r30           4745 	.dw	0,(Sstm8_hd44780$_delay_us$29)
      000D8C 00 02                 4746 	.dw	2
      000D8E 78                    4747 	.db	120
      000D8F 09                    4748 	.sleb128	9
      000D90 00 00r00r29           4749 	.dw	0,(Sstm8_hd44780$_delay_us$27)
      000D94 00 00r00r2B           4750 	.dw	0,(Sstm8_hd44780$_delay_us$28)
      000D98 00 02                 4751 	.dw	2
      000D9A 78                    4752 	.db	120
      000D9B 07                    4753 	.sleb128	7
      000D9C 00 00r00r28           4754 	.dw	0,(Sstm8_hd44780$_delay_us$26)
      000DA0 00 00r00r29           4755 	.dw	0,(Sstm8_hd44780$_delay_us$27)
      000DA4 00 02                 4756 	.dw	2
      000DA6 78                    4757 	.db	120
      000DA7 05                    4758 	.sleb128	5
      000DA8 00 00r00r26           4759 	.dw	0,(Sstm8_hd44780$_delay_us$25)
      000DAC 00 00r00r28           4760 	.dw	0,(Sstm8_hd44780$_delay_us$26)
      000DB0 00 02                 4761 	.dw	2
      000DB2 78                    4762 	.db	120
      000DB3 04                    4763 	.sleb128	4
      000DB4 00 00r00r24           4764 	.dw	0,(Sstm8_hd44780$_delay_us$24)
      000DB8 00 00r00r26           4765 	.dw	0,(Sstm8_hd44780$_delay_us$25)
      000DBC 00 02                 4766 	.dw	2
      000DBE 78                    4767 	.db	120
      000DBF 03                    4768 	.sleb128	3
      000DC0 00 00r00r22           4769 	.dw	0,(Sstm8_hd44780$_delay_us$23)
      000DC4 00 00r00r24           4770 	.dw	0,(Sstm8_hd44780$_delay_us$24)
      000DC8 00 02                 4771 	.dw	2
      000DCA 78                    4772 	.db	120
      000DCB 02                    4773 	.sleb128	2
      000DCC 00 00r00r20           4774 	.dw	0,(Sstm8_hd44780$_delay_us$21)
      000DD0 00 00r00r22           4775 	.dw	0,(Sstm8_hd44780$_delay_us$23)
      000DD4 00 02                 4776 	.dw	2
      000DD6 78                    4777 	.db	120
      000DD7 01                    4778 	.sleb128	1
      000DD8 00 00r00r1B           4779 	.dw	0,(Sstm8_hd44780$_delay_us$20)
      000DDC 00 00r00r20           4780 	.dw	0,(Sstm8_hd44780$_delay_us$21)
      000DE0 00 02                 4781 	.dw	2
      000DE2 78                    4782 	.db	120
      000DE3 09                    4783 	.sleb128	9
      000DE4 00 00r00r19           4784 	.dw	0,(Sstm8_hd44780$_delay_us$19)
      000DE8 00 00r00r1B           4785 	.dw	0,(Sstm8_hd44780$_delay_us$20)
      000DEC 00 02                 4786 	.dw	2
      000DEE 78                    4787 	.db	120
      000DEF 08                    4788 	.sleb128	8
      000DF0 00 00r00r17           4789 	.dw	0,(Sstm8_hd44780$_delay_us$18)
      000DF4 00 00r00r19           4790 	.dw	0,(Sstm8_hd44780$_delay_us$19)
      000DF8 00 02                 4791 	.dw	2
      000DFA 78                    4792 	.db	120
      000DFB 07                    4793 	.sleb128	7
      000DFC 00 00r00r15           4794 	.dw	0,(Sstm8_hd44780$_delay_us$17)
      000E00 00 00r00r17           4795 	.dw	0,(Sstm8_hd44780$_delay_us$18)
      000E04 00 02                 4796 	.dw	2
      000E06 78                    4797 	.db	120
      000E07 06                    4798 	.sleb128	6
      000E08 00 00r00r13           4799 	.dw	0,(Sstm8_hd44780$_delay_us$16)
      000E0C 00 00r00r15           4800 	.dw	0,(Sstm8_hd44780$_delay_us$17)
      000E10 00 02                 4801 	.dw	2
      000E12 78                    4802 	.db	120
      000E13 05                    4803 	.sleb128	5
      000E14 00 00r00r12           4804 	.dw	0,(Sstm8_hd44780$_delay_us$15)
      000E18 00 00r00r13           4805 	.dw	0,(Sstm8_hd44780$_delay_us$16)
      000E1C 00 02                 4806 	.dw	2
      000E1E 78                    4807 	.db	120
      000E1F 03                    4808 	.sleb128	3
      000E20 00 00r00r0D           4809 	.dw	0,(Sstm8_hd44780$_delay_us$13)
      000E24 00 00r00r12           4810 	.dw	0,(Sstm8_hd44780$_delay_us$15)
      000E28 00 02                 4811 	.dw	2
      000E2A 78                    4812 	.db	120
      000E2B 01                    4813 	.sleb128	1
      000E2C 00 00 00 00           4814 	.dw	0,0
      000E30 00 00 00 00           4815 	.dw	0,0
      000E34 00 00r00r00           4816 	.dw	0,(Sstm8_hd44780$_delay_cycl$1)
      000E38 00 00r00r0D           4817 	.dw	0,(Sstm8_hd44780$_delay_cycl$11)
      000E3C 00 02                 4818 	.dw	2
      000E3E 78                    4819 	.db	120
      000E3F 01                    4820 	.sleb128	1
      000E40 00 00 00 00           4821 	.dw	0,0
      000E44 00 00 00 00           4822 	.dw	0,0
                                   4823 
                                   4824 	.area .debug_abbrev (NOLOAD)
      000000                       4825 Ldebug_abbrev:
      000000 0B                    4826 	.uleb128	11
      000001 0F                    4827 	.uleb128	15
      000002 00                    4828 	.db	0
      000003 0B                    4829 	.uleb128	11
      000004 0B                    4830 	.uleb128	11
      000005 49                    4831 	.uleb128	73
      000006 13                    4832 	.uleb128	19
      000007 00                    4833 	.uleb128	0
      000008 00                    4834 	.uleb128	0
      000009 0D                    4835 	.uleb128	13
      00000A 0B                    4836 	.uleb128	11
      00000B 01                    4837 	.db	1
      00000C 00                    4838 	.uleb128	0
      00000D 00                    4839 	.uleb128	0
      00000E 10                    4840 	.uleb128	16
      00000F 2E                    4841 	.uleb128	46
      000010 01                    4842 	.db	1
      000011 03                    4843 	.uleb128	3
      000012 08                    4844 	.uleb128	8
      000013 11                    4845 	.uleb128	17
      000014 01                    4846 	.uleb128	1
      000015 12                    4847 	.uleb128	18
      000016 01                    4848 	.uleb128	1
      000017 3F                    4849 	.uleb128	63
      000018 0C                    4850 	.uleb128	12
      000019 40                    4851 	.uleb128	64
      00001A 06                    4852 	.uleb128	6
      00001B 49                    4853 	.uleb128	73
      00001C 13                    4854 	.uleb128	19
      00001D 00                    4855 	.uleb128	0
      00001E 00                    4856 	.uleb128	0
      00001F 03                    4857 	.uleb128	3
      000020 05                    4858 	.uleb128	5
      000021 00                    4859 	.db	0
      000022 02                    4860 	.uleb128	2
      000023 0A                    4861 	.uleb128	10
      000024 03                    4862 	.uleb128	3
      000025 08                    4863 	.uleb128	8
      000026 49                    4864 	.uleb128	73
      000027 13                    4865 	.uleb128	19
      000028 00                    4866 	.uleb128	0
      000029 00                    4867 	.uleb128	0
      00002A 02                    4868 	.uleb128	2
      00002B 2E                    4869 	.uleb128	46
      00002C 01                    4870 	.db	1
      00002D 01                    4871 	.uleb128	1
      00002E 13                    4872 	.uleb128	19
      00002F 03                    4873 	.uleb128	3
      000030 08                    4874 	.uleb128	8
      000031 11                    4875 	.uleb128	17
      000032 01                    4876 	.uleb128	1
      000033 12                    4877 	.uleb128	18
      000034 01                    4878 	.uleb128	1
      000035 3F                    4879 	.uleb128	63
      000036 0C                    4880 	.uleb128	12
      000037 40                    4881 	.uleb128	64
      000038 06                    4882 	.uleb128	6
      000039 00                    4883 	.uleb128	0
      00003A 00                    4884 	.uleb128	0
      00003B 0A                    4885 	.uleb128	10
      00003C 34                    4886 	.uleb128	52
      00003D 00                    4887 	.db	0
      00003E 02                    4888 	.uleb128	2
      00003F 0A                    4889 	.uleb128	10
      000040 03                    4890 	.uleb128	3
      000041 08                    4891 	.uleb128	8
      000042 49                    4892 	.uleb128	73
      000043 13                    4893 	.uleb128	19
      000044 00                    4894 	.uleb128	0
      000045 00                    4895 	.uleb128	0
      000046 0F                    4896 	.uleb128	15
      000047 2E                    4897 	.uleb128	46
      000048 01                    4898 	.db	1
      000049 01                    4899 	.uleb128	1
      00004A 13                    4900 	.uleb128	19
      00004B 03                    4901 	.uleb128	3
      00004C 08                    4902 	.uleb128	8
      00004D 11                    4903 	.uleb128	17
      00004E 01                    4904 	.uleb128	1
      00004F 12                    4905 	.uleb128	18
      000050 01                    4906 	.uleb128	1
      000051 3F                    4907 	.uleb128	63
      000052 0C                    4908 	.uleb128	12
      000053 40                    4909 	.uleb128	64
      000054 06                    4910 	.uleb128	6
      000055 49                    4911 	.uleb128	73
      000056 13                    4912 	.uleb128	19
      000057 00                    4913 	.uleb128	0
      000058 00                    4914 	.uleb128	0
      000059 0C                    4915 	.uleb128	12
      00005A 0B                    4916 	.uleb128	11
      00005B 01                    4917 	.db	1
      00005C 01                    4918 	.uleb128	1
      00005D 13                    4919 	.uleb128	19
      00005E 00                    4920 	.uleb128	0
      00005F 00                    4921 	.uleb128	0
      000060 06                    4922 	.uleb128	6
      000061 26                    4923 	.uleb128	38
      000062 00                    4924 	.db	0
      000063 49                    4925 	.uleb128	73
      000064 13                    4926 	.uleb128	19
      000065 00                    4927 	.uleb128	0
      000066 00                    4928 	.uleb128	0
      000067 01                    4929 	.uleb128	1
      000068 11                    4930 	.uleb128	17
      000069 01                    4931 	.db	1
      00006A 03                    4932 	.uleb128	3
      00006B 08                    4933 	.uleb128	8
      00006C 10                    4934 	.uleb128	16
      00006D 06                    4935 	.uleb128	6
      00006E 13                    4936 	.uleb128	19
      00006F 0B                    4937 	.uleb128	11
      000070 25                    4938 	.uleb128	37
      000071 08                    4939 	.uleb128	8
      000072 00                    4940 	.uleb128	0
      000073 00                    4941 	.uleb128	0
      000074 04                    4942 	.uleb128	4
      000075 0B                    4943 	.uleb128	11
      000076 00                    4944 	.db	0
      000077 11                    4945 	.uleb128	17
      000078 01                    4946 	.uleb128	1
      000079 12                    4947 	.uleb128	18
      00007A 01                    4948 	.uleb128	1
      00007B 00                    4949 	.uleb128	0
      00007C 00                    4950 	.uleb128	0
      00007D 07                    4951 	.uleb128	7
      00007E 0B                    4952 	.uleb128	11
      00007F 01                    4953 	.db	1
      000080 11                    4954 	.uleb128	17
      000081 01                    4955 	.uleb128	1
      000082 12                    4956 	.uleb128	18
      000083 01                    4957 	.uleb128	1
      000084 00                    4958 	.uleb128	0
      000085 00                    4959 	.uleb128	0
      000086 08                    4960 	.uleb128	8
      000087 0B                    4961 	.uleb128	11
      000088 01                    4962 	.db	1
      000089 01                    4963 	.uleb128	1
      00008A 13                    4964 	.uleb128	19
      00008B 11                    4965 	.uleb128	17
      00008C 01                    4966 	.uleb128	1
      00008D 00                    4967 	.uleb128	0
      00008E 00                    4968 	.uleb128	0
      00008F 0E                    4969 	.uleb128	14
      000090 2E                    4970 	.uleb128	46
      000091 00                    4971 	.db	0
      000092 03                    4972 	.uleb128	3
      000093 08                    4973 	.uleb128	8
      000094 11                    4974 	.uleb128	17
      000095 01                    4975 	.uleb128	1
      000096 12                    4976 	.uleb128	18
      000097 01                    4977 	.uleb128	1
      000098 3F                    4978 	.uleb128	63
      000099 0C                    4979 	.uleb128	12
      00009A 40                    4980 	.uleb128	64
      00009B 06                    4981 	.uleb128	6
      00009C 00                    4982 	.uleb128	0
      00009D 00                    4983 	.uleb128	0
      00009E 09                    4984 	.uleb128	9
      00009F 0B                    4985 	.uleb128	11
      0000A0 01                    4986 	.db	1
      0000A1 01                    4987 	.uleb128	1
      0000A2 13                    4988 	.uleb128	19
      0000A3 11                    4989 	.uleb128	17
      0000A4 01                    4990 	.uleb128	1
      0000A5 12                    4991 	.uleb128	18
      0000A6 01                    4992 	.uleb128	1
      0000A7 00                    4993 	.uleb128	0
      0000A8 00                    4994 	.uleb128	0
      0000A9 05                    4995 	.uleb128	5
      0000AA 24                    4996 	.uleb128	36
      0000AB 00                    4997 	.db	0
      0000AC 03                    4998 	.uleb128	3
      0000AD 08                    4999 	.uleb128	8
      0000AE 0B                    5000 	.uleb128	11
      0000AF 0B                    5001 	.uleb128	11
      0000B0 3E                    5002 	.uleb128	62
      0000B1 0B                    5003 	.uleb128	11
      0000B2 00                    5004 	.uleb128	0
      0000B3 00                    5005 	.uleb128	0
      0000B4 00                    5006 	.uleb128	0
                                   5007 
                                   5008 	.area .debug_info (NOLOAD)
      000000 00 00 0A FA           5009 	.dw	0,Ldebug_info_end-Ldebug_info_start
      000004                       5010 Ldebug_info_start:
      000004 00 02                 5011 	.dw	2
      000006 00 00r00r00           5012 	.dw	0,(Ldebug_abbrev)
      00000A 04                    5013 	.db	4
      00000B 01                    5014 	.uleb128	1
      00000C 2E 2F 73 72 63 2F 73  5015 	.ascii "./src/stm8_hd44780.c"
             74 6D 38 5F 68 64 34
             34 37 38 30 2E 63
      000020 00                    5016 	.db	0
      000021 00 00r00r00           5017 	.dw	0,(Ldebug_line_start+-4)
      000025 01                    5018 	.db	1
      000026 53 44 43 43 20 76 65  5019 	.ascii "SDCC version 4.1.0 #12072"
             72 73 69 6F 6E 20 34
             2E 31 2E 30 20 23 31
             32 30 37 32
      00003F 00                    5020 	.db	0
      000040 02                    5021 	.uleb128	2
      000041 00 00 00 78           5022 	.dw	0,120
      000045 5F 64 65 6C 61 79 5F  5023 	.ascii "_delay_cycl"
             63 79 63 6C
      000050 00                    5024 	.db	0
      000051 00 00r00r00           5025 	.dw	0,(__delay_cycl)
      000055 00 00r00r0D           5026 	.dw	0,(XFstm8_hd44780$_delay_cycl$0$0+1)
      000059 00                    5027 	.db	0
      00005A 00 00r0Er34           5028 	.dw	0,(Ldebug_loc_start+3636)
      00005E 03                    5029 	.uleb128	3
      00005F 02                    5030 	.db	2
      000060 91                    5031 	.db	145
      000061 02                    5032 	.sleb128	2
      000062 5F 5F 74 69 63 6B 73  5033 	.ascii "__ticks"
      000069 00                    5034 	.db	0
      00006A 00 00 00 78           5035 	.dw	0,120
      00006E 04                    5036 	.uleb128	4
      00006F 00 00r00r04           5037 	.dw	0,(Sstm8_hd44780$_delay_cycl$4)
      000073 00 00r00r05           5038 	.dw	0,(Sstm8_hd44780$_delay_cycl$6)
      000077 00                    5039 	.uleb128	0
      000078 05                    5040 	.uleb128	5
      000079 75 6E 73 69 67 6E 65  5041 	.ascii "unsigned int"
             64 20 69 6E 74
      000085 00                    5042 	.db	0
      000086 02                    5043 	.db	2
      000087 07                    5044 	.db	7
      000088 02                    5045 	.uleb128	2
      000089 00 00 01 0F           5046 	.dw	0,271
      00008D 5F 64 65 6C 61 79 5F  5047 	.ascii "_delay_us"
             75 73
      000096 00                    5048 	.db	0
      000097 00 00r00r0D           5049 	.dw	0,(__delay_us)
      00009B 00 00r00r45           5050 	.dw	0,(XFstm8_hd44780$_delay_us$0$0+1)
      00009F 00                    5051 	.db	0
      0000A0 00 00r0Dr78           5052 	.dw	0,(Ldebug_loc_start+3448)
      0000A4 06                    5053 	.uleb128	6
      0000A5 00 00 00 78           5054 	.dw	0,120
      0000A9 03                    5055 	.uleb128	3
      0000AA 02                    5056 	.db	2
      0000AB 91                    5057 	.db	145
      0000AC 02                    5058 	.sleb128	2
      0000AD 5F 5F 75 73           5059 	.ascii "__us"
      0000B1 00                    5060 	.db	0
      0000B2 00 00 00 A4           5061 	.dw	0,164
      0000B6 07                    5062 	.uleb128	7
      0000B7 00 00r00r0D           5063 	.dw	0,(Sstm8_hd44780$_delay_us$14)
      0000BB 00 00r00r39           5064 	.dw	0,(Sstm8_hd44780$_delay_us$31)
      0000BF 08                    5065 	.uleb128	8
      0000C0 00 00 00 F4           5066 	.dw	0,244
      0000C4 00 00r00r3A           5067 	.dw	0,(Sstm8_hd44780$_delay_us$32)
      0000C8 09                    5068 	.uleb128	9
      0000C9 00 00 00 DF           5069 	.dw	0,223
      0000CD 00 00r00r3A           5070 	.dw	0,(Sstm8_hd44780$_delay_us$33)
      0000D1 00 00r00r44           5071 	.dw	0,(Sstm8_hd44780$_delay_us$38)
      0000D5 04                    5072 	.uleb128	4
      0000D6 00 00r00r3C           5073 	.dw	0,(Sstm8_hd44780$_delay_us$36)
      0000DA 00 00r00r3D           5074 	.dw	0,(Sstm8_hd44780$_delay_us$37)
      0000DE 00                    5075 	.uleb128	0
      0000DF 0A                    5076 	.uleb128	10
      0000E0 06                    5077 	.db	6
      0000E1 52                    5078 	.db	82
      0000E2 93                    5079 	.db	147
      0000E3 01                    5080 	.uleb128	1
      0000E4 51                    5081 	.db	81
      0000E5 93                    5082 	.db	147
      0000E6 01                    5083 	.uleb128	1
      0000E7 5F 5F 74 69 63 6B 73  5084 	.ascii "__ticks"
      0000EE 00                    5085 	.db	0
      0000EF 00 00 00 78           5086 	.dw	0,120
      0000F3 00                    5087 	.uleb128	0
      0000F4 0A                    5088 	.uleb128	10
      0000F5 06                    5089 	.db	6
      0000F6 52                    5090 	.db	82
      0000F7 93                    5091 	.db	147
      0000F8 01                    5092 	.uleb128	1
      0000F9 51                    5093 	.db	81
      0000FA 93                    5094 	.db	147
      0000FB 01                    5095 	.uleb128	1
      0000FC 5F 5F 31 33 31 30 37  5096 	.ascii "__1310720010"
             32 30 30 31 30
      000108 00                    5097 	.db	0
      000109 00 00 00 78           5098 	.dw	0,120
      00010D 00                    5099 	.uleb128	0
      00010E 00                    5100 	.uleb128	0
      00010F 02                    5101 	.uleb128	2
      000110 00 00 01 68           5102 	.dw	0,360
      000114 6C 63 64 5F 73 74 6F  5103 	.ascii "lcd_store_symbol"
             72 65 5F 73 79 6D 62
             6F 6C
      000124 00                    5104 	.db	0
      000125 00 00r00r45           5105 	.dw	0,(_lcd_store_symbol)
      000129 00 00r00r7D           5106 	.dw	0,(XG$lcd_store_symbol$0$0+1)
      00012D 01                    5107 	.db	1
      00012E 00 00r0Dr04           5108 	.dw	0,(Ldebug_loc_start+3332)
      000132 03                    5109 	.uleb128	3
      000133 02                    5110 	.db	2
      000134 91                    5111 	.db	145
      000135 02                    5112 	.sleb128	2
      000136 70 6F 73              5113 	.ascii "pos"
      000139 00                    5114 	.db	0
      00013A 00 00 01 68           5115 	.dw	0,360
      00013E 0B                    5116 	.uleb128	11
      00013F 02                    5117 	.db	2
      000140 00 00 01 68           5118 	.dw	0,360
      000144 03                    5119 	.uleb128	3
      000145 02                    5120 	.db	2
      000146 91                    5121 	.db	145
      000147 03                    5122 	.sleb128	3
      000148 63 68 61 72 6D 61 70  5123 	.ascii "charmap"
      00014F 00                    5124 	.db	0
      000150 00 00 01 3E           5125 	.dw	0,318
      000154 04                    5126 	.uleb128	4
      000155 00 00r00r5D           5127 	.dw	0,(Sstm8_hd44780$lcd_store_symbol$51)
      000159 00 00r00r6A           5128 	.dw	0,(Sstm8_hd44780$lcd_store_symbol$55)
      00015D 0A                    5129 	.uleb128	10
      00015E 02                    5130 	.db	2
      00015F 91                    5131 	.db	145
      000160 00                    5132 	.sleb128	0
      000161 69                    5133 	.ascii "i"
      000162 00                    5134 	.db	0
      000163 00 00 01 68           5135 	.dw	0,360
      000167 00                    5136 	.uleb128	0
      000168 05                    5137 	.uleb128	5
      000169 75 6E 73 69 67 6E 65  5138 	.ascii "unsigned char"
             64 20 63 68 61 72
      000176 00                    5139 	.db	0
      000177 01                    5140 	.db	1
      000178 08                    5141 	.db	8
      000179 02                    5142 	.uleb128	2
      00017A 00 00 01 AB           5143 	.dw	0,427
      00017E 6C 63 64 5F 70 75 74  5144 	.ascii "lcd_puts"
             73
      000186 00                    5145 	.db	0
      000187 00 00r00r7D           5146 	.dw	0,(_lcd_puts)
      00018B 00 00r00r92           5147 	.dw	0,(XG$lcd_puts$0$0+1)
      00018F 01                    5148 	.db	1
      000190 00 00r0CrC0           5149 	.dw	0,(Ldebug_loc_start+3264)
      000194 03                    5150 	.uleb128	3
      000195 02                    5151 	.db	2
      000196 91                    5152 	.db	145
      000197 02                    5153 	.sleb128	2
      000198 74 65 78 74           5154 	.ascii "text"
      00019C 00                    5155 	.db	0
      00019D 00 00 01 3E           5156 	.dw	0,318
      0001A1 04                    5157 	.uleb128	4
      0001A2 00 00r00r86           5158 	.dw	0,(Sstm8_hd44780$lcd_puts$67)
      0001A6 00 00r00r8E           5159 	.dw	0,(Sstm8_hd44780$lcd_puts$74)
      0001AA 00                    5160 	.uleb128	0
      0001AB 02                    5161 	.uleb128	2
      0001AC 00 00 03 C3           5162 	.dw	0,963
      0001B0 6C 63 64 5F 69 6E 69  5163 	.ascii "lcd_init"
             74
      0001B8 00                    5164 	.db	0
      0001B9 00 00r00r92           5165 	.dw	0,(_lcd_init)
      0001BD 00 00r01r15           5166 	.dw	0,(XG$lcd_init$0$0+1)
      0001C1 01                    5167 	.db	1
      0001C2 00 00r0BrBC           5168 	.dw	0,(Ldebug_loc_start+3004)
      0001C6 0C                    5169 	.uleb128	12
      0001C7 00 00 02 46           5170 	.dw	0,582
      0001CB 0C                    5171 	.uleb128	12
      0001CC 00 00 02 30           5172 	.dw	0,560
      0001D0 0C                    5173 	.uleb128	12
      0001D1 00 00 02 22           5174 	.dw	0,546
      0001D5 0D                    5175 	.uleb128	13
      0001D6 08                    5176 	.uleb128	8
      0001D7 00 00 02 0B           5177 	.dw	0,523
      0001DB 00 00r00r98           5178 	.dw	0,(Sstm8_hd44780$lcd_init$82)
      0001DF 09                    5179 	.uleb128	9
      0001E0 00 00 01 F6           5180 	.dw	0,502
      0001E4 00 00r00r9B           5181 	.dw	0,(Sstm8_hd44780$lcd_init$83)
      0001E8 00 00r00rA5           5182 	.dw	0,(Sstm8_hd44780$lcd_init$88)
      0001EC 04                    5183 	.uleb128	4
      0001ED 00 00r00r9D           5184 	.dw	0,(Sstm8_hd44780$lcd_init$86)
      0001F1 00 00r00r9E           5185 	.dw	0,(Sstm8_hd44780$lcd_init$87)
      0001F5 00                    5186 	.uleb128	0
      0001F6 0A                    5187 	.uleb128	10
      0001F7 06                    5188 	.db	6
      0001F8 52                    5189 	.db	82
      0001F9 93                    5190 	.db	147
      0001FA 01                    5191 	.uleb128	1
      0001FB 51                    5192 	.db	81
      0001FC 93                    5193 	.db	147
      0001FD 01                    5194 	.uleb128	1
      0001FE 5F 5F 74 69 63 6B 73  5195 	.ascii "__ticks"
      000205 00                    5196 	.db	0
      000206 00 00 00 78           5197 	.dw	0,120
      00020A 00                    5198 	.uleb128	0
      00020B 0A                    5199 	.uleb128	10
      00020C 02                    5200 	.db	2
      00020D 91                    5201 	.db	145
      00020E 00                    5202 	.sleb128	0
      00020F 5F 5F 31 33 31 30 37  5203 	.ascii "__1310720010"
             32 30 30 31 30
      00021B 00                    5204 	.db	0
      00021C 00 00 00 78           5205 	.dw	0,120
      000220 00                    5206 	.uleb128	0
      000221 00                    5207 	.uleb128	0
      000222 0A                    5208 	.uleb128	10
      000223 02                    5209 	.db	2
      000224 91                    5210 	.db	145
      000225 00                    5211 	.sleb128	0
      000226 5F 5F 75 73           5212 	.ascii "__us"
      00022A 00                    5213 	.db	0
      00022B 00 00 00 A4           5214 	.dw	0,164
      00022F 00                    5215 	.uleb128	0
      000230 0A                    5216 	.uleb128	10
      000231 02                    5217 	.db	2
      000232 91                    5218 	.db	145
      000233 00                    5219 	.sleb128	0
      000234 5F 5F 31 33 31 30 37  5220 	.ascii "__1310720012"
             32 30 30 31 32
      000240 00                    5221 	.db	0
      000241 00 00 00 A4           5222 	.dw	0,164
      000245 00                    5223 	.uleb128	0
      000246 0C                    5224 	.uleb128	12
      000247 00 00 02 C6           5225 	.dw	0,710
      00024B 0C                    5226 	.uleb128	12
      00024C 00 00 02 B0           5227 	.dw	0,688
      000250 0C                    5228 	.uleb128	12
      000251 00 00 02 A2           5229 	.dw	0,674
      000255 0D                    5230 	.uleb128	13
      000256 08                    5231 	.uleb128	8
      000257 00 00 02 8B           5232 	.dw	0,651
      00025B 00 00r00rAE           5233 	.dw	0,(Sstm8_hd44780$lcd_init$93)
      00025F 09                    5234 	.uleb128	9
      000260 00 00 02 76           5235 	.dw	0,630
      000264 00 00r00rB1           5236 	.dw	0,(Sstm8_hd44780$lcd_init$94)
      000268 00 00r00rBB           5237 	.dw	0,(Sstm8_hd44780$lcd_init$99)
      00026C 04                    5238 	.uleb128	4
      00026D 00 00r00rB3           5239 	.dw	0,(Sstm8_hd44780$lcd_init$97)
      000271 00 00r00rB4           5240 	.dw	0,(Sstm8_hd44780$lcd_init$98)
      000275 00                    5241 	.uleb128	0
      000276 0A                    5242 	.uleb128	10
      000277 06                    5243 	.db	6
      000278 52                    5244 	.db	82
      000279 93                    5245 	.db	147
      00027A 01                    5246 	.uleb128	1
      00027B 51                    5247 	.db	81
      00027C 93                    5248 	.db	147
      00027D 01                    5249 	.uleb128	1
      00027E 5F 5F 74 69 63 6B 73  5250 	.ascii "__ticks"
      000285 00                    5251 	.db	0
      000286 00 00 00 78           5252 	.dw	0,120
      00028A 00                    5253 	.uleb128	0
      00028B 0A                    5254 	.uleb128	10
      00028C 02                    5255 	.db	2
      00028D 91                    5256 	.db	145
      00028E 00                    5257 	.sleb128	0
      00028F 5F 5F 31 33 31 30 37  5258 	.ascii "__1310720010"
             32 30 30 31 30
      00029B 00                    5259 	.db	0
      00029C 00 00 00 78           5260 	.dw	0,120
      0002A0 00                    5261 	.uleb128	0
      0002A1 00                    5262 	.uleb128	0
      0002A2 0A                    5263 	.uleb128	10
      0002A3 02                    5264 	.db	2
      0002A4 91                    5265 	.db	145
      0002A5 00                    5266 	.sleb128	0
      0002A6 5F 5F 75 73           5267 	.ascii "__us"
      0002AA 00                    5268 	.db	0
      0002AB 00 00 00 A4           5269 	.dw	0,164
      0002AF 00                    5270 	.uleb128	0
      0002B0 0A                    5271 	.uleb128	10
      0002B1 02                    5272 	.db	2
      0002B2 91                    5273 	.db	145
      0002B3 00                    5274 	.sleb128	0
      0002B4 5F 5F 31 33 31 30 37  5275 	.ascii "__1310720014"
             32 30 30 31 34
      0002C0 00                    5276 	.db	0
      0002C1 00 00 00 A4           5277 	.dw	0,164
      0002C5 00                    5278 	.uleb128	0
      0002C6 0C                    5279 	.uleb128	12
      0002C7 00 00 03 46           5280 	.dw	0,838
      0002CB 0C                    5281 	.uleb128	12
      0002CC 00 00 03 30           5282 	.dw	0,816
      0002D0 0C                    5283 	.uleb128	12
      0002D1 00 00 03 22           5284 	.dw	0,802
      0002D5 0D                    5285 	.uleb128	13
      0002D6 08                    5286 	.uleb128	8
      0002D7 00 00 03 0B           5287 	.dw	0,779
      0002DB 00 00r00rC4           5288 	.dw	0,(Sstm8_hd44780$lcd_init$104)
      0002DF 09                    5289 	.uleb128	9
      0002E0 00 00 02 F6           5290 	.dw	0,758
      0002E4 00 00r00rC7           5291 	.dw	0,(Sstm8_hd44780$lcd_init$105)
      0002E8 00 00r00rD1           5292 	.dw	0,(Sstm8_hd44780$lcd_init$110)
      0002EC 04                    5293 	.uleb128	4
      0002ED 00 00r00rC9           5294 	.dw	0,(Sstm8_hd44780$lcd_init$108)
      0002F1 00 00r00rCA           5295 	.dw	0,(Sstm8_hd44780$lcd_init$109)
      0002F5 00                    5296 	.uleb128	0
      0002F6 0A                    5297 	.uleb128	10
      0002F7 06                    5298 	.db	6
      0002F8 52                    5299 	.db	82
      0002F9 93                    5300 	.db	147
      0002FA 01                    5301 	.uleb128	1
      0002FB 51                    5302 	.db	81
      0002FC 93                    5303 	.db	147
      0002FD 01                    5304 	.uleb128	1
      0002FE 5F 5F 74 69 63 6B 73  5305 	.ascii "__ticks"
      000305 00                    5306 	.db	0
      000306 00 00 00 78           5307 	.dw	0,120
      00030A 00                    5308 	.uleb128	0
      00030B 0A                    5309 	.uleb128	10
      00030C 02                    5310 	.db	2
      00030D 91                    5311 	.db	145
      00030E 00                    5312 	.sleb128	0
      00030F 5F 5F 31 33 31 30 37  5313 	.ascii "__1310720010"
             32 30 30 31 30
      00031B 00                    5314 	.db	0
      00031C 00 00 00 78           5315 	.dw	0,120
      000320 00                    5316 	.uleb128	0
      000321 00                    5317 	.uleb128	0
      000322 0A                    5318 	.uleb128	10
      000323 02                    5319 	.db	2
      000324 91                    5320 	.db	145
      000325 00                    5321 	.sleb128	0
      000326 5F 5F 75 73           5322 	.ascii "__us"
      00032A 00                    5323 	.db	0
      00032B 00 00 00 A4           5324 	.dw	0,164
      00032F 00                    5325 	.uleb128	0
      000330 0A                    5326 	.uleb128	10
      000331 02                    5327 	.db	2
      000332 91                    5328 	.db	145
      000333 00                    5329 	.sleb128	0
      000334 5F 5F 31 33 31 30 37  5330 	.ascii "__1310720016"
             32 30 30 31 36
      000340 00                    5331 	.db	0
      000341 00 00 00 A4           5332 	.dw	0,164
      000345 00                    5333 	.uleb128	0
      000346 0D                    5334 	.uleb128	13
      000347 0C                    5335 	.uleb128	12
      000348 00 00 03 AC           5336 	.dw	0,940
      00034C 0C                    5337 	.uleb128	12
      00034D 00 00 03 9E           5338 	.dw	0,926
      000351 0D                    5339 	.uleb128	13
      000352 08                    5340 	.uleb128	8
      000353 00 00 03 87           5341 	.dw	0,903
      000357 00 00r00rE3           5342 	.dw	0,(Sstm8_hd44780$lcd_init$119)
      00035B 09                    5343 	.uleb128	9
      00035C 00 00 03 72           5344 	.dw	0,882
      000360 00 00r00rE6           5345 	.dw	0,(Sstm8_hd44780$lcd_init$120)
      000364 00 00r00rF0           5346 	.dw	0,(Sstm8_hd44780$lcd_init$125)
      000368 04                    5347 	.uleb128	4
      000369 00 00r00rE8           5348 	.dw	0,(Sstm8_hd44780$lcd_init$123)
      00036D 00 00r00rE9           5349 	.dw	0,(Sstm8_hd44780$lcd_init$124)
      000371 00                    5350 	.uleb128	0
      000372 0A                    5351 	.uleb128	10
      000373 06                    5352 	.db	6
      000374 52                    5353 	.db	82
      000375 93                    5354 	.db	147
      000376 01                    5355 	.uleb128	1
      000377 51                    5356 	.db	81
      000378 93                    5357 	.db	147
      000379 01                    5358 	.uleb128	1
      00037A 5F 5F 74 69 63 6B 73  5359 	.ascii "__ticks"
      000381 00                    5360 	.db	0
      000382 00 00 00 78           5361 	.dw	0,120
      000386 00                    5362 	.uleb128	0
      000387 0A                    5363 	.uleb128	10
      000388 02                    5364 	.db	2
      000389 91                    5365 	.db	145
      00038A 00                    5366 	.sleb128	0
      00038B 5F 5F 31 33 31 30 37  5367 	.ascii "__1310720010"
             32 30 30 31 30
      000397 00                    5368 	.db	0
      000398 00 00 00 78           5369 	.dw	0,120
      00039C 00                    5370 	.uleb128	0
      00039D 00                    5371 	.uleb128	0
      00039E 0A                    5372 	.uleb128	10
      00039F 02                    5373 	.db	2
      0003A0 91                    5374 	.db	145
      0003A1 00                    5375 	.sleb128	0
      0003A2 5F 5F 75 73           5376 	.ascii "__us"
      0003A6 00                    5377 	.db	0
      0003A7 00 00 00 A4           5378 	.dw	0,164
      0003AB 00                    5379 	.uleb128	0
      0003AC 0A                    5380 	.uleb128	10
      0003AD 02                    5381 	.db	2
      0003AE 91                    5382 	.db	145
      0003AF 00                    5383 	.sleb128	0
      0003B0 5F 5F 31 33 31 30 37  5384 	.ascii "__1310720018"
             32 30 30 31 38
      0003BC 00                    5385 	.db	0
      0003BD 00 00 00 A4           5386 	.dw	0,164
      0003C1 00                    5387 	.uleb128	0
      0003C2 00                    5388 	.uleb128	0
      0003C3 02                    5389 	.uleb128	2
      0003C4 00 00 04 23           5390 	.dw	0,1059
      0003C8 6C 63 64 5F 67 6F 74  5391 	.ascii "lcd_gotoxy"
             6F 78 79
      0003D2 00                    5392 	.db	0
      0003D3 00 00r01r15           5393 	.dw	0,(_lcd_gotoxy)
      0003D7 00 00r01r47           5394 	.dw	0,(XG$lcd_gotoxy$0$0+1)
      0003DB 01                    5395 	.db	1
      0003DC 00 00r0Br84           5396 	.dw	0,(Ldebug_loc_start+2948)
      0003E0 03                    5397 	.uleb128	3
      0003E1 02                    5398 	.db	2
      0003E2 91                    5399 	.db	145
      0003E3 02                    5400 	.sleb128	2
      0003E4 63 6F 6C 75 6D 6E     5401 	.ascii "column"
      0003EA 00                    5402 	.db	0
      0003EB 00 00 01 68           5403 	.dw	0,360
      0003EF 03                    5404 	.uleb128	3
      0003F0 02                    5405 	.db	2
      0003F1 91                    5406 	.db	145
      0003F2 03                    5407 	.sleb128	3
      0003F3 6C 69 6E 65           5408 	.ascii "line"
      0003F7 00                    5409 	.db	0
      0003F8 00 00 01 68           5410 	.dw	0,360
      0003FC 04                    5411 	.uleb128	4
      0003FD 00 00r01r1F           5412 	.dw	0,(Sstm8_hd44780$lcd_gotoxy$151)
      000401 00 00r01r23           5413 	.dw	0,(Sstm8_hd44780$lcd_gotoxy$152)
      000405 04                    5414 	.uleb128	4
      000406 00 00r01r2A           5415 	.dw	0,(Sstm8_hd44780$lcd_gotoxy$154)
      00040A 00 00r01r2B           5416 	.dw	0,(Sstm8_hd44780$lcd_gotoxy$155)
      00040E 04                    5417 	.uleb128	4
      00040F 00 00r01r39           5418 	.dw	0,(Sstm8_hd44780$lcd_gotoxy$158)
      000413 00 00r01r3C           5419 	.dw	0,(Sstm8_hd44780$lcd_gotoxy$159)
      000417 0A                    5420 	.uleb128	10
      000418 01                    5421 	.db	1
      000419 50                    5422 	.db	80
      00041A 74 6D 70              5423 	.ascii "tmp"
      00041D 00                    5424 	.db	0
      00041E 00 00 01 68           5425 	.dw	0,360
      000422 00                    5426 	.uleb128	0
      000423 0E                    5427 	.uleb128	14
      000424 6C 63 64 5F 69 6E 69  5428 	.ascii "lcd_init_hw"
             74 5F 68 77
      00042F 00                    5429 	.db	0
      000430 00 00r01r47           5430 	.dw	0,(_lcd_init_hw)
      000434 00 00r01r72           5431 	.dw	0,(XG$lcd_init_hw$0$0+1)
      000438 01                    5432 	.db	1
      000439 00 00r0ArBC           5433 	.dw	0,(Ldebug_loc_start+2748)
      00043D 0E                    5434 	.uleb128	14
      00043E 6C 63 64 5F 62 75 73  5435 	.ascii "lcd_bus_outputs"
             5F 6F 75 74 70 75 74
             73
      00044D 00                    5436 	.db	0
      00044E 00 00r01r72           5437 	.dw	0,(_lcd_bus_outputs)
      000452 00 00r01rA7           5438 	.dw	0,(XG$lcd_bus_outputs$0$0+1)
      000456 01                    5439 	.db	1
      000457 00 00r09rB8           5440 	.dw	0,(Ldebug_loc_start+2488)
      00045B 0E                    5441 	.uleb128	14
      00045C 6C 63 64 5F 62 75 73  5442 	.ascii "lcd_bus_inputs"
             5F 69 6E 70 75 74 73
      00046A 00                    5443 	.db	0
      00046B 00 00r01rA7           5444 	.dw	0,(_lcd_bus_inputs)
      00046F 00 00r01rDC           5445 	.dw	0,(XG$lcd_bus_inputs$0$0+1)
      000473 01                    5446 	.db	1
      000474 00 00r08rB4           5447 	.dw	0,(Ldebug_loc_start+2228)
      000478 0E                    5448 	.uleb128	14
      000479 6C 63 64 5F 64 65 69  5449 	.ascii "lcd_deinit_hw"
             6E 69 74 5F 68 77
      000486 00                    5450 	.db	0
      000487 00 00r01rDC           5451 	.dw	0,(_lcd_deinit_hw)
      00048B 00 00r02r38           5452 	.dw	0,(XG$lcd_deinit_hw$0$0+1)
      00048F 01                    5453 	.db	1
      000490 00 00r06rFC           5454 	.dw	0,(Ldebug_loc_start+1788)
      000494 02                    5455 	.uleb128	2
      000495 00 00 05 08           5456 	.dw	0,1288
      000499 6C 63 64 5F 62 75 73  5457 	.ascii "lcd_bus_set"
             5F 73 65 74
      0004A4 00                    5458 	.db	0
      0004A5 00 00r02r38           5459 	.dw	0,(_lcd_bus_set)
      0004A9 00 00r02rC0           5460 	.dw	0,(XG$lcd_bus_set$0$0+1)
      0004AD 01                    5461 	.db	1
      0004AE 00 00r05r68           5462 	.dw	0,(Ldebug_loc_start+1384)
      0004B2 03                    5463 	.uleb128	3
      0004B3 02                    5464 	.db	2
      0004B4 91                    5465 	.db	145
      0004B5 02                    5466 	.sleb128	2
      0004B6 64 61 74 61           5467 	.ascii "data"
      0004BA 00                    5468 	.db	0
      0004BB 00 00 01 68           5469 	.dw	0,360
      0004BF 04                    5470 	.uleb128	4
      0004C0 00 00r02r40           5471 	.dw	0,(Sstm8_hd44780$lcd_bus_set$299)
      0004C4 00 00r02r4B           5472 	.dw	0,(Sstm8_hd44780$lcd_bus_set$304)
      0004C8 04                    5473 	.uleb128	4
      0004C9 00 00r02r4E           5474 	.dw	0,(Sstm8_hd44780$lcd_bus_set$305)
      0004CD 00 00r02r59           5475 	.dw	0,(Sstm8_hd44780$lcd_bus_set$310)
      0004D1 04                    5476 	.uleb128	4
      0004D2 00 00r02r62           5477 	.dw	0,(Sstm8_hd44780$lcd_bus_set$312)
      0004D6 00 00r02r6D           5478 	.dw	0,(Sstm8_hd44780$lcd_bus_set$317)
      0004DA 04                    5479 	.uleb128	4
      0004DB 00 00r02r70           5480 	.dw	0,(Sstm8_hd44780$lcd_bus_set$318)
      0004DF 00 00r02r7B           5481 	.dw	0,(Sstm8_hd44780$lcd_bus_set$323)
      0004E3 04                    5482 	.uleb128	4
      0004E4 00 00r02r84           5483 	.dw	0,(Sstm8_hd44780$lcd_bus_set$325)
      0004E8 00 00r02r8F           5484 	.dw	0,(Sstm8_hd44780$lcd_bus_set$330)
      0004EC 04                    5485 	.uleb128	4
      0004ED 00 00r02r92           5486 	.dw	0,(Sstm8_hd44780$lcd_bus_set$331)
      0004F1 00 00r02r9D           5487 	.dw	0,(Sstm8_hd44780$lcd_bus_set$336)
      0004F5 04                    5488 	.uleb128	4
      0004F6 00 00r02rA6           5489 	.dw	0,(Sstm8_hd44780$lcd_bus_set$338)
      0004FA 00 00r02rB1           5490 	.dw	0,(Sstm8_hd44780$lcd_bus_set$343)
      0004FE 04                    5491 	.uleb128	4
      0004FF 00 00r02rB4           5492 	.dw	0,(Sstm8_hd44780$lcd_bus_set$344)
      000503 00 00r02rBF           5493 	.dw	0,(Sstm8_hd44780$lcd_bus_set$349)
      000507 00                    5494 	.uleb128	0
      000508 0F                    5495 	.uleb128	15
      000509 00 00 05 5C           5496 	.dw	0,1372
      00050D 6C 63 64 5F 62 75 73  5497 	.ascii "lcd_bus_read"
             5F 72 65 61 64
      000519 00                    5498 	.db	0
      00051A 00 00r02rC0           5499 	.dw	0,(_lcd_bus_read)
      00051E 00 00r03r23           5500 	.dw	0,(XG$lcd_bus_read$0$0+1)
      000522 01                    5501 	.db	1
      000523 00 00r04r7C           5502 	.dw	0,(Ldebug_loc_start+1148)
      000527 00 00 01 68           5503 	.dw	0,360
      00052B 04                    5504 	.uleb128	4
      00052C 00 00r02rD4           5505 	.dw	0,(Sstm8_hd44780$lcd_bus_read$362)
      000530 00 00r02rD9           5506 	.dw	0,(Sstm8_hd44780$lcd_bus_read$363)
      000534 04                    5507 	.uleb128	4
      000535 00 00r02rEA           5508 	.dw	0,(Sstm8_hd44780$lcd_bus_read$369)
      000539 00 00r02rF0           5509 	.dw	0,(Sstm8_hd44780$lcd_bus_read$370)
      00053D 04                    5510 	.uleb128	4
      00053E 00 00r03r01           5511 	.dw	0,(Sstm8_hd44780$lcd_bus_read$376)
      000542 00 00r03r07           5512 	.dw	0,(Sstm8_hd44780$lcd_bus_read$377)
      000546 04                    5513 	.uleb128	4
      000547 00 00r03r18           5514 	.dw	0,(Sstm8_hd44780$lcd_bus_read$383)
      00054B 00 00r03r1E           5515 	.dw	0,(Sstm8_hd44780$lcd_bus_read$384)
      00054F 0A                    5516 	.uleb128	10
      000550 02                    5517 	.db	2
      000551 91                    5518 	.db	145
      000552 7F                    5519 	.sleb128	-1
      000553 74 6D 70              5520 	.ascii "tmp"
      000556 00                    5521 	.db	0
      000557 00 00 01 68           5522 	.dw	0,360
      00055B 00                    5523 	.uleb128	0
      00055C 02                    5524 	.uleb128	2
      00055D 00 00 06 76           5525 	.dw	0,1654
      000561 6C 63 64 5F 65 5F 74  5526 	.ascii "lcd_e_tick"
             69 63 6B
      00056B 00                    5527 	.db	0
      00056C 00 00r03r23           5528 	.dw	0,(_lcd_e_tick)
      000570 00 00r03r54           5529 	.dw	0,(XG$lcd_e_tick$0$0+1)
      000574 01                    5530 	.db	1
      000575 00 00r04r08           5531 	.dw	0,(Ldebug_loc_start+1032)
      000579 0C                    5532 	.uleb128	12
      00057A 00 00 05 F9           5533 	.dw	0,1529
      00057E 0C                    5534 	.uleb128	12
      00057F 00 00 05 E3           5535 	.dw	0,1507
      000583 0C                    5536 	.uleb128	12
      000584 00 00 05 D5           5537 	.dw	0,1493
      000588 0D                    5538 	.uleb128	13
      000589 08                    5539 	.uleb128	8
      00058A 00 00 05 BE           5540 	.dw	0,1470
      00058E 00 00r03r2E           5541 	.dw	0,(Sstm8_hd44780$lcd_e_tick$397)
      000592 09                    5542 	.uleb128	9
      000593 00 00 05 A9           5543 	.dw	0,1449
      000597 00 00r03r31           5544 	.dw	0,(Sstm8_hd44780$lcd_e_tick$398)
      00059B 00 00r03r3B           5545 	.dw	0,(Sstm8_hd44780$lcd_e_tick$403)
      00059F 04                    5546 	.uleb128	4
      0005A0 00 00r03r33           5547 	.dw	0,(Sstm8_hd44780$lcd_e_tick$401)
      0005A4 00 00r03r34           5548 	.dw	0,(Sstm8_hd44780$lcd_e_tick$402)
      0005A8 00                    5549 	.uleb128	0
      0005A9 0A                    5550 	.uleb128	10
      0005AA 06                    5551 	.db	6
      0005AB 52                    5552 	.db	82
      0005AC 93                    5553 	.db	147
      0005AD 01                    5554 	.uleb128	1
      0005AE 51                    5555 	.db	81
      0005AF 93                    5556 	.db	147
      0005B0 01                    5557 	.uleb128	1
      0005B1 5F 5F 74 69 63 6B 73  5558 	.ascii "__ticks"
      0005B8 00                    5559 	.db	0
      0005B9 00 00 00 78           5560 	.dw	0,120
      0005BD 00                    5561 	.uleb128	0
      0005BE 0A                    5562 	.uleb128	10
      0005BF 02                    5563 	.db	2
      0005C0 91                    5564 	.db	145
      0005C1 00                    5565 	.sleb128	0
      0005C2 5F 5F 31 33 31 30 37  5566 	.ascii "__1310720010"
             32 30 30 31 30
      0005CE 00                    5567 	.db	0
      0005CF 00 00 00 78           5568 	.dw	0,120
      0005D3 00                    5569 	.uleb128	0
      0005D4 00                    5570 	.uleb128	0
      0005D5 0A                    5571 	.uleb128	10
      0005D6 02                    5572 	.db	2
      0005D7 91                    5573 	.db	145
      0005D8 00                    5574 	.sleb128	0
      0005D9 5F 5F 75 73           5575 	.ascii "__us"
      0005DD 00                    5576 	.db	0
      0005DE 00 00 00 A4           5577 	.dw	0,164
      0005E2 00                    5578 	.uleb128	0
      0005E3 0A                    5579 	.uleb128	10
      0005E4 02                    5580 	.db	2
      0005E5 91                    5581 	.db	145
      0005E6 00                    5582 	.sleb128	0
      0005E7 5F 5F 31 33 31 30 37  5583 	.ascii "__1310720020"
             32 30 30 32 30
      0005F3 00                    5584 	.db	0
      0005F4 00 00 00 A4           5585 	.dw	0,164
      0005F8 00                    5586 	.uleb128	0
      0005F9 0D                    5587 	.uleb128	13
      0005FA 0C                    5588 	.uleb128	12
      0005FB 00 00 06 5F           5589 	.dw	0,1631
      0005FF 0C                    5590 	.uleb128	12
      000600 00 00 06 51           5591 	.dw	0,1617
      000604 0D                    5592 	.uleb128	13
      000605 08                    5593 	.uleb128	8
      000606 00 00 06 3A           5594 	.dw	0,1594
      00060A 00 00r03r46           5595 	.dw	0,(Sstm8_hd44780$lcd_e_tick$409)
      00060E 09                    5596 	.uleb128	9
      00060F 00 00 06 25           5597 	.dw	0,1573
      000613 00 00r03r49           5598 	.dw	0,(Sstm8_hd44780$lcd_e_tick$410)
      000617 00 00r03r53           5599 	.dw	0,(Sstm8_hd44780$lcd_e_tick$415)
      00061B 04                    5600 	.uleb128	4
      00061C 00 00r03r4B           5601 	.dw	0,(Sstm8_hd44780$lcd_e_tick$413)
      000620 00 00r03r4C           5602 	.dw	0,(Sstm8_hd44780$lcd_e_tick$414)
      000624 00                    5603 	.uleb128	0
      000625 0A                    5604 	.uleb128	10
      000626 06                    5605 	.db	6
      000627 52                    5606 	.db	82
      000628 93                    5607 	.db	147
      000629 01                    5608 	.uleb128	1
      00062A 51                    5609 	.db	81
      00062B 93                    5610 	.db	147
      00062C 01                    5611 	.uleb128	1
      00062D 5F 5F 74 69 63 6B 73  5612 	.ascii "__ticks"
      000634 00                    5613 	.db	0
      000635 00 00 00 78           5614 	.dw	0,120
      000639 00                    5615 	.uleb128	0
      00063A 0A                    5616 	.uleb128	10
      00063B 02                    5617 	.db	2
      00063C 91                    5618 	.db	145
      00063D 00                    5619 	.sleb128	0
      00063E 5F 5F 31 33 31 30 37  5620 	.ascii "__1310720010"
             32 30 30 31 30
      00064A 00                    5621 	.db	0
      00064B 00 00 00 78           5622 	.dw	0,120
      00064F 00                    5623 	.uleb128	0
      000650 00                    5624 	.uleb128	0
      000651 0A                    5625 	.uleb128	10
      000652 02                    5626 	.db	2
      000653 91                    5627 	.db	145
      000654 00                    5628 	.sleb128	0
      000655 5F 5F 75 73           5629 	.ascii "__us"
      000659 00                    5630 	.db	0
      00065A 00 00 00 A4           5631 	.dw	0,164
      00065E 00                    5632 	.uleb128	0
      00065F 0A                    5633 	.uleb128	10
      000660 02                    5634 	.db	2
      000661 91                    5635 	.db	145
      000662 00                    5636 	.sleb128	0
      000663 5F 5F 31 33 31 30 37  5637 	.ascii "__1310720022"
             32 30 30 32 32
      00066F 00                    5638 	.db	0
      000670 00 00 00 A4           5639 	.dw	0,164
      000674 00                    5640 	.uleb128	0
      000675 00                    5641 	.uleb128	0
      000676 02                    5642 	.uleb128	2
      000677 00 00 07 21           5643 	.dw	0,1825
      00067B 6C 63 64 5F 63 6F 6D  5644 	.ascii "lcd_command"
             6D 61 6E 64
      000686 00                    5645 	.db	0
      000687 00 00r03r54           5646 	.dw	0,(_lcd_command)
      00068B 00 00r03r8B           5647 	.dw	0,(XG$lcd_command$0$0+1)
      00068F 01                    5648 	.db	1
      000690 00 00r03r94           5649 	.dw	0,(Ldebug_loc_start+916)
      000694 03                    5650 	.uleb128	3
      000695 02                    5651 	.db	2
      000696 91                    5652 	.db	145
      000697 02                    5653 	.sleb128	2
      000698 63 6F 6D 6D 61 6E 64  5654 	.ascii "command"
      00069F 00                    5655 	.db	0
      0006A0 00 00 01 68           5656 	.dw	0,360
      0006A4 0D                    5657 	.uleb128	13
      0006A5 0C                    5658 	.uleb128	12
      0006A6 00 00 07 0A           5659 	.dw	0,1802
      0006AA 0C                    5660 	.uleb128	12
      0006AB 00 00 06 FC           5661 	.dw	0,1788
      0006AF 0D                    5662 	.uleb128	13
      0006B0 08                    5663 	.uleb128	8
      0006B1 00 00 06 E5           5664 	.dw	0,1765
      0006B5 00 00r03r5F           5665 	.dw	0,(Sstm8_hd44780$lcd_command$427)
      0006B9 09                    5666 	.uleb128	9
      0006BA 00 00 06 D0           5667 	.dw	0,1744
      0006BE 00 00r03r62           5668 	.dw	0,(Sstm8_hd44780$lcd_command$428)
      0006C2 00 00r03r6C           5669 	.dw	0,(Sstm8_hd44780$lcd_command$433)
      0006C6 04                    5670 	.uleb128	4
      0006C7 00 00r03r64           5671 	.dw	0,(Sstm8_hd44780$lcd_command$431)
      0006CB 00 00r03r65           5672 	.dw	0,(Sstm8_hd44780$lcd_command$432)
      0006CF 00                    5673 	.uleb128	0
      0006D0 0A                    5674 	.uleb128	10
      0006D1 06                    5675 	.db	6
      0006D2 52                    5676 	.db	82
      0006D3 93                    5677 	.db	147
      0006D4 01                    5678 	.uleb128	1
      0006D5 51                    5679 	.db	81
      0006D6 93                    5680 	.db	147
      0006D7 01                    5681 	.uleb128	1
      0006D8 5F 5F 74 69 63 6B 73  5682 	.ascii "__ticks"
      0006DF 00                    5683 	.db	0
      0006E0 00 00 00 78           5684 	.dw	0,120
      0006E4 00                    5685 	.uleb128	0
      0006E5 0A                    5686 	.uleb128	10
      0006E6 02                    5687 	.db	2
      0006E7 91                    5688 	.db	145
      0006E8 00                    5689 	.sleb128	0
      0006E9 5F 5F 31 33 31 30 37  5690 	.ascii "__1310720010"
             32 30 30 31 30
      0006F5 00                    5691 	.db	0
      0006F6 00 00 00 78           5692 	.dw	0,120
      0006FA 00                    5693 	.uleb128	0
      0006FB 00                    5694 	.uleb128	0
      0006FC 0A                    5695 	.uleb128	10
      0006FD 02                    5696 	.db	2
      0006FE 91                    5697 	.db	145
      0006FF 00                    5698 	.sleb128	0
      000700 5F 5F 75 73           5699 	.ascii "__us"
      000704 00                    5700 	.db	0
      000705 00 00 00 A4           5701 	.dw	0,164
      000709 00                    5702 	.uleb128	0
      00070A 0A                    5703 	.uleb128	10
      00070B 02                    5704 	.db	2
      00070C 91                    5705 	.db	145
      00070D 00                    5706 	.sleb128	0
      00070E 5F 5F 31 33 31 30 37  5707 	.ascii "__1310720024"
             32 30 30 32 34
      00071A 00                    5708 	.db	0
      00071B 00 00 00 A4           5709 	.dw	0,164
      00071F 00                    5710 	.uleb128	0
      000720 00                    5711 	.uleb128	0
      000721 02                    5712 	.uleb128	2
      000722 00 00 07 C6           5713 	.dw	0,1990
      000726 6C 63 64 5F 64 61 74  5714 	.ascii "lcd_data"
             61
      00072E 00                    5715 	.db	0
      00072F 00 00r03r8B           5716 	.dw	0,(_lcd_data)
      000733 00 00r03rC2           5717 	.dw	0,(XG$lcd_data$0$0+1)
      000737 01                    5718 	.db	1
      000738 00 00r03r20           5719 	.dw	0,(Ldebug_loc_start+800)
      00073C 03                    5720 	.uleb128	3
      00073D 02                    5721 	.db	2
      00073E 91                    5722 	.db	145
      00073F 02                    5723 	.sleb128	2
      000740 64 61 74 61           5724 	.ascii "data"
      000744 00                    5725 	.db	0
      000745 00 00 01 68           5726 	.dw	0,360
      000749 0D                    5727 	.uleb128	13
      00074A 0C                    5728 	.uleb128	12
      00074B 00 00 07 AF           5729 	.dw	0,1967
      00074F 0C                    5730 	.uleb128	12
      000750 00 00 07 A1           5731 	.dw	0,1953
      000754 0D                    5732 	.uleb128	13
      000755 08                    5733 	.uleb128	8
      000756 00 00 07 8A           5734 	.dw	0,1930
      00075A 00 00r03r96           5735 	.dw	0,(Sstm8_hd44780$lcd_data$453)
      00075E 09                    5736 	.uleb128	9
      00075F 00 00 07 75           5737 	.dw	0,1909
      000763 00 00r03r99           5738 	.dw	0,(Sstm8_hd44780$lcd_data$454)
      000767 00 00r03rA3           5739 	.dw	0,(Sstm8_hd44780$lcd_data$459)
      00076B 04                    5740 	.uleb128	4
      00076C 00 00r03r9B           5741 	.dw	0,(Sstm8_hd44780$lcd_data$457)
      000770 00 00r03r9C           5742 	.dw	0,(Sstm8_hd44780$lcd_data$458)
      000774 00                    5743 	.uleb128	0
      000775 0A                    5744 	.uleb128	10
      000776 06                    5745 	.db	6
      000777 52                    5746 	.db	82
      000778 93                    5747 	.db	147
      000779 01                    5748 	.uleb128	1
      00077A 51                    5749 	.db	81
      00077B 93                    5750 	.db	147
      00077C 01                    5751 	.uleb128	1
      00077D 5F 5F 74 69 63 6B 73  5752 	.ascii "__ticks"
      000784 00                    5753 	.db	0
      000785 00 00 00 78           5754 	.dw	0,120
      000789 00                    5755 	.uleb128	0
      00078A 0A                    5756 	.uleb128	10
      00078B 02                    5757 	.db	2
      00078C 91                    5758 	.db	145
      00078D 00                    5759 	.sleb128	0
      00078E 5F 5F 31 33 31 30 37  5760 	.ascii "__1310720010"
             32 30 30 31 30
      00079A 00                    5761 	.db	0
      00079B 00 00 00 78           5762 	.dw	0,120
      00079F 00                    5763 	.uleb128	0
      0007A0 00                    5764 	.uleb128	0
      0007A1 0A                    5765 	.uleb128	10
      0007A2 02                    5766 	.db	2
      0007A3 91                    5767 	.db	145
      0007A4 00                    5768 	.sleb128	0
      0007A5 5F 5F 75 73           5769 	.ascii "__us"
      0007A9 00                    5770 	.db	0
      0007AA 00 00 00 A4           5771 	.dw	0,164
      0007AE 00                    5772 	.uleb128	0
      0007AF 0A                    5773 	.uleb128	10
      0007B0 02                    5774 	.db	2
      0007B1 91                    5775 	.db	145
      0007B2 00                    5776 	.sleb128	0
      0007B3 5F 5F 31 33 31 30 37  5777 	.ascii "__1310720026"
             32 30 30 32 36
      0007BF 00                    5778 	.db	0
      0007C0 00 00 00 A4           5779 	.dw	0,164
      0007C4 00                    5780 	.uleb128	0
      0007C5 00                    5781 	.uleb128	0
      0007C6 0F                    5782 	.uleb128	15
      0007C7 00 00 0A 72           5783 	.dw	0,2674
      0007CB 6C 63 64 5F 72 65 61  5784 	.ascii "lcd_read"
             64
      0007D3 00                    5785 	.db	0
      0007D4 00 00r03rC2           5786 	.dw	0,(_lcd_read)
      0007D8 00 00r04r6B           5787 	.dw	0,(XG$lcd_read$0$0+1)
      0007DC 01                    5788 	.db	1
      0007DD 00 00r01rA4           5789 	.dw	0,(Ldebug_loc_start+420)
      0007E1 00 00 01 68           5790 	.dw	0,360
      0007E5 0C                    5791 	.uleb128	12
      0007E6 00 00 08 65           5792 	.dw	0,2149
      0007EA 0C                    5793 	.uleb128	12
      0007EB 00 00 08 4F           5794 	.dw	0,2127
      0007EF 0C                    5795 	.uleb128	12
      0007F0 00 00 08 41           5796 	.dw	0,2113
      0007F4 0D                    5797 	.uleb128	13
      0007F5 08                    5798 	.uleb128	8
      0007F6 00 00 08 2A           5799 	.dw	0,2090
      0007FA 00 00r03rDC           5800 	.dw	0,(Sstm8_hd44780$lcd_read$486)
      0007FE 09                    5801 	.uleb128	9
      0007FF 00 00 08 15           5802 	.dw	0,2069
      000803 00 00r03rDF           5803 	.dw	0,(Sstm8_hd44780$lcd_read$487)
      000807 00 00r03rE9           5804 	.dw	0,(Sstm8_hd44780$lcd_read$492)
      00080B 04                    5805 	.uleb128	4
      00080C 00 00r03rE1           5806 	.dw	0,(Sstm8_hd44780$lcd_read$490)
      000810 00 00r03rE2           5807 	.dw	0,(Sstm8_hd44780$lcd_read$491)
      000814 00                    5808 	.uleb128	0
      000815 0A                    5809 	.uleb128	10
      000816 06                    5810 	.db	6
      000817 52                    5811 	.db	82
      000818 93                    5812 	.db	147
      000819 01                    5813 	.uleb128	1
      00081A 51                    5814 	.db	81
      00081B 93                    5815 	.db	147
      00081C 01                    5816 	.uleb128	1
      00081D 5F 5F 74 69 63 6B 73  5817 	.ascii "__ticks"
      000824 00                    5818 	.db	0
      000825 00 00 00 78           5819 	.dw	0,120
      000829 00                    5820 	.uleb128	0
      00082A 0A                    5821 	.uleb128	10
      00082B 02                    5822 	.db	2
      00082C 91                    5823 	.db	145
      00082D 00                    5824 	.sleb128	0
      00082E 5F 5F 31 33 31 30 37  5825 	.ascii "__1310720010"
             32 30 30 31 30
      00083A 00                    5826 	.db	0
      00083B 00 00 00 78           5827 	.dw	0,120
      00083F 00                    5828 	.uleb128	0
      000840 00                    5829 	.uleb128	0
      000841 0A                    5830 	.uleb128	10
      000842 02                    5831 	.db	2
      000843 91                    5832 	.db	145
      000844 00                    5833 	.sleb128	0
      000845 5F 5F 75 73           5834 	.ascii "__us"
      000849 00                    5835 	.db	0
      00084A 00 00 00 A4           5836 	.dw	0,164
      00084E 00                    5837 	.uleb128	0
      00084F 0A                    5838 	.uleb128	10
      000850 02                    5839 	.db	2
      000851 91                    5840 	.db	145
      000852 00                    5841 	.sleb128	0
      000853 5F 5F 31 33 31 30 37  5842 	.ascii "__1310720028"
             32 30 30 32 38
      00085F 00                    5843 	.db	0
      000860 00 00 00 A4           5844 	.dw	0,164
      000864 00                    5845 	.uleb128	0
      000865 0C                    5846 	.uleb128	12
      000866 00 00 08 E5           5847 	.dw	0,2277
      00086A 0C                    5848 	.uleb128	12
      00086B 00 00 08 CF           5849 	.dw	0,2255
      00086F 0C                    5850 	.uleb128	12
      000870 00 00 08 C1           5851 	.dw	0,2241
      000874 0D                    5852 	.uleb128	13
      000875 08                    5853 	.uleb128	8
      000876 00 00 08 AA           5854 	.dw	0,2218
      00087A 00 00r03rF4           5855 	.dw	0,(Sstm8_hd44780$lcd_read$498)
      00087E 09                    5856 	.uleb128	9
      00087F 00 00 08 95           5857 	.dw	0,2197
      000883 00 00r03rF7           5858 	.dw	0,(Sstm8_hd44780$lcd_read$499)
      000887 00 00r04r01           5859 	.dw	0,(Sstm8_hd44780$lcd_read$504)
      00088B 04                    5860 	.uleb128	4
      00088C 00 00r03rF9           5861 	.dw	0,(Sstm8_hd44780$lcd_read$502)
      000890 00 00r03rFA           5862 	.dw	0,(Sstm8_hd44780$lcd_read$503)
      000894 00                    5863 	.uleb128	0
      000895 0A                    5864 	.uleb128	10
      000896 06                    5865 	.db	6
      000897 52                    5866 	.db	82
      000898 93                    5867 	.db	147
      000899 01                    5868 	.uleb128	1
      00089A 51                    5869 	.db	81
      00089B 93                    5870 	.db	147
      00089C 01                    5871 	.uleb128	1
      00089D 5F 5F 74 69 63 6B 73  5872 	.ascii "__ticks"
      0008A4 00                    5873 	.db	0
      0008A5 00 00 00 78           5874 	.dw	0,120
      0008A9 00                    5875 	.uleb128	0
      0008AA 0A                    5876 	.uleb128	10
      0008AB 02                    5877 	.db	2
      0008AC 91                    5878 	.db	145
      0008AD 00                    5879 	.sleb128	0
      0008AE 5F 5F 31 33 31 30 37  5880 	.ascii "__1310720010"
             32 30 30 31 30
      0008BA 00                    5881 	.db	0
      0008BB 00 00 00 78           5882 	.dw	0,120
      0008BF 00                    5883 	.uleb128	0
      0008C0 00                    5884 	.uleb128	0
      0008C1 0A                    5885 	.uleb128	10
      0008C2 02                    5886 	.db	2
      0008C3 91                    5887 	.db	145
      0008C4 00                    5888 	.sleb128	0
      0008C5 5F 5F 75 73           5889 	.ascii "__us"
      0008C9 00                    5890 	.db	0
      0008CA 00 00 00 A4           5891 	.dw	0,164
      0008CE 00                    5892 	.uleb128	0
      0008CF 0A                    5893 	.uleb128	10
      0008D0 02                    5894 	.db	2
      0008D1 91                    5895 	.db	145
      0008D2 00                    5896 	.sleb128	0
      0008D3 5F 5F 31 33 31 30 37  5897 	.ascii "__1310720030"
             32 30 30 33 30
      0008DF 00                    5898 	.db	0
      0008E0 00 00 00 A4           5899 	.dw	0,164
      0008E4 00                    5900 	.uleb128	0
      0008E5 0C                    5901 	.uleb128	12
      0008E6 00 00 09 65           5902 	.dw	0,2405
      0008EA 0C                    5903 	.uleb128	12
      0008EB 00 00 09 4F           5904 	.dw	0,2383
      0008EF 0C                    5905 	.uleb128	12
      0008F0 00 00 09 41           5906 	.dw	0,2369
      0008F4 0D                    5907 	.uleb128	13
      0008F5 08                    5908 	.uleb128	8
      0008F6 00 00 09 2A           5909 	.dw	0,2346
      0008FA 00 00r04r14           5910 	.dw	0,(Sstm8_hd44780$lcd_read$511)
      0008FE 09                    5911 	.uleb128	9
      0008FF 00 00 09 15           5912 	.dw	0,2325
      000903 00 00r04r17           5913 	.dw	0,(Sstm8_hd44780$lcd_read$512)
      000907 00 00r04r21           5914 	.dw	0,(Sstm8_hd44780$lcd_read$517)
      00090B 04                    5915 	.uleb128	4
      00090C 00 00r04r19           5916 	.dw	0,(Sstm8_hd44780$lcd_read$515)
      000910 00 00r04r1A           5917 	.dw	0,(Sstm8_hd44780$lcd_read$516)
      000914 00                    5918 	.uleb128	0
      000915 0A                    5919 	.uleb128	10
      000916 06                    5920 	.db	6
      000917 52                    5921 	.db	82
      000918 93                    5922 	.db	147
      000919 01                    5923 	.uleb128	1
      00091A 51                    5924 	.db	81
      00091B 93                    5925 	.db	147
      00091C 01                    5926 	.uleb128	1
      00091D 5F 5F 74 69 63 6B 73  5927 	.ascii "__ticks"
      000924 00                    5928 	.db	0
      000925 00 00 00 78           5929 	.dw	0,120
      000929 00                    5930 	.uleb128	0
      00092A 0A                    5931 	.uleb128	10
      00092B 02                    5932 	.db	2
      00092C 91                    5933 	.db	145
      00092D 00                    5934 	.sleb128	0
      00092E 5F 5F 31 33 31 30 37  5935 	.ascii "__1310720010"
             32 30 30 31 30
      00093A 00                    5936 	.db	0
      00093B 00 00 00 78           5937 	.dw	0,120
      00093F 00                    5938 	.uleb128	0
      000940 00                    5939 	.uleb128	0
      000941 0A                    5940 	.uleb128	10
      000942 02                    5941 	.db	2
      000943 91                    5942 	.db	145
      000944 00                    5943 	.sleb128	0
      000945 5F 5F 75 73           5944 	.ascii "__us"
      000949 00                    5945 	.db	0
      00094A 00 00 00 A4           5946 	.dw	0,164
      00094E 00                    5947 	.uleb128	0
      00094F 0A                    5948 	.uleb128	10
      000950 02                    5949 	.db	2
      000951 91                    5950 	.db	145
      000952 00                    5951 	.sleb128	0
      000953 5F 5F 31 33 31 30 37  5952 	.ascii "__1310720032"
             32 30 30 33 32
      00095F 00                    5953 	.db	0
      000960 00 00 00 A4           5954 	.dw	0,164
      000964 00                    5955 	.uleb128	0
      000965 0C                    5956 	.uleb128	12
      000966 00 00 09 E5           5957 	.dw	0,2533
      00096A 0C                    5958 	.uleb128	12
      00096B 00 00 09 CF           5959 	.dw	0,2511
      00096F 0C                    5960 	.uleb128	12
      000970 00 00 09 C1           5961 	.dw	0,2497
      000974 0D                    5962 	.uleb128	13
      000975 08                    5963 	.uleb128	8
      000976 00 00 09 AA           5964 	.dw	0,2474
      00097A 00 00r04r2C           5965 	.dw	0,(Sstm8_hd44780$lcd_read$523)
      00097E 09                    5966 	.uleb128	9
      00097F 00 00 09 95           5967 	.dw	0,2453
      000983 00 00r04r2F           5968 	.dw	0,(Sstm8_hd44780$lcd_read$524)
      000987 00 00r04r39           5969 	.dw	0,(Sstm8_hd44780$lcd_read$529)
      00098B 04                    5970 	.uleb128	4
      00098C 00 00r04r31           5971 	.dw	0,(Sstm8_hd44780$lcd_read$527)
      000990 00 00r04r32           5972 	.dw	0,(Sstm8_hd44780$lcd_read$528)
      000994 00                    5973 	.uleb128	0
      000995 0A                    5974 	.uleb128	10
      000996 06                    5975 	.db	6
      000997 52                    5976 	.db	82
      000998 93                    5977 	.db	147
      000999 01                    5978 	.uleb128	1
      00099A 51                    5979 	.db	81
      00099B 93                    5980 	.db	147
      00099C 01                    5981 	.uleb128	1
      00099D 5F 5F 74 69 63 6B 73  5982 	.ascii "__ticks"
      0009A4 00                    5983 	.db	0
      0009A5 00 00 00 78           5984 	.dw	0,120
      0009A9 00                    5985 	.uleb128	0
      0009AA 0A                    5986 	.uleb128	10
      0009AB 02                    5987 	.db	2
      0009AC 91                    5988 	.db	145
      0009AD 00                    5989 	.sleb128	0
      0009AE 5F 5F 31 33 31 30 37  5990 	.ascii "__1310720010"
             32 30 30 31 30
      0009BA 00                    5991 	.db	0
      0009BB 00 00 00 78           5992 	.dw	0,120
      0009BF 00                    5993 	.uleb128	0
      0009C0 00                    5994 	.uleb128	0
      0009C1 0A                    5995 	.uleb128	10
      0009C2 02                    5996 	.db	2
      0009C3 91                    5997 	.db	145
      0009C4 00                    5998 	.sleb128	0
      0009C5 5F 5F 75 73           5999 	.ascii "__us"
      0009C9 00                    6000 	.db	0
      0009CA 00 00 00 A4           6001 	.dw	0,164
      0009CE 00                    6002 	.uleb128	0
      0009CF 0A                    6003 	.uleb128	10
      0009D0 02                    6004 	.db	2
      0009D1 91                    6005 	.db	145
      0009D2 00                    6006 	.sleb128	0
      0009D3 5F 5F 31 33 31 30 37  6007 	.ascii "__1310720034"
             32 30 30 33 34
      0009DF 00                    6008 	.db	0
      0009E0 00 00 00 A4           6009 	.dw	0,164
      0009E4 00                    6010 	.uleb128	0
      0009E5 0C                    6011 	.uleb128	12
      0009E6 00 00 0A 65           6012 	.dw	0,2661
      0009EA 0C                    6013 	.uleb128	12
      0009EB 00 00 0A 4F           6014 	.dw	0,2639
      0009EF 0C                    6015 	.uleb128	12
      0009F0 00 00 0A 41           6016 	.dw	0,2625
      0009F4 0D                    6017 	.uleb128	13
      0009F5 08                    6018 	.uleb128	8
      0009F6 00 00 0A 2A           6019 	.dw	0,2602
      0009FA 00 00r04r4B           6020 	.dw	0,(Sstm8_hd44780$lcd_read$536)
      0009FE 09                    6021 	.uleb128	9
      0009FF 00 00 0A 15           6022 	.dw	0,2581
      000A03 00 00r04r4E           6023 	.dw	0,(Sstm8_hd44780$lcd_read$537)
      000A07 00 00r04r58           6024 	.dw	0,(Sstm8_hd44780$lcd_read$542)
      000A0B 04                    6025 	.uleb128	4
      000A0C 00 00r04r50           6026 	.dw	0,(Sstm8_hd44780$lcd_read$540)
      000A10 00 00r04r51           6027 	.dw	0,(Sstm8_hd44780$lcd_read$541)
      000A14 00                    6028 	.uleb128	0
      000A15 0A                    6029 	.uleb128	10
      000A16 06                    6030 	.db	6
      000A17 52                    6031 	.db	82
      000A18 93                    6032 	.db	147
      000A19 01                    6033 	.uleb128	1
      000A1A 51                    6034 	.db	81
      000A1B 93                    6035 	.db	147
      000A1C 01                    6036 	.uleb128	1
      000A1D 5F 5F 74 69 63 6B 73  6037 	.ascii "__ticks"
      000A24 00                    6038 	.db	0
      000A25 00 00 00 78           6039 	.dw	0,120
      000A29 00                    6040 	.uleb128	0
      000A2A 0A                    6041 	.uleb128	10
      000A2B 02                    6042 	.db	2
      000A2C 91                    6043 	.db	145
      000A2D 00                    6044 	.sleb128	0
      000A2E 5F 5F 31 33 31 30 37  6045 	.ascii "__1310720010"
             32 30 30 31 30
      000A3A 00                    6046 	.db	0
      000A3B 00 00 00 78           6047 	.dw	0,120
      000A3F 00                    6048 	.uleb128	0
      000A40 00                    6049 	.uleb128	0
      000A41 0A                    6050 	.uleb128	10
      000A42 02                    6051 	.db	2
      000A43 91                    6052 	.db	145
      000A44 00                    6053 	.sleb128	0
      000A45 5F 5F 75 73           6054 	.ascii "__us"
      000A49 00                    6055 	.db	0
      000A4A 00 00 00 A4           6056 	.dw	0,164
      000A4E 00                    6057 	.uleb128	0
      000A4F 0A                    6058 	.uleb128	10
      000A50 02                    6059 	.db	2
      000A51 91                    6060 	.db	145
      000A52 00                    6061 	.sleb128	0
      000A53 5F 5F 31 33 31 30 37  6062 	.ascii "__1310720036"
             32 30 30 33 36
      000A5F 00                    6063 	.db	0
      000A60 00 00 00 A4           6064 	.dw	0,164
      000A64 00                    6065 	.uleb128	0
      000A65 0A                    6066 	.uleb128	10
      000A66 02                    6067 	.db	2
      000A67 91                    6068 	.db	145
      000A68 7F                    6069 	.sleb128	-1
      000A69 74 6D 70              6070 	.ascii "tmp"
      000A6C 00                    6071 	.db	0
      000A6D 00 00 01 68           6072 	.dw	0,360
      000A71 00                    6073 	.uleb128	0
      000A72 0E                    6074 	.uleb128	14
      000A73 6C 63 64 5F 62 75 73  6075 	.ascii "lcd_bus_sleep"
             5F 73 6C 65 65 70
      000A80 00                    6076 	.db	0
      000A81 00 00r04r6B           6077 	.dw	0,(_lcd_bus_sleep)
      000A85 00 00r04r85           6078 	.dw	0,(XG$lcd_bus_sleep$0$0+1)
      000A89 01                    6079 	.db	1
      000A8A 00 00r01r30           6080 	.dw	0,(Ldebug_loc_start+304)
      000A8E 0E                    6081 	.uleb128	14
      000A8F 6C 63 64 5F 62 75 73  6082 	.ascii "lcd_bus_wakeup"
             5F 77 61 6B 65 75 70
      000A9D 00                    6083 	.db	0
      000A9E 00 00r04r85           6084 	.dw	0,(_lcd_bus_wakeup)
      000AA2 00 00r04rC0           6085 	.dw	0,(XG$lcd_bus_wakeup$0$0+1)
      000AA6 01                    6086 	.db	1
      000AA7 00 00r00r2C           6087 	.dw	0,(Ldebug_loc_start+44)
      000AAB 10                    6088 	.uleb128	16
      000AAC 6C 63 64 5F 62 75 73  6089 	.ascii "lcd_busy_wait"
             79 5F 77 61 69 74
      000AB9 00                    6090 	.db	0
      000ABA 00 00r04rC0           6091 	.dw	0,(_lcd_busy_wait)
      000ABE 00 00r04rE5           6092 	.dw	0,(XG$lcd_busy_wait$0$0+1)
      000AC2 01                    6093 	.db	1
      000AC3 00 00r00r00           6094 	.dw	0,(Ldebug_loc_start)
      000AC7 00 00 01 68           6095 	.dw	0,360
      000ACB 04                    6096 	.uleb128	4
      000ACC 00 00r04rD4           6097 	.dw	0,(Sstm8_hd44780$lcd_busy_wait$607)
      000AD0 00 00r04rD5           6098 	.dw	0,(Sstm8_hd44780$lcd_busy_wait$609)
      000AD4 04                    6099 	.uleb128	4
      000AD5 00 00r04rDE           6100 	.dw	0,(Sstm8_hd44780$lcd_busy_wait$611)
      000AD9 00 00r04rE3           6101 	.dw	0,(Sstm8_hd44780$lcd_busy_wait$612)
      000ADD 04                    6102 	.uleb128	4
      000ADE 00 00r04rE3           6103 	.dw	0,(Sstm8_hd44780$lcd_busy_wait$613)
      000AE2 00 00r04rE4           6104 	.dw	0,(Sstm8_hd44780$lcd_busy_wait$615)
      000AE6 0A                    6105 	.uleb128	10
      000AE7 06                    6106 	.db	6
      000AE8 52                    6107 	.db	82
      000AE9 93                    6108 	.db	147
      000AEA 01                    6109 	.uleb128	1
      000AEB 51                    6110 	.db	81
      000AEC 93                    6111 	.db	147
      000AED 01                    6112 	.uleb128	1
      000AEE 74 69 6D 65 6F 75 74  6113 	.ascii "timeout"
      000AF5 00                    6114 	.db	0
      000AF6 00 00 00 78           6115 	.dw	0,120
      000AFA 00                    6116 	.uleb128	0
      000AFB 00                    6117 	.uleb128	0
      000AFC 00                    6118 	.uleb128	0
      000AFD 00                    6119 	.uleb128	0
      000AFE                       6120 Ldebug_info_end:
                                   6121 
                                   6122 	.area .debug_pubnames (NOLOAD)
      000000 00 00 01 26           6123 	.dw	0,Ldebug_pubnames_end-Ldebug_pubnames_start
      000004                       6124 Ldebug_pubnames_start:
      000004 00 02                 6125 	.dw	2
      000006 00 00r00r00           6126 	.dw	0,(Ldebug_info_start-4)
      00000A 00 00 0A FE           6127 	.dw	0,4+Ldebug_info_end-Ldebug_info_start
      00000E 00 00 01 0F           6128 	.dw	0,271
      000012 6C 63 64 5F 73 74 6F  6129 	.ascii "lcd_store_symbol"
             72 65 5F 73 79 6D 62
             6F 6C
      000022 00                    6130 	.db	0
      000023 00 00 01 79           6131 	.dw	0,377
      000027 6C 63 64 5F 70 75 74  6132 	.ascii "lcd_puts"
             73
      00002F 00                    6133 	.db	0
      000030 00 00 01 AB           6134 	.dw	0,427
      000034 6C 63 64 5F 69 6E 69  6135 	.ascii "lcd_init"
             74
      00003C 00                    6136 	.db	0
      00003D 00 00 03 C3           6137 	.dw	0,963
      000041 6C 63 64 5F 67 6F 74  6138 	.ascii "lcd_gotoxy"
             6F 78 79
      00004B 00                    6139 	.db	0
      00004C 00 00 04 23           6140 	.dw	0,1059
      000050 6C 63 64 5F 69 6E 69  6141 	.ascii "lcd_init_hw"
             74 5F 68 77
      00005B 00                    6142 	.db	0
      00005C 00 00 04 3D           6143 	.dw	0,1085
      000060 6C 63 64 5F 62 75 73  6144 	.ascii "lcd_bus_outputs"
             5F 6F 75 74 70 75 74
             73
      00006F 00                    6145 	.db	0
      000070 00 00 04 5B           6146 	.dw	0,1115
      000074 6C 63 64 5F 62 75 73  6147 	.ascii "lcd_bus_inputs"
             5F 69 6E 70 75 74 73
      000082 00                    6148 	.db	0
      000083 00 00 04 78           6149 	.dw	0,1144
      000087 6C 63 64 5F 64 65 69  6150 	.ascii "lcd_deinit_hw"
             6E 69 74 5F 68 77
      000094 00                    6151 	.db	0
      000095 00 00 04 94           6152 	.dw	0,1172
      000099 6C 63 64 5F 62 75 73  6153 	.ascii "lcd_bus_set"
             5F 73 65 74
      0000A4 00                    6154 	.db	0
      0000A5 00 00 05 08           6155 	.dw	0,1288
      0000A9 6C 63 64 5F 62 75 73  6156 	.ascii "lcd_bus_read"
             5F 72 65 61 64
      0000B5 00                    6157 	.db	0
      0000B6 00 00 05 5C           6158 	.dw	0,1372
      0000BA 6C 63 64 5F 65 5F 74  6159 	.ascii "lcd_e_tick"
             69 63 6B
      0000C4 00                    6160 	.db	0
      0000C5 00 00 06 76           6161 	.dw	0,1654
      0000C9 6C 63 64 5F 63 6F 6D  6162 	.ascii "lcd_command"
             6D 61 6E 64
      0000D4 00                    6163 	.db	0
      0000D5 00 00 07 21           6164 	.dw	0,1825
      0000D9 6C 63 64 5F 64 61 74  6165 	.ascii "lcd_data"
             61
      0000E1 00                    6166 	.db	0
      0000E2 00 00 07 C6           6167 	.dw	0,1990
      0000E6 6C 63 64 5F 72 65 61  6168 	.ascii "lcd_read"
             64
      0000EE 00                    6169 	.db	0
      0000EF 00 00 0A 72           6170 	.dw	0,2674
      0000F3 6C 63 64 5F 62 75 73  6171 	.ascii "lcd_bus_sleep"
             5F 73 6C 65 65 70
      000100 00                    6172 	.db	0
      000101 00 00 0A 8E           6173 	.dw	0,2702
      000105 6C 63 64 5F 62 75 73  6174 	.ascii "lcd_bus_wakeup"
             5F 77 61 6B 65 75 70
      000113 00                    6175 	.db	0
      000114 00 00 0A AB           6176 	.dw	0,2731
      000118 6C 63 64 5F 62 75 73  6177 	.ascii "lcd_busy_wait"
             79 5F 77 61 69 74
      000125 00                    6178 	.db	0
      000126 00 00 00 00           6179 	.dw	0,0
      00012A                       6180 Ldebug_pubnames_end:
                                   6181 
                                   6182 	.area .debug_frame (NOLOAD)
      000000 00 00                 6183 	.dw	0
      000002 00 0E                 6184 	.dw	Ldebug_CIE0_end-Ldebug_CIE0_start
      000004                       6185 Ldebug_CIE0_start:
      000004 FF FF                 6186 	.dw	0xffff
      000006 FF FF                 6187 	.dw	0xffff
      000008 01                    6188 	.db	1
      000009 00                    6189 	.db	0
      00000A 01                    6190 	.uleb128	1
      00000B 7F                    6191 	.sleb128	-1
      00000C 09                    6192 	.db	9
      00000D 0C                    6193 	.db	12
      00000E 08                    6194 	.uleb128	8
      00000F 02                    6195 	.uleb128	2
      000010 89                    6196 	.db	137
      000011 01                    6197 	.uleb128	1
      000012                       6198 Ldebug_CIE0_end:
      000012 00 00 00 21           6199 	.dw	0,33
      000016 00 00r00r00           6200 	.dw	0,(Ldebug_CIE0_start-4)
      00001A 00 00r04rC0           6201 	.dw	0,(Sstm8_hd44780$lcd_busy_wait$602)	;initial loc
      00001E 00 00 00 25           6202 	.dw	0,Sstm8_hd44780$lcd_busy_wait$618-Sstm8_hd44780$lcd_busy_wait$602
      000022 01                    6203 	.db	1
      000023 00 00r04rC0           6204 	.dw	0,(Sstm8_hd44780$lcd_busy_wait$602)
      000027 0E                    6205 	.db	14
      000028 02                    6206 	.uleb128	2
      000029 01                    6207 	.db	1
      00002A 00 00r04rCA           6208 	.dw	0,(Sstm8_hd44780$lcd_busy_wait$605)
      00002E 0E                    6209 	.db	14
      00002F 04                    6210 	.uleb128	4
      000030 01                    6211 	.db	1
      000031 00 00r04rCE           6212 	.dw	0,(Sstm8_hd44780$lcd_busy_wait$606)
      000035 0E                    6213 	.db	14
      000036 02                    6214 	.uleb128	2
                                   6215 
                                   6216 	.area .debug_frame (NOLOAD)
      000037 00 00                 6217 	.dw	0
      000039 00 0E                 6218 	.dw	Ldebug_CIE1_end-Ldebug_CIE1_start
      00003B                       6219 Ldebug_CIE1_start:
      00003B FF FF                 6220 	.dw	0xffff
      00003D FF FF                 6221 	.dw	0xffff
      00003F 01                    6222 	.db	1
      000040 00                    6223 	.db	0
      000041 01                    6224 	.uleb128	1
      000042 7F                    6225 	.sleb128	-1
      000043 09                    6226 	.db	9
      000044 0C                    6227 	.db	12
      000045 08                    6228 	.uleb128	8
      000046 02                    6229 	.uleb128	2
      000047 89                    6230 	.db	137
      000048 01                    6231 	.uleb128	1
      000049                       6232 Ldebug_CIE1_end:
      000049 00 00 00 9F           6233 	.dw	0,159
      00004D 00 00r00r37           6234 	.dw	0,(Ldebug_CIE1_start-4)
      000051 00 00r04r85           6235 	.dw	0,(Sstm8_hd44780$lcd_bus_wakeup$571)	;initial loc
      000055 00 00 00 3B           6236 	.dw	0,Sstm8_hd44780$lcd_bus_wakeup$600-Sstm8_hd44780$lcd_bus_wakeup$571
      000059 01                    6237 	.db	1
      00005A 00 00r04r85           6238 	.dw	0,(Sstm8_hd44780$lcd_bus_wakeup$571)
      00005E 0E                    6239 	.db	14
      00005F 02                    6240 	.uleb128	2
      000060 01                    6241 	.db	1
      000061 00 00r04r87           6242 	.dw	0,(Sstm8_hd44780$lcd_bus_wakeup$573)
      000065 0E                    6243 	.db	14
      000066 03                    6244 	.uleb128	3
      000067 01                    6245 	.db	1
      000068 00 00r04r89           6246 	.dw	0,(Sstm8_hd44780$lcd_bus_wakeup$574)
      00006C 0E                    6247 	.db	14
      00006D 04                    6248 	.uleb128	4
      00006E 01                    6249 	.db	1
      00006F 00 00r04r8B           6250 	.dw	0,(Sstm8_hd44780$lcd_bus_wakeup$575)
      000073 0E                    6251 	.db	14
      000074 05                    6252 	.uleb128	5
      000075 01                    6253 	.db	1
      000076 00 00r04r90           6254 	.dw	0,(Sstm8_hd44780$lcd_bus_wakeup$576)
      00007A 0E                    6255 	.db	14
      00007B 02                    6256 	.uleb128	2
      00007C 01                    6257 	.db	1
      00007D 00 00r04r92           6258 	.dw	0,(Sstm8_hd44780$lcd_bus_wakeup$578)
      000081 0E                    6259 	.db	14
      000082 03                    6260 	.uleb128	3
      000083 01                    6261 	.db	1
      000084 00 00r04r94           6262 	.dw	0,(Sstm8_hd44780$lcd_bus_wakeup$579)
      000088 0E                    6263 	.db	14
      000089 04                    6264 	.uleb128	4
      00008A 01                    6265 	.db	1
      00008B 00 00r04r96           6266 	.dw	0,(Sstm8_hd44780$lcd_bus_wakeup$580)
      00008F 0E                    6267 	.db	14
      000090 05                    6268 	.uleb128	5
      000091 01                    6269 	.db	1
      000092 00 00r04r9B           6270 	.dw	0,(Sstm8_hd44780$lcd_bus_wakeup$581)
      000096 0E                    6271 	.db	14
      000097 02                    6272 	.uleb128	2
      000098 01                    6273 	.db	1
      000099 00 00r04r9D           6274 	.dw	0,(Sstm8_hd44780$lcd_bus_wakeup$583)
      00009D 0E                    6275 	.db	14
      00009E 03                    6276 	.uleb128	3
      00009F 01                    6277 	.db	1
      0000A0 00 00r04r9F           6278 	.dw	0,(Sstm8_hd44780$lcd_bus_wakeup$584)
      0000A4 0E                    6279 	.db	14
      0000A5 04                    6280 	.uleb128	4
      0000A6 01                    6281 	.db	1
      0000A7 00 00r04rA1           6282 	.dw	0,(Sstm8_hd44780$lcd_bus_wakeup$585)
      0000AB 0E                    6283 	.db	14
      0000AC 05                    6284 	.uleb128	5
      0000AD 01                    6285 	.db	1
      0000AE 00 00r04rA6           6286 	.dw	0,(Sstm8_hd44780$lcd_bus_wakeup$586)
      0000B2 0E                    6287 	.db	14
      0000B3 02                    6288 	.uleb128	2
      0000B4 01                    6289 	.db	1
      0000B5 00 00r04rA8           6290 	.dw	0,(Sstm8_hd44780$lcd_bus_wakeup$588)
      0000B9 0E                    6291 	.db	14
      0000BA 03                    6292 	.uleb128	3
      0000BB 01                    6293 	.db	1
      0000BC 00 00r04rAA           6294 	.dw	0,(Sstm8_hd44780$lcd_bus_wakeup$589)
      0000C0 0E                    6295 	.db	14
      0000C1 04                    6296 	.uleb128	4
      0000C2 01                    6297 	.db	1
      0000C3 00 00r04rAC           6298 	.dw	0,(Sstm8_hd44780$lcd_bus_wakeup$590)
      0000C7 0E                    6299 	.db	14
      0000C8 05                    6300 	.uleb128	5
      0000C9 01                    6301 	.db	1
      0000CA 00 00r04rB1           6302 	.dw	0,(Sstm8_hd44780$lcd_bus_wakeup$591)
      0000CE 0E                    6303 	.db	14
      0000CF 02                    6304 	.uleb128	2
      0000D0 01                    6305 	.db	1
      0000D1 00 00r04rB3           6306 	.dw	0,(Sstm8_hd44780$lcd_bus_wakeup$593)
      0000D5 0E                    6307 	.db	14
      0000D6 03                    6308 	.uleb128	3
      0000D7 01                    6309 	.db	1
      0000D8 00 00r04rB5           6310 	.dw	0,(Sstm8_hd44780$lcd_bus_wakeup$594)
      0000DC 0E                    6311 	.db	14
      0000DD 04                    6312 	.uleb128	4
      0000DE 01                    6313 	.db	1
      0000DF 00 00r04rB7           6314 	.dw	0,(Sstm8_hd44780$lcd_bus_wakeup$595)
      0000E3 0E                    6315 	.db	14
      0000E4 05                    6316 	.uleb128	5
      0000E5 01                    6317 	.db	1
      0000E6 00 00r04rBC           6318 	.dw	0,(Sstm8_hd44780$lcd_bus_wakeup$596)
      0000EA 0E                    6319 	.db	14
      0000EB 02                    6320 	.uleb128	2
                                   6321 
                                   6322 	.area .debug_frame (NOLOAD)
      0000EC 00 00                 6323 	.dw	0
      0000EE 00 0E                 6324 	.dw	Ldebug_CIE2_end-Ldebug_CIE2_start
      0000F0                       6325 Ldebug_CIE2_start:
      0000F0 FF FF                 6326 	.dw	0xffff
      0000F2 FF FF                 6327 	.dw	0xffff
      0000F4 01                    6328 	.db	1
      0000F5 00                    6329 	.db	0
      0000F6 01                    6330 	.uleb128	1
      0000F7 7F                    6331 	.sleb128	-1
      0000F8 09                    6332 	.db	9
      0000F9 0C                    6333 	.db	12
      0000FA 08                    6334 	.uleb128	8
      0000FB 02                    6335 	.uleb128	2
      0000FC 89                    6336 	.db	137
      0000FD 01                    6337 	.uleb128	1
      0000FE                       6338 Ldebug_CIE2_end:
      0000FE 00 00 00 4B           6339 	.dw	0,75
      000102 00 00r00rEC           6340 	.dw	0,(Ldebug_CIE2_start-4)
      000106 00 00r04r6B           6341 	.dw	0,(Sstm8_hd44780$lcd_bus_sleep$555)	;initial loc
      00010A 00 00 00 1A           6342 	.dw	0,Sstm8_hd44780$lcd_bus_sleep$569-Sstm8_hd44780$lcd_bus_sleep$555
      00010E 01                    6343 	.db	1
      00010F 00 00r04r6B           6344 	.dw	0,(Sstm8_hd44780$lcd_bus_sleep$555)
      000113 0E                    6345 	.db	14
      000114 02                    6346 	.uleb128	2
      000115 01                    6347 	.db	1
      000116 00 00r04r6D           6348 	.dw	0,(Sstm8_hd44780$lcd_bus_sleep$557)
      00011A 0E                    6349 	.db	14
      00011B 03                    6350 	.uleb128	3
      00011C 01                    6351 	.db	1
      00011D 00 00r04r6F           6352 	.dw	0,(Sstm8_hd44780$lcd_bus_sleep$558)
      000121 0E                    6353 	.db	14
      000122 04                    6354 	.uleb128	4
      000123 01                    6355 	.db	1
      000124 00 00r04r71           6356 	.dw	0,(Sstm8_hd44780$lcd_bus_sleep$559)
      000128 0E                    6357 	.db	14
      000129 05                    6358 	.uleb128	5
      00012A 01                    6359 	.db	1
      00012B 00 00r04r76           6360 	.dw	0,(Sstm8_hd44780$lcd_bus_sleep$560)
      00012F 0E                    6361 	.db	14
      000130 02                    6362 	.uleb128	2
      000131 01                    6363 	.db	1
      000132 00 00r04r78           6364 	.dw	0,(Sstm8_hd44780$lcd_bus_sleep$562)
      000136 0E                    6365 	.db	14
      000137 03                    6366 	.uleb128	3
      000138 01                    6367 	.db	1
      000139 00 00r04r7A           6368 	.dw	0,(Sstm8_hd44780$lcd_bus_sleep$563)
      00013D 0E                    6369 	.db	14
      00013E 04                    6370 	.uleb128	4
      00013F 01                    6371 	.db	1
      000140 00 00r04r7C           6372 	.dw	0,(Sstm8_hd44780$lcd_bus_sleep$564)
      000144 0E                    6373 	.db	14
      000145 05                    6374 	.uleb128	5
      000146 01                    6375 	.db	1
      000147 00 00r04r81           6376 	.dw	0,(Sstm8_hd44780$lcd_bus_sleep$565)
      00014B 0E                    6377 	.db	14
      00014C 02                    6378 	.uleb128	2
                                   6379 
                                   6380 	.area .debug_frame (NOLOAD)
      00014D 00 00                 6381 	.dw	0
      00014F 00 0E                 6382 	.dw	Ldebug_CIE3_end-Ldebug_CIE3_start
      000151                       6383 Ldebug_CIE3_start:
      000151 FF FF                 6384 	.dw	0xffff
      000153 FF FF                 6385 	.dw	0xffff
      000155 01                    6386 	.db	1
      000156 00                    6387 	.db	0
      000157 01                    6388 	.uleb128	1
      000158 7F                    6389 	.sleb128	-1
      000159 09                    6390 	.db	9
      00015A 0C                    6391 	.db	12
      00015B 08                    6392 	.uleb128	8
      00015C 02                    6393 	.uleb128	2
      00015D 89                    6394 	.db	137
      00015E 01                    6395 	.uleb128	1
      00015F                       6396 Ldebug_CIE3_end:
      00015F 00 00 00 E5           6397 	.dw	0,229
      000163 00 00r01r4D           6398 	.dw	0,(Ldebug_CIE3_start-4)
      000167 00 00r03rC2           6399 	.dw	0,(Sstm8_hd44780$lcd_read$473)	;initial loc
      00016B 00 00 00 A9           6400 	.dw	0,Sstm8_hd44780$lcd_read$553-Sstm8_hd44780$lcd_read$473
      00016F 01                    6401 	.db	1
      000170 00 00r03rC2           6402 	.dw	0,(Sstm8_hd44780$lcd_read$473)
      000174 0E                    6403 	.db	14
      000175 02                    6404 	.uleb128	2
      000176 01                    6405 	.db	1
      000177 00 00r03rC3           6406 	.dw	0,(Sstm8_hd44780$lcd_read$474)
      00017B 0E                    6407 	.db	14
      00017C 03                    6408 	.uleb128	3
      00017D 01                    6409 	.db	1
      00017E 00 00r03rC5           6410 	.dw	0,(Sstm8_hd44780$lcd_read$476)
      000182 0E                    6411 	.db	14
      000183 04                    6412 	.uleb128	4
      000184 01                    6413 	.db	1
      000185 00 00r03rC7           6414 	.dw	0,(Sstm8_hd44780$lcd_read$477)
      000189 0E                    6415 	.db	14
      00018A 05                    6416 	.uleb128	5
      00018B 01                    6417 	.db	1
      00018C 00 00r03rC9           6418 	.dw	0,(Sstm8_hd44780$lcd_read$478)
      000190 0E                    6419 	.db	14
      000191 06                    6420 	.uleb128	6
      000192 01                    6421 	.db	1
      000193 00 00r03rCE           6422 	.dw	0,(Sstm8_hd44780$lcd_read$479)
      000197 0E                    6423 	.db	14
      000198 03                    6424 	.uleb128	3
      000199 01                    6425 	.db	1
      00019A 00 00r03rD3           6426 	.dw	0,(Sstm8_hd44780$lcd_read$482)
      00019E 0E                    6427 	.db	14
      00019F 04                    6428 	.uleb128	4
      0001A0 01                    6429 	.db	1
      0001A1 00 00r03rD5           6430 	.dw	0,(Sstm8_hd44780$lcd_read$483)
      0001A5 0E                    6431 	.db	14
      0001A6 05                    6432 	.uleb128	5
      0001A7 01                    6433 	.db	1
      0001A8 00 00r03rD7           6434 	.dw	0,(Sstm8_hd44780$lcd_read$484)
      0001AC 0E                    6435 	.db	14
      0001AD 06                    6436 	.uleb128	6
      0001AE 01                    6437 	.db	1
      0001AF 00 00r03rDC           6438 	.dw	0,(Sstm8_hd44780$lcd_read$485)
      0001B3 0E                    6439 	.db	14
      0001B4 03                    6440 	.uleb128	3
      0001B5 01                    6441 	.db	1
      0001B6 00 00r03rEB           6442 	.dw	0,(Sstm8_hd44780$lcd_read$494)
      0001BA 0E                    6443 	.db	14
      0001BB 04                    6444 	.uleb128	4
      0001BC 01                    6445 	.db	1
      0001BD 00 00r03rED           6446 	.dw	0,(Sstm8_hd44780$lcd_read$495)
      0001C1 0E                    6447 	.db	14
      0001C2 05                    6448 	.uleb128	5
      0001C3 01                    6449 	.db	1
      0001C4 00 00r03rEF           6450 	.dw	0,(Sstm8_hd44780$lcd_read$496)
      0001C8 0E                    6451 	.db	14
      0001C9 06                    6452 	.uleb128	6
      0001CA 01                    6453 	.db	1
      0001CB 00 00r03rF4           6454 	.dw	0,(Sstm8_hd44780$lcd_read$497)
      0001CF 0E                    6455 	.db	14
      0001D0 03                    6456 	.uleb128	3
      0001D1 01                    6457 	.db	1
      0001D2 00 00r04r0B           6458 	.dw	0,(Sstm8_hd44780$lcd_read$507)
      0001D6 0E                    6459 	.db	14
      0001D7 04                    6460 	.uleb128	4
      0001D8 01                    6461 	.db	1
      0001D9 00 00r04r0D           6462 	.dw	0,(Sstm8_hd44780$lcd_read$508)
      0001DD 0E                    6463 	.db	14
      0001DE 05                    6464 	.uleb128	5
      0001DF 01                    6465 	.db	1
      0001E0 00 00r04r0F           6466 	.dw	0,(Sstm8_hd44780$lcd_read$509)
      0001E4 0E                    6467 	.db	14
      0001E5 06                    6468 	.uleb128	6
      0001E6 01                    6469 	.db	1
      0001E7 00 00r04r14           6470 	.dw	0,(Sstm8_hd44780$lcd_read$510)
      0001EB 0E                    6471 	.db	14
      0001EC 03                    6472 	.uleb128	3
      0001ED 01                    6473 	.db	1
      0001EE 00 00r04r23           6474 	.dw	0,(Sstm8_hd44780$lcd_read$519)
      0001F2 0E                    6475 	.db	14
      0001F3 04                    6476 	.uleb128	4
      0001F4 01                    6477 	.db	1
      0001F5 00 00r04r25           6478 	.dw	0,(Sstm8_hd44780$lcd_read$520)
      0001F9 0E                    6479 	.db	14
      0001FA 05                    6480 	.uleb128	5
      0001FB 01                    6481 	.db	1
      0001FC 00 00r04r27           6482 	.dw	0,(Sstm8_hd44780$lcd_read$521)
      000200 0E                    6483 	.db	14
      000201 06                    6484 	.uleb128	6
      000202 01                    6485 	.db	1
      000203 00 00r04r2C           6486 	.dw	0,(Sstm8_hd44780$lcd_read$522)
      000207 0E                    6487 	.db	14
      000208 03                    6488 	.uleb128	3
      000209 01                    6489 	.db	1
      00020A 00 00r04r42           6490 	.dw	0,(Sstm8_hd44780$lcd_read$532)
      00020E 0E                    6491 	.db	14
      00020F 04                    6492 	.uleb128	4
      000210 01                    6493 	.db	1
      000211 00 00r04r44           6494 	.dw	0,(Sstm8_hd44780$lcd_read$533)
      000215 0E                    6495 	.db	14
      000216 05                    6496 	.uleb128	5
      000217 01                    6497 	.db	1
      000218 00 00r04r46           6498 	.dw	0,(Sstm8_hd44780$lcd_read$534)
      00021C 0E                    6499 	.db	14
      00021D 06                    6500 	.uleb128	6
      00021E 01                    6501 	.db	1
      00021F 00 00r04r4B           6502 	.dw	0,(Sstm8_hd44780$lcd_read$535)
      000223 0E                    6503 	.db	14
      000224 03                    6504 	.uleb128	3
      000225 01                    6505 	.db	1
      000226 00 00r04r5A           6506 	.dw	0,(Sstm8_hd44780$lcd_read$544)
      00022A 0E                    6507 	.db	14
      00022B 04                    6508 	.uleb128	4
      00022C 01                    6509 	.db	1
      00022D 00 00r04r5C           6510 	.dw	0,(Sstm8_hd44780$lcd_read$545)
      000231 0E                    6511 	.db	14
      000232 05                    6512 	.uleb128	5
      000233 01                    6513 	.db	1
      000234 00 00r04r5E           6514 	.dw	0,(Sstm8_hd44780$lcd_read$546)
      000238 0E                    6515 	.db	14
      000239 06                    6516 	.uleb128	6
      00023A 01                    6517 	.db	1
      00023B 00 00r04r63           6518 	.dw	0,(Sstm8_hd44780$lcd_read$547)
      00023F 0E                    6519 	.db	14
      000240 03                    6520 	.uleb128	3
      000241 01                    6521 	.db	1
      000242 00 00r04r6A           6522 	.dw	0,(Sstm8_hd44780$lcd_read$551)
      000246 0E                    6523 	.db	14
      000247 02                    6524 	.uleb128	2
                                   6525 
                                   6526 	.area .debug_frame (NOLOAD)
      000248 00 00                 6527 	.dw	0
      00024A 00 0E                 6528 	.dw	Ldebug_CIE4_end-Ldebug_CIE4_start
      00024C                       6529 Ldebug_CIE4_start:
      00024C FF FF                 6530 	.dw	0xffff
      00024E FF FF                 6531 	.dw	0xffff
      000250 01                    6532 	.db	1
      000251 00                    6533 	.db	0
      000252 01                    6534 	.uleb128	1
      000253 7F                    6535 	.sleb128	-1
      000254 09                    6536 	.db	9
      000255 0C                    6537 	.db	12
      000256 08                    6538 	.uleb128	8
      000257 02                    6539 	.uleb128	2
      000258 89                    6540 	.db	137
      000259 01                    6541 	.uleb128	1
      00025A                       6542 Ldebug_CIE4_end:
      00025A 00 00 00 4B           6543 	.dw	0,75
      00025E 00 00r02r48           6544 	.dw	0,(Ldebug_CIE4_start-4)
      000262 00 00r03r8B           6545 	.dw	0,(Sstm8_hd44780$lcd_data$447)	;initial loc
      000266 00 00 00 37           6546 	.dw	0,Sstm8_hd44780$lcd_data$471-Sstm8_hd44780$lcd_data$447
      00026A 01                    6547 	.db	1
      00026B 00 00r03r8B           6548 	.dw	0,(Sstm8_hd44780$lcd_data$447)
      00026F 0E                    6549 	.db	14
      000270 02                    6550 	.uleb128	2
      000271 01                    6551 	.db	1
      000272 00 00r03r8D           6552 	.dw	0,(Sstm8_hd44780$lcd_data$449)
      000276 0E                    6553 	.db	14
      000277 03                    6554 	.uleb128	3
      000278 01                    6555 	.db	1
      000279 00 00r03r8F           6556 	.dw	0,(Sstm8_hd44780$lcd_data$450)
      00027D 0E                    6557 	.db	14
      00027E 04                    6558 	.uleb128	4
      00027F 01                    6559 	.db	1
      000280 00 00r03r91           6560 	.dw	0,(Sstm8_hd44780$lcd_data$451)
      000284 0E                    6561 	.db	14
      000285 05                    6562 	.uleb128	5
      000286 01                    6563 	.db	1
      000287 00 00r03r96           6564 	.dw	0,(Sstm8_hd44780$lcd_data$452)
      00028B 0E                    6565 	.db	14
      00028C 02                    6566 	.uleb128	2
      00028D 01                    6567 	.db	1
      00028E 00 00r03rAB           6568 	.dw	0,(Sstm8_hd44780$lcd_data$461)
      000292 0E                    6569 	.db	14
      000293 03                    6570 	.uleb128	3
      000294 01                    6571 	.db	1
      000295 00 00r03rAF           6572 	.dw	0,(Sstm8_hd44780$lcd_data$462)
      000299 0E                    6573 	.db	14
      00029A 02                    6574 	.uleb128	2
      00029B 01                    6575 	.db	1
      00029C 00 00r03rB7           6576 	.dw	0,(Sstm8_hd44780$lcd_data$465)
      0002A0 0E                    6577 	.db	14
      0002A1 03                    6578 	.uleb128	3
      0002A2 01                    6579 	.db	1
      0002A3 00 00r03rBB           6580 	.dw	0,(Sstm8_hd44780$lcd_data$466)
      0002A7 0E                    6581 	.db	14
      0002A8 02                    6582 	.uleb128	2
                                   6583 
                                   6584 	.area .debug_frame (NOLOAD)
      0002A9 00 00                 6585 	.dw	0
      0002AB 00 0E                 6586 	.dw	Ldebug_CIE5_end-Ldebug_CIE5_start
      0002AD                       6587 Ldebug_CIE5_start:
      0002AD FF FF                 6588 	.dw	0xffff
      0002AF FF FF                 6589 	.dw	0xffff
      0002B1 01                    6590 	.db	1
      0002B2 00                    6591 	.db	0
      0002B3 01                    6592 	.uleb128	1
      0002B4 7F                    6593 	.sleb128	-1
      0002B5 09                    6594 	.db	9
      0002B6 0C                    6595 	.db	12
      0002B7 08                    6596 	.uleb128	8
      0002B8 02                    6597 	.uleb128	2
      0002B9 89                    6598 	.db	137
      0002BA 01                    6599 	.uleb128	1
      0002BB                       6600 Ldebug_CIE5_end:
      0002BB 00 00 00 4B           6601 	.dw	0,75
      0002BF 00 00r02rA9           6602 	.dw	0,(Ldebug_CIE5_start-4)
      0002C3 00 00r03r54           6603 	.dw	0,(Sstm8_hd44780$lcd_command$421)	;initial loc
      0002C7 00 00 00 37           6604 	.dw	0,Sstm8_hd44780$lcd_command$445-Sstm8_hd44780$lcd_command$421
      0002CB 01                    6605 	.db	1
      0002CC 00 00r03r54           6606 	.dw	0,(Sstm8_hd44780$lcd_command$421)
      0002D0 0E                    6607 	.db	14
      0002D1 02                    6608 	.uleb128	2
      0002D2 01                    6609 	.db	1
      0002D3 00 00r03r56           6610 	.dw	0,(Sstm8_hd44780$lcd_command$423)
      0002D7 0E                    6611 	.db	14
      0002D8 03                    6612 	.uleb128	3
      0002D9 01                    6613 	.db	1
      0002DA 00 00r03r58           6614 	.dw	0,(Sstm8_hd44780$lcd_command$424)
      0002DE 0E                    6615 	.db	14
      0002DF 04                    6616 	.uleb128	4
      0002E0 01                    6617 	.db	1
      0002E1 00 00r03r5A           6618 	.dw	0,(Sstm8_hd44780$lcd_command$425)
      0002E5 0E                    6619 	.db	14
      0002E6 05                    6620 	.uleb128	5
      0002E7 01                    6621 	.db	1
      0002E8 00 00r03r5F           6622 	.dw	0,(Sstm8_hd44780$lcd_command$426)
      0002EC 0E                    6623 	.db	14
      0002ED 02                    6624 	.uleb128	2
      0002EE 01                    6625 	.db	1
      0002EF 00 00r03r74           6626 	.dw	0,(Sstm8_hd44780$lcd_command$435)
      0002F3 0E                    6627 	.db	14
      0002F4 03                    6628 	.uleb128	3
      0002F5 01                    6629 	.db	1
      0002F6 00 00r03r78           6630 	.dw	0,(Sstm8_hd44780$lcd_command$436)
      0002FA 0E                    6631 	.db	14
      0002FB 02                    6632 	.uleb128	2
      0002FC 01                    6633 	.db	1
      0002FD 00 00r03r80           6634 	.dw	0,(Sstm8_hd44780$lcd_command$439)
      000301 0E                    6635 	.db	14
      000302 03                    6636 	.uleb128	3
      000303 01                    6637 	.db	1
      000304 00 00r03r84           6638 	.dw	0,(Sstm8_hd44780$lcd_command$440)
      000308 0E                    6639 	.db	14
      000309 02                    6640 	.uleb128	2
                                   6641 
                                   6642 	.area .debug_frame (NOLOAD)
      00030A 00 00                 6643 	.dw	0
      00030C 00 0E                 6644 	.dw	Ldebug_CIE6_end-Ldebug_CIE6_start
      00030E                       6645 Ldebug_CIE6_start:
      00030E FF FF                 6646 	.dw	0xffff
      000310 FF FF                 6647 	.dw	0xffff
      000312 01                    6648 	.db	1
      000313 00                    6649 	.db	0
      000314 01                    6650 	.uleb128	1
      000315 7F                    6651 	.sleb128	-1
      000316 09                    6652 	.db	9
      000317 0C                    6653 	.db	12
      000318 08                    6654 	.uleb128	8
      000319 02                    6655 	.uleb128	2
      00031A 89                    6656 	.db	137
      00031B 01                    6657 	.uleb128	1
      00031C                       6658 Ldebug_CIE6_end:
      00031C 00 00 00 4B           6659 	.dw	0,75
      000320 00 00r03r0A           6660 	.dw	0,(Ldebug_CIE6_start-4)
      000324 00 00r03r23           6661 	.dw	0,(Sstm8_hd44780$lcd_e_tick$391)	;initial loc
      000328 00 00 00 31           6662 	.dw	0,Sstm8_hd44780$lcd_e_tick$419-Sstm8_hd44780$lcd_e_tick$391
      00032C 01                    6663 	.db	1
      00032D 00 00r03r23           6664 	.dw	0,(Sstm8_hd44780$lcd_e_tick$391)
      000331 0E                    6665 	.db	14
      000332 02                    6666 	.uleb128	2
      000333 01                    6667 	.db	1
      000334 00 00r03r25           6668 	.dw	0,(Sstm8_hd44780$lcd_e_tick$393)
      000338 0E                    6669 	.db	14
      000339 03                    6670 	.uleb128	3
      00033A 01                    6671 	.db	1
      00033B 00 00r03r27           6672 	.dw	0,(Sstm8_hd44780$lcd_e_tick$394)
      00033F 0E                    6673 	.db	14
      000340 04                    6674 	.uleb128	4
      000341 01                    6675 	.db	1
      000342 00 00r03r29           6676 	.dw	0,(Sstm8_hd44780$lcd_e_tick$395)
      000346 0E                    6677 	.db	14
      000347 05                    6678 	.uleb128	5
      000348 01                    6679 	.db	1
      000349 00 00r03r2E           6680 	.dw	0,(Sstm8_hd44780$lcd_e_tick$396)
      00034D 0E                    6681 	.db	14
      00034E 02                    6682 	.uleb128	2
      00034F 01                    6683 	.db	1
      000350 00 00r03r3D           6684 	.dw	0,(Sstm8_hd44780$lcd_e_tick$405)
      000354 0E                    6685 	.db	14
      000355 03                    6686 	.uleb128	3
      000356 01                    6687 	.db	1
      000357 00 00r03r3F           6688 	.dw	0,(Sstm8_hd44780$lcd_e_tick$406)
      00035B 0E                    6689 	.db	14
      00035C 04                    6690 	.uleb128	4
      00035D 01                    6691 	.db	1
      00035E 00 00r03r41           6692 	.dw	0,(Sstm8_hd44780$lcd_e_tick$407)
      000362 0E                    6693 	.db	14
      000363 05                    6694 	.uleb128	5
      000364 01                    6695 	.db	1
      000365 00 00r03r46           6696 	.dw	0,(Sstm8_hd44780$lcd_e_tick$408)
      000369 0E                    6697 	.db	14
      00036A 02                    6698 	.uleb128	2
                                   6699 
                                   6700 	.area .debug_frame (NOLOAD)
      00036B 00 00                 6701 	.dw	0
      00036D 00 0E                 6702 	.dw	Ldebug_CIE7_end-Ldebug_CIE7_start
      00036F                       6703 Ldebug_CIE7_start:
      00036F FF FF                 6704 	.dw	0xffff
      000371 FF FF                 6705 	.dw	0xffff
      000373 01                    6706 	.db	1
      000374 00                    6707 	.db	0
      000375 01                    6708 	.uleb128	1
      000376 7F                    6709 	.sleb128	-1
      000377 09                    6710 	.db	9
      000378 0C                    6711 	.db	12
      000379 08                    6712 	.uleb128	8
      00037A 02                    6713 	.uleb128	2
      00037B 89                    6714 	.db	137
      00037C 01                    6715 	.uleb128	1
      00037D                       6716 Ldebug_CIE7_end:
      00037D 00 00 00 91           6717 	.dw	0,145
      000381 00 00r03r6B           6718 	.dw	0,(Ldebug_CIE7_start-4)
      000385 00 00r02rC0           6719 	.dw	0,(Sstm8_hd44780$lcd_bus_read$354)	;initial loc
      000389 00 00 00 63           6720 	.dw	0,Sstm8_hd44780$lcd_bus_read$389-Sstm8_hd44780$lcd_bus_read$354
      00038D 01                    6721 	.db	1
      00038E 00 00r02rC0           6722 	.dw	0,(Sstm8_hd44780$lcd_bus_read$354)
      000392 0E                    6723 	.db	14
      000393 02                    6724 	.uleb128	2
      000394 01                    6725 	.db	1
      000395 00 00r02rC1           6726 	.dw	0,(Sstm8_hd44780$lcd_bus_read$355)
      000399 0E                    6727 	.db	14
      00039A 03                    6728 	.uleb128	3
      00039B 01                    6729 	.db	1
      00039C 00 00r02rC5           6730 	.dw	0,(Sstm8_hd44780$lcd_bus_read$358)
      0003A0 0E                    6731 	.db	14
      0003A1 04                    6732 	.uleb128	4
      0003A2 01                    6733 	.db	1
      0003A3 00 00r02rC7           6734 	.dw	0,(Sstm8_hd44780$lcd_bus_read$359)
      0003A7 0E                    6735 	.db	14
      0003A8 05                    6736 	.uleb128	5
      0003A9 01                    6737 	.db	1
      0003AA 00 00r02rC9           6738 	.dw	0,(Sstm8_hd44780$lcd_bus_read$360)
      0003AE 0E                    6739 	.db	14
      0003AF 06                    6740 	.uleb128	6
      0003B0 01                    6741 	.db	1
      0003B1 00 00r02rCE           6742 	.dw	0,(Sstm8_hd44780$lcd_bus_read$361)
      0003B5 0E                    6743 	.db	14
      0003B6 03                    6744 	.uleb128	3
      0003B7 01                    6745 	.db	1
      0003B8 00 00r02rDB           6746 	.dw	0,(Sstm8_hd44780$lcd_bus_read$365)
      0003BC 0E                    6747 	.db	14
      0003BD 04                    6748 	.uleb128	4
      0003BE 01                    6749 	.db	1
      0003BF 00 00r02rDD           6750 	.dw	0,(Sstm8_hd44780$lcd_bus_read$366)
      0003C3 0E                    6751 	.db	14
      0003C4 05                    6752 	.uleb128	5
      0003C5 01                    6753 	.db	1
      0003C6 00 00r02rDF           6754 	.dw	0,(Sstm8_hd44780$lcd_bus_read$367)
      0003CA 0E                    6755 	.db	14
      0003CB 06                    6756 	.uleb128	6
      0003CC 01                    6757 	.db	1
      0003CD 00 00r02rE4           6758 	.dw	0,(Sstm8_hd44780$lcd_bus_read$368)
      0003D1 0E                    6759 	.db	14
      0003D2 03                    6760 	.uleb128	3
      0003D3 01                    6761 	.db	1
      0003D4 00 00r02rF2           6762 	.dw	0,(Sstm8_hd44780$lcd_bus_read$372)
      0003D8 0E                    6763 	.db	14
      0003D9 04                    6764 	.uleb128	4
      0003DA 01                    6765 	.db	1
      0003DB 00 00r02rF4           6766 	.dw	0,(Sstm8_hd44780$lcd_bus_read$373)
      0003DF 0E                    6767 	.db	14
      0003E0 05                    6768 	.uleb128	5
      0003E1 01                    6769 	.db	1
      0003E2 00 00r02rF6           6770 	.dw	0,(Sstm8_hd44780$lcd_bus_read$374)
      0003E6 0E                    6771 	.db	14
      0003E7 06                    6772 	.uleb128	6
      0003E8 01                    6773 	.db	1
      0003E9 00 00r02rFB           6774 	.dw	0,(Sstm8_hd44780$lcd_bus_read$375)
      0003ED 0E                    6775 	.db	14
      0003EE 03                    6776 	.uleb128	3
      0003EF 01                    6777 	.db	1
      0003F0 00 00r03r09           6778 	.dw	0,(Sstm8_hd44780$lcd_bus_read$379)
      0003F4 0E                    6779 	.db	14
      0003F5 04                    6780 	.uleb128	4
      0003F6 01                    6781 	.db	1
      0003F7 00 00r03r0B           6782 	.dw	0,(Sstm8_hd44780$lcd_bus_read$380)
      0003FB 0E                    6783 	.db	14
      0003FC 05                    6784 	.uleb128	5
      0003FD 01                    6785 	.db	1
      0003FE 00 00r03r0D           6786 	.dw	0,(Sstm8_hd44780$lcd_bus_read$381)
      000402 0E                    6787 	.db	14
      000403 06                    6788 	.uleb128	6
      000404 01                    6789 	.db	1
      000405 00 00r03r12           6790 	.dw	0,(Sstm8_hd44780$lcd_bus_read$382)
      000409 0E                    6791 	.db	14
      00040A 03                    6792 	.uleb128	3
      00040B 01                    6793 	.db	1
      00040C 00 00r03r22           6794 	.dw	0,(Sstm8_hd44780$lcd_bus_read$387)
      000410 0E                    6795 	.db	14
      000411 02                    6796 	.uleb128	2
                                   6797 
                                   6798 	.area .debug_frame (NOLOAD)
      000412 00 00                 6799 	.dw	0
      000414 00 0E                 6800 	.dw	Ldebug_CIE8_end-Ldebug_CIE8_start
      000416                       6801 Ldebug_CIE8_start:
      000416 FF FF                 6802 	.dw	0xffff
      000418 FF FF                 6803 	.dw	0xffff
      00041A 01                    6804 	.db	1
      00041B 00                    6805 	.db	0
      00041C 01                    6806 	.uleb128	1
      00041D 7F                    6807 	.sleb128	-1
      00041E 09                    6808 	.db	9
      00041F 0C                    6809 	.db	12
      000420 08                    6810 	.uleb128	8
      000421 02                    6811 	.uleb128	2
      000422 89                    6812 	.db	137
      000423 01                    6813 	.uleb128	1
      000424                       6814 Ldebug_CIE8_end:
      000424 00 00 00 F3           6815 	.dw	0,243
      000428 00 00r04r12           6816 	.dw	0,(Ldebug_CIE8_start-4)
      00042C 00 00r02r38           6817 	.dw	0,(Sstm8_hd44780$lcd_bus_set$297)	;initial loc
      000430 00 00 00 88           6818 	.dw	0,Sstm8_hd44780$lcd_bus_set$352-Sstm8_hd44780$lcd_bus_set$297
      000434 01                    6819 	.db	1
      000435 00 00r02r38           6820 	.dw	0,(Sstm8_hd44780$lcd_bus_set$297)
      000439 0E                    6821 	.db	14
      00043A 02                    6822 	.uleb128	2
      00043B 01                    6823 	.db	1
      00043C 00 00r02r42           6824 	.dw	0,(Sstm8_hd44780$lcd_bus_set$300)
      000440 0E                    6825 	.db	14
      000441 03                    6826 	.uleb128	3
      000442 01                    6827 	.db	1
      000443 00 00r02r44           6828 	.dw	0,(Sstm8_hd44780$lcd_bus_set$301)
      000447 0E                    6829 	.db	14
      000448 04                    6830 	.uleb128	4
      000449 01                    6831 	.db	1
      00044A 00 00r02r46           6832 	.dw	0,(Sstm8_hd44780$lcd_bus_set$302)
      00044E 0E                    6833 	.db	14
      00044F 05                    6834 	.uleb128	5
      000450 01                    6835 	.db	1
      000451 00 00r02r4B           6836 	.dw	0,(Sstm8_hd44780$lcd_bus_set$303)
      000455 0E                    6837 	.db	14
      000456 02                    6838 	.uleb128	2
      000457 01                    6839 	.db	1
      000458 00 00r02r50           6840 	.dw	0,(Sstm8_hd44780$lcd_bus_set$306)
      00045C 0E                    6841 	.db	14
      00045D 03                    6842 	.uleb128	3
      00045E 01                    6843 	.db	1
      00045F 00 00r02r52           6844 	.dw	0,(Sstm8_hd44780$lcd_bus_set$307)
      000463 0E                    6845 	.db	14
      000464 04                    6846 	.uleb128	4
      000465 01                    6847 	.db	1
      000466 00 00r02r54           6848 	.dw	0,(Sstm8_hd44780$lcd_bus_set$308)
      00046A 0E                    6849 	.db	14
      00046B 05                    6850 	.uleb128	5
      00046C 01                    6851 	.db	1
      00046D 00 00r02r59           6852 	.dw	0,(Sstm8_hd44780$lcd_bus_set$309)
      000471 0E                    6853 	.db	14
      000472 02                    6854 	.uleb128	2
      000473 01                    6855 	.db	1
      000474 00 00r02r64           6856 	.dw	0,(Sstm8_hd44780$lcd_bus_set$313)
      000478 0E                    6857 	.db	14
      000479 03                    6858 	.uleb128	3
      00047A 01                    6859 	.db	1
      00047B 00 00r02r66           6860 	.dw	0,(Sstm8_hd44780$lcd_bus_set$314)
      00047F 0E                    6861 	.db	14
      000480 04                    6862 	.uleb128	4
      000481 01                    6863 	.db	1
      000482 00 00r02r68           6864 	.dw	0,(Sstm8_hd44780$lcd_bus_set$315)
      000486 0E                    6865 	.db	14
      000487 05                    6866 	.uleb128	5
      000488 01                    6867 	.db	1
      000489 00 00r02r6D           6868 	.dw	0,(Sstm8_hd44780$lcd_bus_set$316)
      00048D 0E                    6869 	.db	14
      00048E 02                    6870 	.uleb128	2
      00048F 01                    6871 	.db	1
      000490 00 00r02r72           6872 	.dw	0,(Sstm8_hd44780$lcd_bus_set$319)
      000494 0E                    6873 	.db	14
      000495 03                    6874 	.uleb128	3
      000496 01                    6875 	.db	1
      000497 00 00r02r74           6876 	.dw	0,(Sstm8_hd44780$lcd_bus_set$320)
      00049B 0E                    6877 	.db	14
      00049C 04                    6878 	.uleb128	4
      00049D 01                    6879 	.db	1
      00049E 00 00r02r76           6880 	.dw	0,(Sstm8_hd44780$lcd_bus_set$321)
      0004A2 0E                    6881 	.db	14
      0004A3 05                    6882 	.uleb128	5
      0004A4 01                    6883 	.db	1
      0004A5 00 00r02r7B           6884 	.dw	0,(Sstm8_hd44780$lcd_bus_set$322)
      0004A9 0E                    6885 	.db	14
      0004AA 02                    6886 	.uleb128	2
      0004AB 01                    6887 	.db	1
      0004AC 00 00r02r86           6888 	.dw	0,(Sstm8_hd44780$lcd_bus_set$326)
      0004B0 0E                    6889 	.db	14
      0004B1 03                    6890 	.uleb128	3
      0004B2 01                    6891 	.db	1
      0004B3 00 00r02r88           6892 	.dw	0,(Sstm8_hd44780$lcd_bus_set$327)
      0004B7 0E                    6893 	.db	14
      0004B8 04                    6894 	.uleb128	4
      0004B9 01                    6895 	.db	1
      0004BA 00 00r02r8A           6896 	.dw	0,(Sstm8_hd44780$lcd_bus_set$328)
      0004BE 0E                    6897 	.db	14
      0004BF 05                    6898 	.uleb128	5
      0004C0 01                    6899 	.db	1
      0004C1 00 00r02r8F           6900 	.dw	0,(Sstm8_hd44780$lcd_bus_set$329)
      0004C5 0E                    6901 	.db	14
      0004C6 02                    6902 	.uleb128	2
      0004C7 01                    6903 	.db	1
      0004C8 00 00r02r94           6904 	.dw	0,(Sstm8_hd44780$lcd_bus_set$332)
      0004CC 0E                    6905 	.db	14
      0004CD 03                    6906 	.uleb128	3
      0004CE 01                    6907 	.db	1
      0004CF 00 00r02r96           6908 	.dw	0,(Sstm8_hd44780$lcd_bus_set$333)
      0004D3 0E                    6909 	.db	14
      0004D4 04                    6910 	.uleb128	4
      0004D5 01                    6911 	.db	1
      0004D6 00 00r02r98           6912 	.dw	0,(Sstm8_hd44780$lcd_bus_set$334)
      0004DA 0E                    6913 	.db	14
      0004DB 05                    6914 	.uleb128	5
      0004DC 01                    6915 	.db	1
      0004DD 00 00r02r9D           6916 	.dw	0,(Sstm8_hd44780$lcd_bus_set$335)
      0004E1 0E                    6917 	.db	14
      0004E2 02                    6918 	.uleb128	2
      0004E3 01                    6919 	.db	1
      0004E4 00 00r02rA8           6920 	.dw	0,(Sstm8_hd44780$lcd_bus_set$339)
      0004E8 0E                    6921 	.db	14
      0004E9 03                    6922 	.uleb128	3
      0004EA 01                    6923 	.db	1
      0004EB 00 00r02rAA           6924 	.dw	0,(Sstm8_hd44780$lcd_bus_set$340)
      0004EF 0E                    6925 	.db	14
      0004F0 04                    6926 	.uleb128	4
      0004F1 01                    6927 	.db	1
      0004F2 00 00r02rAC           6928 	.dw	0,(Sstm8_hd44780$lcd_bus_set$341)
      0004F6 0E                    6929 	.db	14
      0004F7 05                    6930 	.uleb128	5
      0004F8 01                    6931 	.db	1
      0004F9 00 00r02rB1           6932 	.dw	0,(Sstm8_hd44780$lcd_bus_set$342)
      0004FD 0E                    6933 	.db	14
      0004FE 02                    6934 	.uleb128	2
      0004FF 01                    6935 	.db	1
      000500 00 00r02rB6           6936 	.dw	0,(Sstm8_hd44780$lcd_bus_set$345)
      000504 0E                    6937 	.db	14
      000505 03                    6938 	.uleb128	3
      000506 01                    6939 	.db	1
      000507 00 00r02rB8           6940 	.dw	0,(Sstm8_hd44780$lcd_bus_set$346)
      00050B 0E                    6941 	.db	14
      00050C 04                    6942 	.uleb128	4
      00050D 01                    6943 	.db	1
      00050E 00 00r02rBA           6944 	.dw	0,(Sstm8_hd44780$lcd_bus_set$347)
      000512 0E                    6945 	.db	14
      000513 05                    6946 	.uleb128	5
      000514 01                    6947 	.db	1
      000515 00 00r02rBF           6948 	.dw	0,(Sstm8_hd44780$lcd_bus_set$348)
      000519 0E                    6949 	.db	14
      00051A 02                    6950 	.uleb128	2
                                   6951 
                                   6952 	.area .debug_frame (NOLOAD)
      00051B 00 00                 6953 	.dw	0
      00051D 00 0E                 6954 	.dw	Ldebug_CIE9_end-Ldebug_CIE9_start
      00051F                       6955 Ldebug_CIE9_start:
      00051F FF FF                 6956 	.dw	0xffff
      000521 FF FF                 6957 	.dw	0xffff
      000523 01                    6958 	.db	1
      000524 00                    6959 	.db	0
      000525 01                    6960 	.uleb128	1
      000526 7F                    6961 	.sleb128	-1
      000527 09                    6962 	.db	9
      000528 0C                    6963 	.db	12
      000529 08                    6964 	.uleb128	8
      00052A 02                    6965 	.uleb128	2
      00052B 89                    6966 	.db	137
      00052C 01                    6967 	.uleb128	1
      00052D                       6968 Ldebug_CIE9_end:
      00052D 00 00 01 08           6969 	.dw	0,264
      000531 00 00r05r1B           6970 	.dw	0,(Ldebug_CIE9_start-4)
      000535 00 00r01rDC           6971 	.dw	0,(Sstm8_hd44780$lcd_deinit_hw$250)	;initial loc
      000539 00 00 00 5C           6972 	.dw	0,Sstm8_hd44780$lcd_deinit_hw$295-Sstm8_hd44780$lcd_deinit_hw$250
      00053D 01                    6973 	.db	1
      00053E 00 00r01rDC           6974 	.dw	0,(Sstm8_hd44780$lcd_deinit_hw$250)
      000542 0E                    6975 	.db	14
      000543 02                    6976 	.uleb128	2
      000544 01                    6977 	.db	1
      000545 00 00r01rDE           6978 	.dw	0,(Sstm8_hd44780$lcd_deinit_hw$252)
      000549 0E                    6979 	.db	14
      00054A 03                    6980 	.uleb128	3
      00054B 01                    6981 	.db	1
      00054C 00 00r01rE0           6982 	.dw	0,(Sstm8_hd44780$lcd_deinit_hw$253)
      000550 0E                    6983 	.db	14
      000551 04                    6984 	.uleb128	4
      000552 01                    6985 	.db	1
      000553 00 00r01rE2           6986 	.dw	0,(Sstm8_hd44780$lcd_deinit_hw$254)
      000557 0E                    6987 	.db	14
      000558 05                    6988 	.uleb128	5
      000559 01                    6989 	.db	1
      00055A 00 00r01rE4           6990 	.dw	0,(Sstm8_hd44780$lcd_deinit_hw$255)
      00055E 0E                    6991 	.db	14
      00055F 06                    6992 	.uleb128	6
      000560 01                    6993 	.db	1
      000561 00 00r01rE9           6994 	.dw	0,(Sstm8_hd44780$lcd_deinit_hw$256)
      000565 0E                    6995 	.db	14
      000566 02                    6996 	.uleb128	2
      000567 01                    6997 	.db	1
      000568 00 00r01rEB           6998 	.dw	0,(Sstm8_hd44780$lcd_deinit_hw$258)
      00056C 0E                    6999 	.db	14
      00056D 03                    7000 	.uleb128	3
      00056E 01                    7001 	.db	1
      00056F 00 00r01rED           7002 	.dw	0,(Sstm8_hd44780$lcd_deinit_hw$259)
      000573 0E                    7003 	.db	14
      000574 04                    7004 	.uleb128	4
      000575 01                    7005 	.db	1
      000576 00 00r01rEF           7006 	.dw	0,(Sstm8_hd44780$lcd_deinit_hw$260)
      00057A 0E                    7007 	.db	14
      00057B 05                    7008 	.uleb128	5
      00057C 01                    7009 	.db	1
      00057D 00 00r01rF1           7010 	.dw	0,(Sstm8_hd44780$lcd_deinit_hw$261)
      000581 0E                    7011 	.db	14
      000582 06                    7012 	.uleb128	6
      000583 01                    7013 	.db	1
      000584 00 00r01rF6           7014 	.dw	0,(Sstm8_hd44780$lcd_deinit_hw$262)
      000588 0E                    7015 	.db	14
      000589 02                    7016 	.uleb128	2
      00058A 01                    7017 	.db	1
      00058B 00 00r01rF8           7018 	.dw	0,(Sstm8_hd44780$lcd_deinit_hw$264)
      00058F 0E                    7019 	.db	14
      000590 03                    7020 	.uleb128	3
      000591 01                    7021 	.db	1
      000592 00 00r01rFA           7022 	.dw	0,(Sstm8_hd44780$lcd_deinit_hw$265)
      000596 0E                    7023 	.db	14
      000597 04                    7024 	.uleb128	4
      000598 01                    7025 	.db	1
      000599 00 00r01rFC           7026 	.dw	0,(Sstm8_hd44780$lcd_deinit_hw$266)
      00059D 0E                    7027 	.db	14
      00059E 05                    7028 	.uleb128	5
      00059F 01                    7029 	.db	1
      0005A0 00 00r01rFE           7030 	.dw	0,(Sstm8_hd44780$lcd_deinit_hw$267)
      0005A4 0E                    7031 	.db	14
      0005A5 06                    7032 	.uleb128	6
      0005A6 01                    7033 	.db	1
      0005A7 00 00r02r03           7034 	.dw	0,(Sstm8_hd44780$lcd_deinit_hw$268)
      0005AB 0E                    7035 	.db	14
      0005AC 02                    7036 	.uleb128	2
      0005AD 01                    7037 	.db	1
      0005AE 00 00r02r05           7038 	.dw	0,(Sstm8_hd44780$lcd_deinit_hw$270)
      0005B2 0E                    7039 	.db	14
      0005B3 03                    7040 	.uleb128	3
      0005B4 01                    7041 	.db	1
      0005B5 00 00r02r07           7042 	.dw	0,(Sstm8_hd44780$lcd_deinit_hw$271)
      0005B9 0E                    7043 	.db	14
      0005BA 04                    7044 	.uleb128	4
      0005BB 01                    7045 	.db	1
      0005BC 00 00r02r09           7046 	.dw	0,(Sstm8_hd44780$lcd_deinit_hw$272)
      0005C0 0E                    7047 	.db	14
      0005C1 05                    7048 	.uleb128	5
      0005C2 01                    7049 	.db	1
      0005C3 00 00r02r0B           7050 	.dw	0,(Sstm8_hd44780$lcd_deinit_hw$273)
      0005C7 0E                    7051 	.db	14
      0005C8 06                    7052 	.uleb128	6
      0005C9 01                    7053 	.db	1
      0005CA 00 00r02r10           7054 	.dw	0,(Sstm8_hd44780$lcd_deinit_hw$274)
      0005CE 0E                    7055 	.db	14
      0005CF 02                    7056 	.uleb128	2
      0005D0 01                    7057 	.db	1
      0005D1 00 00r02r12           7058 	.dw	0,(Sstm8_hd44780$lcd_deinit_hw$276)
      0005D5 0E                    7059 	.db	14
      0005D6 03                    7060 	.uleb128	3
      0005D7 01                    7061 	.db	1
      0005D8 00 00r02r14           7062 	.dw	0,(Sstm8_hd44780$lcd_deinit_hw$277)
      0005DC 0E                    7063 	.db	14
      0005DD 04                    7064 	.uleb128	4
      0005DE 01                    7065 	.db	1
      0005DF 00 00r02r16           7066 	.dw	0,(Sstm8_hd44780$lcd_deinit_hw$278)
      0005E3 0E                    7067 	.db	14
      0005E4 05                    7068 	.uleb128	5
      0005E5 01                    7069 	.db	1
      0005E6 00 00r02r18           7070 	.dw	0,(Sstm8_hd44780$lcd_deinit_hw$279)
      0005EA 0E                    7071 	.db	14
      0005EB 06                    7072 	.uleb128	6
      0005EC 01                    7073 	.db	1
      0005ED 00 00r02r1D           7074 	.dw	0,(Sstm8_hd44780$lcd_deinit_hw$280)
      0005F1 0E                    7075 	.db	14
      0005F2 02                    7076 	.uleb128	2
      0005F3 01                    7077 	.db	1
      0005F4 00 00r02r1F           7078 	.dw	0,(Sstm8_hd44780$lcd_deinit_hw$282)
      0005F8 0E                    7079 	.db	14
      0005F9 03                    7080 	.uleb128	3
      0005FA 01                    7081 	.db	1
      0005FB 00 00r02r21           7082 	.dw	0,(Sstm8_hd44780$lcd_deinit_hw$283)
      0005FF 0E                    7083 	.db	14
      000600 04                    7084 	.uleb128	4
      000601 01                    7085 	.db	1
      000602 00 00r02r23           7086 	.dw	0,(Sstm8_hd44780$lcd_deinit_hw$284)
      000606 0E                    7087 	.db	14
      000607 05                    7088 	.uleb128	5
      000608 01                    7089 	.db	1
      000609 00 00r02r25           7090 	.dw	0,(Sstm8_hd44780$lcd_deinit_hw$285)
      00060D 0E                    7091 	.db	14
      00060E 06                    7092 	.uleb128	6
      00060F 01                    7093 	.db	1
      000610 00 00r02r2A           7094 	.dw	0,(Sstm8_hd44780$lcd_deinit_hw$286)
      000614 0E                    7095 	.db	14
      000615 02                    7096 	.uleb128	2
      000616 01                    7097 	.db	1
      000617 00 00r02r2C           7098 	.dw	0,(Sstm8_hd44780$lcd_deinit_hw$288)
      00061B 0E                    7099 	.db	14
      00061C 03                    7100 	.uleb128	3
      00061D 01                    7101 	.db	1
      00061E 00 00r02r2E           7102 	.dw	0,(Sstm8_hd44780$lcd_deinit_hw$289)
      000622 0E                    7103 	.db	14
      000623 04                    7104 	.uleb128	4
      000624 01                    7105 	.db	1
      000625 00 00r02r30           7106 	.dw	0,(Sstm8_hd44780$lcd_deinit_hw$290)
      000629 0E                    7107 	.db	14
      00062A 05                    7108 	.uleb128	5
      00062B 01                    7109 	.db	1
      00062C 00 00r02r32           7110 	.dw	0,(Sstm8_hd44780$lcd_deinit_hw$291)
      000630 0E                    7111 	.db	14
      000631 06                    7112 	.uleb128	6
      000632 01                    7113 	.db	1
      000633 00 00r02r37           7114 	.dw	0,(Sstm8_hd44780$lcd_deinit_hw$292)
      000637 0E                    7115 	.db	14
      000638 02                    7116 	.uleb128	2
                                   7117 
                                   7118 	.area .debug_frame (NOLOAD)
      000639 00 00                 7119 	.dw	0
      00063B 00 0E                 7120 	.dw	Ldebug_CIE10_end-Ldebug_CIE10_start
      00063D                       7121 Ldebug_CIE10_start:
      00063D FF FF                 7122 	.dw	0xffff
      00063F FF FF                 7123 	.dw	0xffff
      000641 01                    7124 	.db	1
      000642 00                    7125 	.db	0
      000643 01                    7126 	.uleb128	1
      000644 7F                    7127 	.sleb128	-1
      000645 09                    7128 	.db	9
      000646 0C                    7129 	.db	12
      000647 08                    7130 	.uleb128	8
      000648 02                    7131 	.uleb128	2
      000649 89                    7132 	.db	137
      00064A 01                    7133 	.uleb128	1
      00064B                       7134 Ldebug_CIE10_end:
      00064B 00 00 00 9F           7135 	.dw	0,159
      00064F 00 00r06r39           7136 	.dw	0,(Ldebug_CIE10_start-4)
      000653 00 00r01rA7           7137 	.dw	0,(Sstm8_hd44780$lcd_bus_inputs$221)	;initial loc
      000657 00 00 00 35           7138 	.dw	0,Sstm8_hd44780$lcd_bus_inputs$248-Sstm8_hd44780$lcd_bus_inputs$221
      00065B 01                    7139 	.db	1
      00065C 00 00r01rA7           7140 	.dw	0,(Sstm8_hd44780$lcd_bus_inputs$221)
      000660 0E                    7141 	.db	14
      000661 02                    7142 	.uleb128	2
      000662 01                    7143 	.db	1
      000663 00 00r01rA9           7144 	.dw	0,(Sstm8_hd44780$lcd_bus_inputs$223)
      000667 0E                    7145 	.db	14
      000668 03                    7146 	.uleb128	3
      000669 01                    7147 	.db	1
      00066A 00 00r01rAB           7148 	.dw	0,(Sstm8_hd44780$lcd_bus_inputs$224)
      00066E 0E                    7149 	.db	14
      00066F 04                    7150 	.uleb128	4
      000670 01                    7151 	.db	1
      000671 00 00r01rAD           7152 	.dw	0,(Sstm8_hd44780$lcd_bus_inputs$225)
      000675 0E                    7153 	.db	14
      000676 05                    7154 	.uleb128	5
      000677 01                    7155 	.db	1
      000678 00 00r01rAF           7156 	.dw	0,(Sstm8_hd44780$lcd_bus_inputs$226)
      00067C 0E                    7157 	.db	14
      00067D 06                    7158 	.uleb128	6
      00067E 01                    7159 	.db	1
      00067F 00 00r01rB4           7160 	.dw	0,(Sstm8_hd44780$lcd_bus_inputs$227)
      000683 0E                    7161 	.db	14
      000684 02                    7162 	.uleb128	2
      000685 01                    7163 	.db	1
      000686 00 00r01rB6           7164 	.dw	0,(Sstm8_hd44780$lcd_bus_inputs$229)
      00068A 0E                    7165 	.db	14
      00068B 03                    7166 	.uleb128	3
      00068C 01                    7167 	.db	1
      00068D 00 00r01rB8           7168 	.dw	0,(Sstm8_hd44780$lcd_bus_inputs$230)
      000691 0E                    7169 	.db	14
      000692 04                    7170 	.uleb128	4
      000693 01                    7171 	.db	1
      000694 00 00r01rBA           7172 	.dw	0,(Sstm8_hd44780$lcd_bus_inputs$231)
      000698 0E                    7173 	.db	14
      000699 05                    7174 	.uleb128	5
      00069A 01                    7175 	.db	1
      00069B 00 00r01rBC           7176 	.dw	0,(Sstm8_hd44780$lcd_bus_inputs$232)
      00069F 0E                    7177 	.db	14
      0006A0 06                    7178 	.uleb128	6
      0006A1 01                    7179 	.db	1
      0006A2 00 00r01rC1           7180 	.dw	0,(Sstm8_hd44780$lcd_bus_inputs$233)
      0006A6 0E                    7181 	.db	14
      0006A7 02                    7182 	.uleb128	2
      0006A8 01                    7183 	.db	1
      0006A9 00 00r01rC3           7184 	.dw	0,(Sstm8_hd44780$lcd_bus_inputs$235)
      0006AD 0E                    7185 	.db	14
      0006AE 03                    7186 	.uleb128	3
      0006AF 01                    7187 	.db	1
      0006B0 00 00r01rC5           7188 	.dw	0,(Sstm8_hd44780$lcd_bus_inputs$236)
      0006B4 0E                    7189 	.db	14
      0006B5 04                    7190 	.uleb128	4
      0006B6 01                    7191 	.db	1
      0006B7 00 00r01rC7           7192 	.dw	0,(Sstm8_hd44780$lcd_bus_inputs$237)
      0006BB 0E                    7193 	.db	14
      0006BC 05                    7194 	.uleb128	5
      0006BD 01                    7195 	.db	1
      0006BE 00 00r01rC9           7196 	.dw	0,(Sstm8_hd44780$lcd_bus_inputs$238)
      0006C2 0E                    7197 	.db	14
      0006C3 06                    7198 	.uleb128	6
      0006C4 01                    7199 	.db	1
      0006C5 00 00r01rCE           7200 	.dw	0,(Sstm8_hd44780$lcd_bus_inputs$239)
      0006C9 0E                    7201 	.db	14
      0006CA 02                    7202 	.uleb128	2
      0006CB 01                    7203 	.db	1
      0006CC 00 00r01rD0           7204 	.dw	0,(Sstm8_hd44780$lcd_bus_inputs$241)
      0006D0 0E                    7205 	.db	14
      0006D1 03                    7206 	.uleb128	3
      0006D2 01                    7207 	.db	1
      0006D3 00 00r01rD2           7208 	.dw	0,(Sstm8_hd44780$lcd_bus_inputs$242)
      0006D7 0E                    7209 	.db	14
      0006D8 04                    7210 	.uleb128	4
      0006D9 01                    7211 	.db	1
      0006DA 00 00r01rD4           7212 	.dw	0,(Sstm8_hd44780$lcd_bus_inputs$243)
      0006DE 0E                    7213 	.db	14
      0006DF 05                    7214 	.uleb128	5
      0006E0 01                    7215 	.db	1
      0006E1 00 00r01rD6           7216 	.dw	0,(Sstm8_hd44780$lcd_bus_inputs$244)
      0006E5 0E                    7217 	.db	14
      0006E6 06                    7218 	.uleb128	6
      0006E7 01                    7219 	.db	1
      0006E8 00 00r01rDB           7220 	.dw	0,(Sstm8_hd44780$lcd_bus_inputs$245)
      0006EC 0E                    7221 	.db	14
      0006ED 02                    7222 	.uleb128	2
                                   7223 
                                   7224 	.area .debug_frame (NOLOAD)
      0006EE 00 00                 7225 	.dw	0
      0006F0 00 0E                 7226 	.dw	Ldebug_CIE11_end-Ldebug_CIE11_start
      0006F2                       7227 Ldebug_CIE11_start:
      0006F2 FF FF                 7228 	.dw	0xffff
      0006F4 FF FF                 7229 	.dw	0xffff
      0006F6 01                    7230 	.db	1
      0006F7 00                    7231 	.db	0
      0006F8 01                    7232 	.uleb128	1
      0006F9 7F                    7233 	.sleb128	-1
      0006FA 09                    7234 	.db	9
      0006FB 0C                    7235 	.db	12
      0006FC 08                    7236 	.uleb128	8
      0006FD 02                    7237 	.uleb128	2
      0006FE 89                    7238 	.db	137
      0006FF 01                    7239 	.uleb128	1
      000700                       7240 Ldebug_CIE11_end:
      000700 00 00 00 9F           7241 	.dw	0,159
      000704 00 00r06rEE           7242 	.dw	0,(Ldebug_CIE11_start-4)
      000708 00 00r01r72           7243 	.dw	0,(Sstm8_hd44780$lcd_bus_outputs$192)	;initial loc
      00070C 00 00 00 35           7244 	.dw	0,Sstm8_hd44780$lcd_bus_outputs$219-Sstm8_hd44780$lcd_bus_outputs$192
      000710 01                    7245 	.db	1
      000711 00 00r01r72           7246 	.dw	0,(Sstm8_hd44780$lcd_bus_outputs$192)
      000715 0E                    7247 	.db	14
      000716 02                    7248 	.uleb128	2
      000717 01                    7249 	.db	1
      000718 00 00r01r74           7250 	.dw	0,(Sstm8_hd44780$lcd_bus_outputs$194)
      00071C 0E                    7251 	.db	14
      00071D 03                    7252 	.uleb128	3
      00071E 01                    7253 	.db	1
      00071F 00 00r01r76           7254 	.dw	0,(Sstm8_hd44780$lcd_bus_outputs$195)
      000723 0E                    7255 	.db	14
      000724 04                    7256 	.uleb128	4
      000725 01                    7257 	.db	1
      000726 00 00r01r78           7258 	.dw	0,(Sstm8_hd44780$lcd_bus_outputs$196)
      00072A 0E                    7259 	.db	14
      00072B 05                    7260 	.uleb128	5
      00072C 01                    7261 	.db	1
      00072D 00 00r01r7A           7262 	.dw	0,(Sstm8_hd44780$lcd_bus_outputs$197)
      000731 0E                    7263 	.db	14
      000732 06                    7264 	.uleb128	6
      000733 01                    7265 	.db	1
      000734 00 00r01r7F           7266 	.dw	0,(Sstm8_hd44780$lcd_bus_outputs$198)
      000738 0E                    7267 	.db	14
      000739 02                    7268 	.uleb128	2
      00073A 01                    7269 	.db	1
      00073B 00 00r01r81           7270 	.dw	0,(Sstm8_hd44780$lcd_bus_outputs$200)
      00073F 0E                    7271 	.db	14
      000740 03                    7272 	.uleb128	3
      000741 01                    7273 	.db	1
      000742 00 00r01r83           7274 	.dw	0,(Sstm8_hd44780$lcd_bus_outputs$201)
      000746 0E                    7275 	.db	14
      000747 04                    7276 	.uleb128	4
      000748 01                    7277 	.db	1
      000749 00 00r01r85           7278 	.dw	0,(Sstm8_hd44780$lcd_bus_outputs$202)
      00074D 0E                    7279 	.db	14
      00074E 05                    7280 	.uleb128	5
      00074F 01                    7281 	.db	1
      000750 00 00r01r87           7282 	.dw	0,(Sstm8_hd44780$lcd_bus_outputs$203)
      000754 0E                    7283 	.db	14
      000755 06                    7284 	.uleb128	6
      000756 01                    7285 	.db	1
      000757 00 00r01r8C           7286 	.dw	0,(Sstm8_hd44780$lcd_bus_outputs$204)
      00075B 0E                    7287 	.db	14
      00075C 02                    7288 	.uleb128	2
      00075D 01                    7289 	.db	1
      00075E 00 00r01r8E           7290 	.dw	0,(Sstm8_hd44780$lcd_bus_outputs$206)
      000762 0E                    7291 	.db	14
      000763 03                    7292 	.uleb128	3
      000764 01                    7293 	.db	1
      000765 00 00r01r90           7294 	.dw	0,(Sstm8_hd44780$lcd_bus_outputs$207)
      000769 0E                    7295 	.db	14
      00076A 04                    7296 	.uleb128	4
      00076B 01                    7297 	.db	1
      00076C 00 00r01r92           7298 	.dw	0,(Sstm8_hd44780$lcd_bus_outputs$208)
      000770 0E                    7299 	.db	14
      000771 05                    7300 	.uleb128	5
      000772 01                    7301 	.db	1
      000773 00 00r01r94           7302 	.dw	0,(Sstm8_hd44780$lcd_bus_outputs$209)
      000777 0E                    7303 	.db	14
      000778 06                    7304 	.uleb128	6
      000779 01                    7305 	.db	1
      00077A 00 00r01r99           7306 	.dw	0,(Sstm8_hd44780$lcd_bus_outputs$210)
      00077E 0E                    7307 	.db	14
      00077F 02                    7308 	.uleb128	2
      000780 01                    7309 	.db	1
      000781 00 00r01r9B           7310 	.dw	0,(Sstm8_hd44780$lcd_bus_outputs$212)
      000785 0E                    7311 	.db	14
      000786 03                    7312 	.uleb128	3
      000787 01                    7313 	.db	1
      000788 00 00r01r9D           7314 	.dw	0,(Sstm8_hd44780$lcd_bus_outputs$213)
      00078C 0E                    7315 	.db	14
      00078D 04                    7316 	.uleb128	4
      00078E 01                    7317 	.db	1
      00078F 00 00r01r9F           7318 	.dw	0,(Sstm8_hd44780$lcd_bus_outputs$214)
      000793 0E                    7319 	.db	14
      000794 05                    7320 	.uleb128	5
      000795 01                    7321 	.db	1
      000796 00 00r01rA1           7322 	.dw	0,(Sstm8_hd44780$lcd_bus_outputs$215)
      00079A 0E                    7323 	.db	14
      00079B 06                    7324 	.uleb128	6
      00079C 01                    7325 	.db	1
      00079D 00 00r01rA6           7326 	.dw	0,(Sstm8_hd44780$lcd_bus_outputs$216)
      0007A1 0E                    7327 	.db	14
      0007A2 02                    7328 	.uleb128	2
                                   7329 
                                   7330 	.area .debug_frame (NOLOAD)
      0007A3 00 00                 7331 	.dw	0
      0007A5 00 0E                 7332 	.dw	Ldebug_CIE12_end-Ldebug_CIE12_start
      0007A7                       7333 Ldebug_CIE12_start:
      0007A7 FF FF                 7334 	.dw	0xffff
      0007A9 FF FF                 7335 	.dw	0xffff
      0007AB 01                    7336 	.db	1
      0007AC 00                    7337 	.db	0
      0007AD 01                    7338 	.uleb128	1
      0007AE 7F                    7339 	.sleb128	-1
      0007AF 09                    7340 	.db	9
      0007B0 0C                    7341 	.db	12
      0007B1 08                    7342 	.uleb128	8
      0007B2 02                    7343 	.uleb128	2
      0007B3 89                    7344 	.db	137
      0007B4 01                    7345 	.uleb128	1
      0007B5                       7346 Ldebug_CIE12_end:
      0007B5 00 00 00 7C           7347 	.dw	0,124
      0007B9 00 00r07rA3           7348 	.dw	0,(Ldebug_CIE12_start-4)
      0007BD 00 00r01r47           7349 	.dw	0,(Sstm8_hd44780$lcd_init_hw$168)	;initial loc
      0007C1 00 00 00 2B           7350 	.dw	0,Sstm8_hd44780$lcd_init_hw$190-Sstm8_hd44780$lcd_init_hw$168
      0007C5 01                    7351 	.db	1
      0007C6 00 00r01r47           7352 	.dw	0,(Sstm8_hd44780$lcd_init_hw$168)
      0007CA 0E                    7353 	.db	14
      0007CB 02                    7354 	.uleb128	2
      0007CC 01                    7355 	.db	1
      0007CD 00 00r01r49           7356 	.dw	0,(Sstm8_hd44780$lcd_init_hw$170)
      0007D1 0E                    7357 	.db	14
      0007D2 03                    7358 	.uleb128	3
      0007D3 01                    7359 	.db	1
      0007D4 00 00r01r4B           7360 	.dw	0,(Sstm8_hd44780$lcd_init_hw$171)
      0007D8 0E                    7361 	.db	14
      0007D9 04                    7362 	.uleb128	4
      0007DA 01                    7363 	.db	1
      0007DB 00 00r01r4D           7364 	.dw	0,(Sstm8_hd44780$lcd_init_hw$172)
      0007DF 0E                    7365 	.db	14
      0007E0 05                    7366 	.uleb128	5
      0007E1 01                    7367 	.db	1
      0007E2 00 00r01r4F           7368 	.dw	0,(Sstm8_hd44780$lcd_init_hw$173)
      0007E6 0E                    7369 	.db	14
      0007E7 06                    7370 	.uleb128	6
      0007E8 01                    7371 	.db	1
      0007E9 00 00r01r54           7372 	.dw	0,(Sstm8_hd44780$lcd_init_hw$174)
      0007ED 0E                    7373 	.db	14
      0007EE 02                    7374 	.uleb128	2
      0007EF 01                    7375 	.db	1
      0007F0 00 00r01r56           7376 	.dw	0,(Sstm8_hd44780$lcd_init_hw$176)
      0007F4 0E                    7377 	.db	14
      0007F5 03                    7378 	.uleb128	3
      0007F6 01                    7379 	.db	1
      0007F7 00 00r01r58           7380 	.dw	0,(Sstm8_hd44780$lcd_init_hw$177)
      0007FB 0E                    7381 	.db	14
      0007FC 04                    7382 	.uleb128	4
      0007FD 01                    7383 	.db	1
      0007FE 00 00r01r5A           7384 	.dw	0,(Sstm8_hd44780$lcd_init_hw$178)
      000802 0E                    7385 	.db	14
      000803 05                    7386 	.uleb128	5
      000804 01                    7387 	.db	1
      000805 00 00r01r5C           7388 	.dw	0,(Sstm8_hd44780$lcd_init_hw$179)
      000809 0E                    7389 	.db	14
      00080A 06                    7390 	.uleb128	6
      00080B 01                    7391 	.db	1
      00080C 00 00r01r61           7392 	.dw	0,(Sstm8_hd44780$lcd_init_hw$180)
      000810 0E                    7393 	.db	14
      000811 02                    7394 	.uleb128	2
      000812 01                    7395 	.db	1
      000813 00 00r01r63           7396 	.dw	0,(Sstm8_hd44780$lcd_init_hw$182)
      000817 0E                    7397 	.db	14
      000818 03                    7398 	.uleb128	3
      000819 01                    7399 	.db	1
      00081A 00 00r01r65           7400 	.dw	0,(Sstm8_hd44780$lcd_init_hw$183)
      00081E 0E                    7401 	.db	14
      00081F 04                    7402 	.uleb128	4
      000820 01                    7403 	.db	1
      000821 00 00r01r67           7404 	.dw	0,(Sstm8_hd44780$lcd_init_hw$184)
      000825 0E                    7405 	.db	14
      000826 05                    7406 	.uleb128	5
      000827 01                    7407 	.db	1
      000828 00 00r01r69           7408 	.dw	0,(Sstm8_hd44780$lcd_init_hw$185)
      00082C 0E                    7409 	.db	14
      00082D 06                    7410 	.uleb128	6
      00082E 01                    7411 	.db	1
      00082F 00 00r01r6E           7412 	.dw	0,(Sstm8_hd44780$lcd_init_hw$186)
      000833 0E                    7413 	.db	14
      000834 02                    7414 	.uleb128	2
                                   7415 
                                   7416 	.area .debug_frame (NOLOAD)
      000835 00 00                 7417 	.dw	0
      000837 00 0E                 7418 	.dw	Ldebug_CIE13_end-Ldebug_CIE13_start
      000839                       7419 Ldebug_CIE13_start:
      000839 FF FF                 7420 	.dw	0xffff
      00083B FF FF                 7421 	.dw	0xffff
      00083D 01                    7422 	.db	1
      00083E 00                    7423 	.db	0
      00083F 01                    7424 	.uleb128	1
      000840 7F                    7425 	.sleb128	-1
      000841 09                    7426 	.db	9
      000842 0C                    7427 	.db	12
      000843 08                    7428 	.uleb128	8
      000844 02                    7429 	.uleb128	2
      000845 89                    7430 	.db	137
      000846 01                    7431 	.uleb128	1
      000847                       7432 Ldebug_CIE13_end:
      000847 00 00 00 28           7433 	.dw	0,40
      00084B 00 00r08r35           7434 	.dw	0,(Ldebug_CIE13_start-4)
      00084F 00 00r01r15           7435 	.dw	0,(Sstm8_hd44780$lcd_gotoxy$148)	;initial loc
      000853 00 00 00 32           7436 	.dw	0,Sstm8_hd44780$lcd_gotoxy$166-Sstm8_hd44780$lcd_gotoxy$148
      000857 01                    7437 	.db	1
      000858 00 00r01r15           7438 	.dw	0,(Sstm8_hd44780$lcd_gotoxy$148)
      00085C 0E                    7439 	.db	14
      00085D 02                    7440 	.uleb128	2
      00085E 01                    7441 	.db	1
      00085F 00 00r01r39           7442 	.dw	0,(Sstm8_hd44780$lcd_gotoxy$157)
      000863 0E                    7443 	.db	14
      000864 02                    7444 	.uleb128	2
      000865 01                    7445 	.db	1
      000866 00 00r01r42           7446 	.dw	0,(Sstm8_hd44780$lcd_gotoxy$162)
      00086A 0E                    7447 	.db	14
      00086B 03                    7448 	.uleb128	3
      00086C 01                    7449 	.db	1
      00086D 00 00r01r46           7450 	.dw	0,(Sstm8_hd44780$lcd_gotoxy$163)
      000871 0E                    7451 	.db	14
      000872 02                    7452 	.uleb128	2
                                   7453 
                                   7454 	.area .debug_frame (NOLOAD)
      000873 00 00                 7455 	.dw	0
      000875 00 0E                 7456 	.dw	Ldebug_CIE14_end-Ldebug_CIE14_start
      000877                       7457 Ldebug_CIE14_start:
      000877 FF FF                 7458 	.dw	0xffff
      000879 FF FF                 7459 	.dw	0xffff
      00087B 01                    7460 	.db	1
      00087C 00                    7461 	.db	0
      00087D 01                    7462 	.uleb128	1
      00087E 7F                    7463 	.sleb128	-1
      00087F 09                    7464 	.db	9
      000880 0C                    7465 	.db	12
      000881 08                    7466 	.uleb128	8
      000882 02                    7467 	.uleb128	2
      000883 89                    7468 	.db	137
      000884 01                    7469 	.uleb128	1
      000885                       7470 Ldebug_CIE14_end:
      000885 00 00 00 9F           7471 	.dw	0,159
      000889 00 00r08r73           7472 	.dw	0,(Ldebug_CIE14_start-4)
      00088D 00 00r00r92           7473 	.dw	0,(Sstm8_hd44780$lcd_init$79)	;initial loc
      000891 00 00 00 83           7474 	.dw	0,Sstm8_hd44780$lcd_init$146-Sstm8_hd44780$lcd_init$79
      000895 01                    7475 	.db	1
      000896 00 00r00r92           7476 	.dw	0,(Sstm8_hd44780$lcd_init$79)
      00089A 0E                    7477 	.db	14
      00089B 02                    7478 	.uleb128	2
      00089C 01                    7479 	.db	1
      00089D 00 00r00rA7           7480 	.dw	0,(Sstm8_hd44780$lcd_init$90)
      0008A1 0E                    7481 	.db	14
      0008A2 03                    7482 	.uleb128	3
      0008A3 01                    7483 	.db	1
      0008A4 00 00r00rAB           7484 	.dw	0,(Sstm8_hd44780$lcd_init$91)
      0008A8 0E                    7485 	.db	14
      0008A9 02                    7486 	.uleb128	2
      0008AA 01                    7487 	.db	1
      0008AB 00 00r00rBD           7488 	.dw	0,(Sstm8_hd44780$lcd_init$101)
      0008AF 0E                    7489 	.db	14
      0008B0 03                    7490 	.uleb128	3
      0008B1 01                    7491 	.db	1
      0008B2 00 00r00rC1           7492 	.dw	0,(Sstm8_hd44780$lcd_init$102)
      0008B6 0E                    7493 	.db	14
      0008B7 02                    7494 	.uleb128	2
      0008B8 01                    7495 	.db	1
      0008B9 00 00r00rD3           7496 	.dw	0,(Sstm8_hd44780$lcd_init$112)
      0008BD 0E                    7497 	.db	14
      0008BE 03                    7498 	.uleb128	3
      0008BF 01                    7499 	.db	1
      0008C0 00 00r00rD7           7500 	.dw	0,(Sstm8_hd44780$lcd_init$113)
      0008C4 0E                    7501 	.db	14
      0008C5 02                    7502 	.uleb128	2
      0008C6 01                    7503 	.db	1
      0008C7 00 00r00rDC           7504 	.dw	0,(Sstm8_hd44780$lcd_init$116)
      0008CB 0E                    7505 	.db	14
      0008CC 03                    7506 	.uleb128	3
      0008CD 01                    7507 	.db	1
      0008CE 00 00r00rE0           7508 	.dw	0,(Sstm8_hd44780$lcd_init$117)
      0008D2 0E                    7509 	.db	14
      0008D3 02                    7510 	.uleb128	2
      0008D4 01                    7511 	.db	1
      0008D5 00 00r00rF2           7512 	.dw	0,(Sstm8_hd44780$lcd_init$127)
      0008D9 0E                    7513 	.db	14
      0008DA 03                    7514 	.uleb128	3
      0008DB 01                    7515 	.db	1
      0008DC 00 00r00rF6           7516 	.dw	0,(Sstm8_hd44780$lcd_init$128)
      0008E0 0E                    7517 	.db	14
      0008E1 02                    7518 	.uleb128	2
      0008E2 01                    7519 	.db	1
      0008E3 00 00r00rF8           7520 	.dw	0,(Sstm8_hd44780$lcd_init$130)
      0008E7 0E                    7521 	.db	14
      0008E8 03                    7522 	.uleb128	3
      0008E9 01                    7523 	.db	1
      0008EA 00 00r00rFC           7524 	.dw	0,(Sstm8_hd44780$lcd_init$131)
      0008EE 0E                    7525 	.db	14
      0008EF 02                    7526 	.uleb128	2
      0008F0 01                    7527 	.db	1
      0008F1 00 00r00rFE           7528 	.dw	0,(Sstm8_hd44780$lcd_init$133)
      0008F5 0E                    7529 	.db	14
      0008F6 03                    7530 	.uleb128	3
      0008F7 01                    7531 	.db	1
      0008F8 00 00r01r02           7532 	.dw	0,(Sstm8_hd44780$lcd_init$134)
      0008FC 0E                    7533 	.db	14
      0008FD 02                    7534 	.uleb128	2
      0008FE 01                    7535 	.db	1
      0008FF 00 00r01r04           7536 	.dw	0,(Sstm8_hd44780$lcd_init$136)
      000903 0E                    7537 	.db	14
      000904 03                    7538 	.uleb128	3
      000905 01                    7539 	.db	1
      000906 00 00r01r08           7540 	.dw	0,(Sstm8_hd44780$lcd_init$137)
      00090A 0E                    7541 	.db	14
      00090B 02                    7542 	.uleb128	2
      00090C 01                    7543 	.db	1
      00090D 00 00r01r0A           7544 	.dw	0,(Sstm8_hd44780$lcd_init$139)
      000911 0E                    7545 	.db	14
      000912 03                    7546 	.uleb128	3
      000913 01                    7547 	.db	1
      000914 00 00r01r0E           7548 	.dw	0,(Sstm8_hd44780$lcd_init$140)
      000918 0E                    7549 	.db	14
      000919 02                    7550 	.uleb128	2
      00091A 01                    7551 	.db	1
      00091B 00 00r01r10           7552 	.dw	0,(Sstm8_hd44780$lcd_init$142)
      00091F 0E                    7553 	.db	14
      000920 03                    7554 	.uleb128	3
      000921 01                    7555 	.db	1
      000922 00 00r01r14           7556 	.dw	0,(Sstm8_hd44780$lcd_init$143)
      000926 0E                    7557 	.db	14
      000927 02                    7558 	.uleb128	2
                                   7559 
                                   7560 	.area .debug_frame (NOLOAD)
      000928 00 00                 7561 	.dw	0
      00092A 00 0E                 7562 	.dw	Ldebug_CIE15_end-Ldebug_CIE15_start
      00092C                       7563 Ldebug_CIE15_start:
      00092C FF FF                 7564 	.dw	0xffff
      00092E FF FF                 7565 	.dw	0xffff
      000930 01                    7566 	.db	1
      000931 00                    7567 	.db	0
      000932 01                    7568 	.uleb128	1
      000933 7F                    7569 	.sleb128	-1
      000934 09                    7570 	.db	9
      000935 0C                    7571 	.db	12
      000936 08                    7572 	.uleb128	8
      000937 02                    7573 	.uleb128	2
      000938 89                    7574 	.db	137
      000939 01                    7575 	.uleb128	1
      00093A                       7576 Ldebug_CIE15_end:
      00093A 00 00 00 2F           7577 	.dw	0,47
      00093E 00 00r09r28           7578 	.dw	0,(Ldebug_CIE15_start-4)
      000942 00 00r00r7D           7579 	.dw	0,(Sstm8_hd44780$lcd_puts$65)	;initial loc
      000946 00 00 00 15           7580 	.dw	0,Sstm8_hd44780$lcd_puts$77-Sstm8_hd44780$lcd_puts$65
      00094A 01                    7581 	.db	1
      00094B 00 00r00r7D           7582 	.dw	0,(Sstm8_hd44780$lcd_puts$65)
      00094F 0E                    7583 	.db	14
      000950 02                    7584 	.uleb128	2
      000951 01                    7585 	.db	1
      000952 00 00r00r87           7586 	.dw	0,(Sstm8_hd44780$lcd_puts$69)
      000956 0E                    7587 	.db	14
      000957 04                    7588 	.uleb128	4
      000958 01                    7589 	.db	1
      000959 00 00r00r88           7590 	.dw	0,(Sstm8_hd44780$lcd_puts$70)
      00095D 0E                    7591 	.db	14
      00095E 05                    7592 	.uleb128	5
      00095F 01                    7593 	.db	1
      000960 00 00r00r8C           7594 	.dw	0,(Sstm8_hd44780$lcd_puts$71)
      000964 0E                    7595 	.db	14
      000965 04                    7596 	.uleb128	4
      000966 01                    7597 	.db	1
      000967 00 00r00r8D           7598 	.dw	0,(Sstm8_hd44780$lcd_puts$72)
      00096B 0E                    7599 	.db	14
      00096C 02                    7600 	.uleb128	2
                                   7601 
                                   7602 	.area .debug_frame (NOLOAD)
      00096D 00 00                 7603 	.dw	0
      00096F 00 0E                 7604 	.dw	Ldebug_CIE16_end-Ldebug_CIE16_start
      000971                       7605 Ldebug_CIE16_start:
      000971 FF FF                 7606 	.dw	0xffff
      000973 FF FF                 7607 	.dw	0xffff
      000975 01                    7608 	.db	1
      000976 00                    7609 	.db	0
      000977 01                    7610 	.uleb128	1
      000978 7F                    7611 	.sleb128	-1
      000979 09                    7612 	.db	9
      00097A 0C                    7613 	.db	12
      00097B 08                    7614 	.uleb128	8
      00097C 02                    7615 	.uleb128	2
      00097D 89                    7616 	.db	137
      00097E 01                    7617 	.uleb128	1
      00097F                       7618 Ldebug_CIE16_end:
      00097F 00 00 00 4B           7619 	.dw	0,75
      000983 00 00r09r6D           7620 	.dw	0,(Ldebug_CIE16_start-4)
      000987 00 00r00r45           7621 	.dw	0,(Sstm8_hd44780$lcd_store_symbol$44)	;initial loc
      00098B 00 00 00 38           7622 	.dw	0,Sstm8_hd44780$lcd_store_symbol$63-Sstm8_hd44780$lcd_store_symbol$44
      00098F 01                    7623 	.db	1
      000990 00 00r00r45           7624 	.dw	0,(Sstm8_hd44780$lcd_store_symbol$44)
      000994 0E                    7625 	.db	14
      000995 02                    7626 	.uleb128	2
      000996 01                    7627 	.db	1
      000997 00 00r00r46           7628 	.dw	0,(Sstm8_hd44780$lcd_store_symbol$45)
      00099B 0E                    7629 	.db	14
      00099C 03                    7630 	.uleb128	3
      00099D 01                    7631 	.db	1
      00099E 00 00r00r57           7632 	.dw	0,(Sstm8_hd44780$lcd_store_symbol$48)
      0009A2 0E                    7633 	.db	14
      0009A3 04                    7634 	.uleb128	4
      0009A4 01                    7635 	.db	1
      0009A5 00 00r00r5B           7636 	.dw	0,(Sstm8_hd44780$lcd_store_symbol$49)
      0009A9 0E                    7637 	.db	14
      0009AA 03                    7638 	.uleb128	3
      0009AB 01                    7639 	.db	1
      0009AC 00 00r00r66           7640 	.dw	0,(Sstm8_hd44780$lcd_store_symbol$53)
      0009B0 0E                    7641 	.db	14
      0009B1 04                    7642 	.uleb128	4
      0009B2 01                    7643 	.db	1
      0009B3 00 00r00r6A           7644 	.dw	0,(Sstm8_hd44780$lcd_store_symbol$54)
      0009B7 0E                    7645 	.db	14
      0009B8 03                    7646 	.uleb128	3
      0009B9 01                    7647 	.db	1
      0009BA 00 00r00r77           7648 	.dw	0,(Sstm8_hd44780$lcd_store_symbol$58)
      0009BE 0E                    7649 	.db	14
      0009BF 04                    7650 	.uleb128	4
      0009C0 01                    7651 	.db	1
      0009C1 00 00r00r7B           7652 	.dw	0,(Sstm8_hd44780$lcd_store_symbol$59)
      0009C5 0E                    7653 	.db	14
      0009C6 03                    7654 	.uleb128	3
      0009C7 01                    7655 	.db	1
      0009C8 00 00r00r7C           7656 	.dw	0,(Sstm8_hd44780$lcd_store_symbol$61)
      0009CC 0E                    7657 	.db	14
      0009CD 02                    7658 	.uleb128	2
                                   7659 
                                   7660 	.area .debug_frame (NOLOAD)
      0009CE 00 00                 7661 	.dw	0
      0009D0 00 0E                 7662 	.dw	Ldebug_CIE17_end-Ldebug_CIE17_start
      0009D2                       7663 Ldebug_CIE17_start:
      0009D2 FF FF                 7664 	.dw	0xffff
      0009D4 FF FF                 7665 	.dw	0xffff
      0009D6 01                    7666 	.db	1
      0009D7 00                    7667 	.db	0
      0009D8 01                    7668 	.uleb128	1
      0009D9 7F                    7669 	.sleb128	-1
      0009DA 09                    7670 	.db	9
      0009DB 0C                    7671 	.db	12
      0009DC 08                    7672 	.uleb128	8
      0009DD 02                    7673 	.uleb128	2
      0009DE 89                    7674 	.db	137
      0009DF 01                    7675 	.uleb128	1
      0009E0                       7676 Ldebug_CIE17_end:
      0009E0 00 00 00 75           7677 	.dw	0,117
      0009E4 00 00r09rCE           7678 	.dw	0,(Ldebug_CIE17_start-4)
      0009E8 00 00r00r0D           7679 	.dw	0,(Sstm8_hd44780$_delay_us$13)	;initial loc
      0009EC 00 00 00 38           7680 	.dw	0,Sstm8_hd44780$_delay_us$42-Sstm8_hd44780$_delay_us$13
      0009F0 01                    7681 	.db	1
      0009F1 00 00r00r0D           7682 	.dw	0,(Sstm8_hd44780$_delay_us$13)
      0009F5 0E                    7683 	.db	14
      0009F6 02                    7684 	.uleb128	2
      0009F7 01                    7685 	.db	1
      0009F8 00 00r00r12           7686 	.dw	0,(Sstm8_hd44780$_delay_us$15)
      0009FC 0E                    7687 	.db	14
      0009FD 04                    7688 	.uleb128	4
      0009FE 01                    7689 	.db	1
      0009FF 00 00r00r13           7690 	.dw	0,(Sstm8_hd44780$_delay_us$16)
      000A03 0E                    7691 	.db	14
      000A04 06                    7692 	.uleb128	6
      000A05 01                    7693 	.db	1
      000A06 00 00r00r15           7694 	.dw	0,(Sstm8_hd44780$_delay_us$17)
      000A0A 0E                    7695 	.db	14
      000A0B 07                    7696 	.uleb128	7
      000A0C 01                    7697 	.db	1
      000A0D 00 00r00r17           7698 	.dw	0,(Sstm8_hd44780$_delay_us$18)
      000A11 0E                    7699 	.db	14
      000A12 08                    7700 	.uleb128	8
      000A13 01                    7701 	.db	1
      000A14 00 00r00r19           7702 	.dw	0,(Sstm8_hd44780$_delay_us$19)
      000A18 0E                    7703 	.db	14
      000A19 09                    7704 	.uleb128	9
      000A1A 01                    7705 	.db	1
      000A1B 00 00r00r1B           7706 	.dw	0,(Sstm8_hd44780$_delay_us$20)
      000A1F 0E                    7707 	.db	14
      000A20 0A                    7708 	.uleb128	10
      000A21 01                    7709 	.db	1
      000A22 00 00r00r20           7710 	.dw	0,(Sstm8_hd44780$_delay_us$21)
      000A26 0E                    7711 	.db	14
      000A27 02                    7712 	.uleb128	2
      000A28 01                    7713 	.db	1
      000A29 00 00r00r22           7714 	.dw	0,(Sstm8_hd44780$_delay_us$23)
      000A2D 0E                    7715 	.db	14
      000A2E 03                    7716 	.uleb128	3
      000A2F 01                    7717 	.db	1
      000A30 00 00r00r24           7718 	.dw	0,(Sstm8_hd44780$_delay_us$24)
      000A34 0E                    7719 	.db	14
      000A35 04                    7720 	.uleb128	4
      000A36 01                    7721 	.db	1
      000A37 00 00r00r26           7722 	.dw	0,(Sstm8_hd44780$_delay_us$25)
      000A3B 0E                    7723 	.db	14
      000A3C 05                    7724 	.uleb128	5
      000A3D 01                    7725 	.db	1
      000A3E 00 00r00r28           7726 	.dw	0,(Sstm8_hd44780$_delay_us$26)
      000A42 0E                    7727 	.db	14
      000A43 06                    7728 	.uleb128	6
      000A44 01                    7729 	.db	1
      000A45 00 00r00r29           7730 	.dw	0,(Sstm8_hd44780$_delay_us$27)
      000A49 0E                    7731 	.db	14
      000A4A 08                    7732 	.uleb128	8
      000A4B 01                    7733 	.db	1
      000A4C 00 00r00r2B           7734 	.dw	0,(Sstm8_hd44780$_delay_us$28)
      000A50 0E                    7735 	.db	14
      000A51 0A                    7736 	.uleb128	10
      000A52 01                    7737 	.db	1
      000A53 00 00r00r30           7738 	.dw	0,(Sstm8_hd44780$_delay_us$29)
      000A57 0E                    7739 	.db	14
      000A58 02                    7740 	.uleb128	2
                                   7741 
                                   7742 	.area .debug_frame (NOLOAD)
      000A59 00 00                 7743 	.dw	0
      000A5B 00 0E                 7744 	.dw	Ldebug_CIE18_end-Ldebug_CIE18_start
      000A5D                       7745 Ldebug_CIE18_start:
      000A5D FF FF                 7746 	.dw	0xffff
      000A5F FF FF                 7747 	.dw	0xffff
      000A61 01                    7748 	.db	1
      000A62 00                    7749 	.db	0
      000A63 01                    7750 	.uleb128	1
      000A64 7F                    7751 	.sleb128	-1
      000A65 09                    7752 	.db	9
      000A66 0C                    7753 	.db	12
      000A67 08                    7754 	.uleb128	8
      000A68 02                    7755 	.uleb128	2
      000A69 89                    7756 	.db	137
      000A6A 01                    7757 	.uleb128	1
      000A6B                       7758 Ldebug_CIE18_end:
      000A6B 00 00 00 13           7759 	.dw	0,19
      000A6F 00 00r0Ar59           7760 	.dw	0,(Ldebug_CIE18_start-4)
      000A73 00 00r00r00           7761 	.dw	0,(Sstm8_hd44780$_delay_cycl$1)	;initial loc
      000A77 00 00 00 0D           7762 	.dw	0,Sstm8_hd44780$_delay_cycl$11-Sstm8_hd44780$_delay_cycl$1
      000A7B 01                    7763 	.db	1
      000A7C 00 00r00r00           7764 	.dw	0,(Sstm8_hd44780$_delay_cycl$1)
      000A80 0E                    7765 	.db	14
      000A81 02                    7766 	.uleb128	2
